(lp0
(lp1
S'CTGACGCCGGATCAAGTGGTAGCTATCGCTAGTCACGATGGTGGTAAACAGGCGCTTGAAACCGTACAGCGTCTGCTCCCGGTATTATGCCAGGACCACGGGCTCACACCGGATCAGGTAGTGGCAATCGCGTCACACGATGGCGGCAAGCAGGCCTTAGAGACAGTTCAACGTCTTCTGCCGGTGCTGTGCCAGGACCACGGTTTAACTCCTGACCAGGTCGTAGCTATTGCTTCGAACGGTGGTGGCAAACAGGCCCTGGAAACCGTCCAGCGTCTGTTGCCGGTGCTGTGCCAAGACCACGGCCTTACACCGGATCAGGTCGTGGCCATTGCATCACACGATGGCGGTAAGCAGGCCCTGGAGACAGTGCAGCGCCTGCTGCCGGTCCTGTGTCAAGACCACGGGCTGACGCCGGATCAAGTAGTCGCAATCGCCTCAAACATTGGGGGCAAGCAGGCTCTGGAAACGGTGCAGCGTTTATTACCAGTGCTGTGTCAGGATCATGGCCTGACCCCTGACCAGGTTGTGGCTATCGCCAGCAACGGTGGCGGTAAACAAGCGCTGGAAACGGTTCAACGTTTACTGCCGGTTTTATGCCAGGATCATGGCCTGACCCCAGACCAAGTGGTTGCCATCGCAAGCCACGATGGGGGTAAACAAGCACTCGAAACCGTGCAACGCCTGCTGCCGGTCCTGTGCCAGGATCACGGTCTGACCCCGGATCAGGTGGTCGCCATTGCTAGTAACATTGGTGGCAAACAGGCGCTCGAAACTGTCCAGCGCCTGCTGCCGGTTCTGTGCCAGGATCATGGCTTAACCCCGGACCAGGTTGTCGCCATTGCCAGCAACAATGGCGGCAAACAGGCTTTAGAGACAGTCCAACGCCTGCTTCCGGTTCTCTGTCAGGATCATGGCTTAACACCGGATCAAGTAGTGGCGATTGCGAGCAACAATGGTGGCAAACAGGCGTTAGAAACCGTTCAGCGCCTGTTACCAGTTTTATGTCAAGATCATGGCCTGACCCCGGATCAGGTTGTTGCGATTGCATCGAACATTGGTGGTAAACAGGCTCTGGAAACCGTTCAGCGTTTACTGCCGGTGCTGTGCCAGGACCACGGTTTAACGCCAGACCAGGTGGTGGCGATTGCGTCTAACATTGGTGGTAAACAAGCCCTGGAAACTGTACAGCGCCTGTTACCTGTCTTATGCCAGGATCATGGTCTGACTCCAGATCAGGTAGTTGCGATCGCCAGCCACGATGGCGGGAAACAGGCATTAGAAACCGTCCAGCGTCTGTTGCCGGTGTTATGCCAGGACCACGGTCTGACCCCTGACCAAGTGGTTGCGATTGCGAGCAACATTGGCGGTAAGCAAGCGCTGGAGACAGTGCAGCGCTTATTACCAGTTCTGTGTCAAGATCATGGTCTGACCCCGGATCAGGTGGTTGCCATCGCGTCGAACGGTGGCGGGAAACAGGCGCTGGAAACGGTGCAGCGTTTACTGCCGGTGCTGTGTCAGGATCATGGTTTAACTCCAGATCAGGTTGTCGCTATTGCATCTAACAATGGTGGCAAACAGGCATTAGAAACGGTTCAGCGTCTGCTCCCTGTATTATGCCAGGATCATGGC'
p2
aS'CTGACGCCGGATCAAGTGGTAGCAATCGCTAGTCACGATGGTGGTAAACAGGCACTGGAAACCGTACAGCGTCTGCTGCCGGTACTTTGCCAGGACCACGGGCTCACACCGGATCAGGTAGTGGCAATCGCGTCACACGATGGCGGTAAACAGGCCTTAGAGACAGTTCAGCGTCTTCTGCCGGTGCTGTGCCAGGACCACGGTTTAACTCCTGACCAGGTCGTAGCGATCGCTTCGAACGGTGGTGGCAAACAAGCACTGGAAACTGTCCAACGTCTGTTGCCGGTGCTGTGCCAAGACCACGGCCTTACACCGGATCAGGTCGTGGCCATTGCGTCACACGATGGCGGTAAGCAGGCCCTGGAGACAGTGCAGCGCCTGCTGCCGGTCCTGTGCCAAGACCACGGGCTGACGCCGGATCAAGTGGTCGCTATCGCCTCAAACATTGGGGGCAAACAAGCTCTGGAAACGGTGCAGCGTTTATTACCAGTGCTCTGTCAGGATCATGGCCTGACCCCTGACCAGGTTGTGGCTATCGCCAGCAACGGTGGCGGTAAACAAGCGCTGGAAACGGTTCAACGCTTACTGCCGGTTTTATGCCAGGATCATGGCCTGACACCGGACCAAGTTGTTGCAATCGCAAGCCACGATGGGGGTAAACAAGCCCTCGAAACCGTGCAACGCCTGCTGCCGGTCCTGTGCCAGGATCACGGTTTAACCCCGGATCAGGTGGTAGCGATTGCCAGTAACATTGGTGGCAAACAGGCGCTCGAAACTGTCCAGCGCCTGCTGCCGGTTCTGTGTCAGGATCATGGCTTAACCCCGGACCAGGTTGTGGCGATTGCAAGCAACAATGGCGGCAAACAGGCTTTAGAGACAGTGCAACGCCTGCTTCCGGTTCTCTGTCAGGATCATGGCTTAACACCGGATCAGGTCGTGGCGATTGCGAGCAACAATGGTGGCAAACAGGCGTTAGAAACCGTTCAGCGCCTGTTACCAGTTTTATGTCAAGATCATGGCCTGACCCCGGATCAGGTTGTTGCCATTGCATCGAACATTGGTGGTAAACAGGCCCTGGAAACCGTTCAGCGTTTACTGCCGGTGCTGTGCCAGGACCACGGTTTAACGCCAGACCAGGTGGTGGCGATTGCGTCTAACATTGGTGGTAAACAAGCCCTGGAAACTGTACAGCGCCTGTTACCTGTATTATGCCAGGATCATGGTCTGACACCAGATCAGGTAGTTGCGATCGCCAGCCACGATGGCGGGAAACAGGCATTAGAAACCGTCCAGCGTCTGTTGCCGGTGTTATGCCAGGACCACGGTCTGACCCCTGACCAAGTGGTTGCGATCGCGAGCAACATTGGCGGTAAGCAAGCGCTGGAGACAGTGCAGCGCTTATTACCAGTTCTGTGTCAGGATCATGGTCTGACCCCGGATCAAGTGGTTGCCATCGCGTCGAACGGTGGCGGGAAACAGGCGCTGGAAACGGTGCAACGTTTACTGCCGGTGCTGTGTCAGGATCATGGTTTAACTCCAGATCAGGTTGTCGCCATTGCATCTAACAATGGTGGCAAACAGGCATTAGAAACGGTTCAGCGTCTGCTCCCTGTATTATGCCAGGATCATGGC'
p3
aS'CTGACGCCGGATCAAGTGGTAGCAATCGCTAGTCACGATGGTGGTAAACAGGCGCTGGAAACCGTACAGCGTCTGCTGCCGGTATTATGTCAGGACCACGGGCTCACACCGGATCAAGTAGTGGCAATCGCGTCACACGATGGCGGCAAACAGGCCTTAGAGACAGTTCAGCGTCTTCTGCCGGTACTGTGCCAGGACCACGGTTTAACTCCTGACCAGGTCGTAGCTATCGCTTCGAACGGTGGTGGCAAACAGGCACTGGAAACCGTCCAACGTCTGTTGCCGGTGCTGTGCCAAGACCACGGTTTGACACCGGATCAGGTCGTGGCCATTGCATCACACGATGGCGGTAAGCAGGCCCTGGAGACAGTGCAGCGCCTGCTGCCGGTCCTGTGTCAAGACCACGGGCTGACGCCGGATCAAGTAGTCGCAATCGCCTCAAACATTGGGGGCAAACAGGCTCTGGAAACGGTGCAGCGTTTATTACCAGTGCTTTGTCAGGATCATGGCCTGACCCCTGACCAGGTTGTGGCTATCGCCAGCAACGGTGGCGGTAAGCAAGCGCTGGAAACGGTTCAGCGCTTACTGCCGGTTTTATGCCAGGATCATGGCCTGACACCGGACCAAGTGGTTGCAATCGCAAGCCACGATGGGGGTAAACAAGCACTCGAAACCGTGCAACGCCTGCTGCCGGTCCTGTGCCAGGATCACGGTTTAACCCCGGATCAGGTGGTAGCCATTGCTAGTAACATTGGTGGCAAACAGGCGCTCGAAACTGTCCAGCGCCTGCTGCCGGTTCTGTGCCAGGATCACGGCTTAACCCCGGACCAGGTTGTCGCGATTGCAAGCAACAATGGCGGCAAACAGGCTTTAGAGACAGTGCAACGCCTGCTTCCGGTTCTCTGTCAGGATCATGGCTTAACACCGGATCAGGTAGTGGCGATTGCCAGCAACAATGGTGGCAAACAGGCGTTAGAAACCGTTCAGCGCCTGTTACCAGTTTTATGTCAAGATCATGGCCTGACCCCGGATCAGGTTGTTGCCATTGCATCGAACATTGGTGGTAAACAGGCTCTGGAAACCGTTCAGCGTTTACTGCCGGTGCTGTGCCAGGACCACGGTTTAACGCCAGACCAGGTGGTGGCGATTGCGTCTAACATTGGTGGTAAACAAGCCCTCGAAACTGTACAGCGCCTGTTACCTGTCTTATGCCAGGATCATGGTCTGACTCCAGACCAGGTCGTTGCGATCGCCAGCCACGATGGCGGGAAACAGGCATTAGAAACCGTCCAGCGTCTGTTGCCGGTGTTATGCCAAGACCACGGTCTGACCCCTGACCAGGTGGTTGCGATTGCGAGCAACATTGGCGGTAAGCAAGCGCTGGAGACAGTGCAGCGCTTATTACCAGTTCTGTGTCAAGATCATGGTCTGACCCCGGATCAGGTGGTTGCAATCGCGTCGAACGGTGGCGGGAAGCAGGCGCTGGAAACGGTGCAACGTTTACTGCCGGTGCTGTGTCAGGATCATGGGTTAACTCCAGATCAGGTTGTCGCTATTGCATCTAACAATGGTGGCAAACAGGCATTAGAAACGGTTCAGCGTCTGCTCCCTGTATTATGCCAGGATCATGGC'
p4
aS'CTGACGCCGGATCAAGTGGTAGCAATCGCTAGTCACGATGGTGGTAAACAGGCGCTTGAAACCGTACAGCGTCTGCTGCCGGTACTCTGCCAGGACCACGGGCTCACACCGGATCAGGTAGTGGCAATCGCGTCACACGATGGCGGCAAACAGGCCTTAGAGACAGTTCAGCGTCTTCTGCCGGTGCTGTGCCAGGACCACGGTTTAACTCCTGACCAGGTCGTAGCTATCGCTTCGAACGGTGGTGGCAAACAAGCACTGGAAACCGTCCAACGTCTGTTGCCGGTGCTGTGCCAAGACCACGGCCTTACACCGGATCAGGTCGTGGCCATTGCATCACACGATGGCGGTAAACAGGCCCTTGAGACAGTGCAGCGCCTGCTGCCGGTCCTGTGTCAAGACCACGGGCTGACGCCGGATCAAGTAGTCGCAATCGCCTCAAACATTGGGGGCAAGCAGGCTCTGGAAACGGTGCAGCGTTTATTACCAGTGCTGTGTCAGGATCATGGCCTGACCCCTGACCAGGTTGTGGCTATCGCCAGCAACGGTGGCGGTAAACAAGCTCTGGAAACGGTTCAACGCTTACTGCCGGTTTTATGCCAGGATCACGGCCTGACACCGGACCAAGTGGTTGCAATCGCAAGCCACGATGGGGGTAAACAAGCCCTCGAAACCGTGCAACGCCTTCTGCCGGTCCTGTGCCAAGATCACGGTTTAACCCCGGATCAGGTGGTAGCGATTGCTAGTAACATTGGTGGCAAACAGGCGCTCGAAACTGTCCAGCGCCTGCTGCCGGTTCTGTGTCAGGATCATGGCTTAACCCCGGACCAGGTTGTCGCGATTGCCAGCAACAATGGCGGCAAACAGGCTTTAGAGACAGTCCAACGCCTGCTTCCGGTTCTTTGTCAGGATCATGGCTTAACACCGGATCAAGTAGTGGCGATTGCGAGCAACAATGGTGGCAAACAGGCGTTAGAAACCGTTCAGCGCCTGTTACCAGTTTTATGTCAAGATCATGGCCTGACCCCGGATCAGGTTGTTGCCATTGCATCGAACATTGGTGGTAAACAGGCTCTGGAAACCGTTCAGCGTTTACTGCCTGTGCTGTGCCAGGACCACGGTTTAACGCCAGACCAGGTGGTGGCGATCGCGTCCAACATTGGTGGTAAACAAGCCCTGGAAACTGTACAGCGCCTGTTACCTGTCTTATGCCAGGATCATGGTCTGACTCCAGATCAGGTTGTTGCGATCGCCAGCCACGATGGCGGGAAACAGGCATTAGAAACCGTCCAGCGTCTGTTGCCGGTGTTATGCCAGGACCACGGTCTGACCCCTGACCAGGTGGTGGCCATTGCGAGCAACATTGGCGGTAAGCAAGCGCTGGAGACAGTGCAGCGCTTATTACCAGTTCTGTGTCAAGATCATGGTCTGACCCCGGACCAGGTGGTTGCTATCGCGTCGAACGGTGGCGGGAAGCAGGCGCTGGAAACGGTGCAACGTTTACTGCCGGTGCTGTGTCAGGATCATGGGTTAACTCCAGATCAGGTTGTCGCTATTGCATCTAACAATGGTGGCAAACAGGCATTAGAAACGGTTCAGCGTCTGCTCCCTGTATTATGCCAGGATCATGGC'
p5
aS'CTGACGCCGGATCAAGTAGTAGCAATCGCTAGTCACGATGGTGGTAAACAGGCGCTGGAAACCGTACAGCGTCTGCTGCCGGTATTATGCCAGGACCACGGGCTCACACCGGATCAGGTAGTGGCAATCGCGTCACACGATGGCGGCAAACAGGCCTTAGAGACAGTTCAGCGTCTTCTGCCGGTGCTGTGCCAGGACCACGGTTTAACTCCTGACCAGGTCGTAGCTATCGCTTCGAACGGTGGTGGCAAACAAGCACTGGAAACCGTCCAACGTCTGTTGCCGGTGCTGTGCCAAGACCACGGCCTTACACCGGATCAGGTCGTGGCCATTGCATCACACGATGGCGGTAAACAGGCCCTGGAGACAGTGCAGCGCCTGCTGCCGGTCCTGTGTCAAGACCACGGGCTGACGCCGGACCAAGTAGTCGCAATCGCCTCAAACATTGGGGGCAAACAGGCTCTGGAAACGGTGCAGCGTTTATTACCAGTGCTGTGCCAGGATCATGGCCTGACCCCTGACCAGGTTGTGGCTATCGCCAGCAACGGTGGCGGTAAACAAGCGCTGGAAACGGTTCAACGCTTACTGCCGGTTTTATGCCAGGATCATGGCCTGACACCGGACCAAGTGGTTGCAATCGCAAGCCACGATGGGGGTAAACAAGCACTCGAAACCGTGCAACGCCTGCTGCCGGTCCTGTGCCAGGATCACGGTTTAACCCCGGATCAGGTGGTAGCGATTGCAAGTAACATTGGTGGCAAGCAGGCGCTCGAAACTGTCCAGCGCCTGCTGCCGGTTCTGTGCCAGGATCATGGCTTAACCCCGGATCAGGTTGTCGCGATTGCCAGCAACAATGGCGGCAAGCAGGCTTTAGAGACAGTCCAACGCCTGCTTCCGGTTCTCTGTCAGGATCATGGCTTAACACCGGATCAAGTAGTGGCGATTGCGAGCAACAATGGTGGCAAACAGGCGTTAGAAACCGTTCAGCGCCTGTTACCAGTTTTATGTCAAGATCATGGCCTGACCCCGGATCAGGTTGTTGCCATTGCATCGAACATTGGTGGTAAACAGGCTCTGGAAACCGTTCAGCGTTTACTGCCGGTGCTGTGCCAGGACCACGGTTTAACGCCAGACCAGGTGGTGGCGATTGCGTCTAACATTGGTGGTAAACAAGCCCTGGAAACTGTACAGCGCCTGTTACCTGTCTTATGCCAGGATCATGGTCTGACTCCAGACCAGGTTGTTGCGATCGCCAGCCACGATGGCGGGAAACAGGCATTAGAAACCGTCCAGCGTCTGTTGCCGGTGTTATGCCAAGACCACGGTCTGACCCCTGACCAGGTGGTTGCGATTGCGAGCAACATTGGCGGTAAGCAAGCGCTGGAGACAGTGCAGCGCTTATTACCAGTTCTGTGTCAAGATCATGGTCTGACCCCGGATCAGGTGGTTGCCATCGCGTCGAACGGTGGCGGGAAGCAAGCGCTGGAAACGGTGCAGCGTTTACTGCCGGTGCTGTGTCAGGATCATGGTTTAACTCCAGATCAGGTTGTCGCTATTGCATCTAACAATGGTGGCAAACAGGCATTAGAAACGGTTCAGCGTCTGCTCCCTGTCTTATGCCAGGATCATGGC'
p6
aS'CTGACGCCGGATCAAGTGGTAGCAATCGCTAGTCACGATGGTGGTAAACAGGCGCTTGAAACCGTACAGCGTCTGCTGCCGGTATTATGCCAGGACCACGGGCTCACACCGGATCAGGTAGTGGCAATCGCGTCACACGATGGCGGCAAACAGGCCTTAGAGACAGTTCAGCGTCTTCTGCCAGTGCTGTGCCAGGACCACGGTTTAACTCCTGACCAGGTCGTAGCTATCGCTTCGAACGGTGGTGGCAAACAAGCACTGGAAACTGTCCAACGTCTGTTGCCGGTGCTGTGCCAAGACCACGGCCTTACACCGGATCAGGTCGTGGCCATTGCGTCACACGATGGCGGTAAGCAGGCCCTGGAGACAGTGCAGCGCCTGCTGCCGGTCCTGTGTCAGGACCACGGGCTGACGCCGGATCAAGTAGTCGCAATCGCCTCAAACATTGGGGGCAAGCAGGCTCTGGAAACGGTGCAGCGTTTATTACCAGTGCTGTGTCAAGATCATGGCCTGACCCCTGACCAGGTTGTGGCTATCGCCAGCAACGGTGGCGGCAAACAAGCGCTGGAAACGGTTCAACGCTTACTGCCGGTTTTATGCCAGGATCATGGCCTGACACCGGACCAAGTGGTTGCAATCGCAAGCCACGATGGCGGTAAACAAGCACTCGAAACCGTGCAACGCCTGCTGCCGGTCCTGTGCCAGGATCACGGTTTAACCCCGGATCAAGTGGTAGCGATTGCTAGTAACATTGGTGGCAAACAGGCGCTCGAAACTGTCCAGCGCCTGCTGCCGGTTCTGTGTCAGGATCATGGCTTAACCCCGGACCAGGTTGTGGCGATTGCAAGCAACAATGGCGGCAAACAGGCGTTAGAGACAGTGCAACGCCTGCTTCCGGTTCTCTGTCAGGATCATGGCTTAACACCGGATCAAGTAGTGGCGATTGCGAGCAACAATGGTGGCAAACAGGCGTTAGAAACCGTTCAACGCCTGTTACCAGTTTTATGTCAAGATCATGGCCTGACCCCGGATCAGGTTGTTGCCATTGCATCGAACATTGGTGGTAAACAGGCTCTGGAAACCGTTCAGCGTTTACTGCCGGTGCTGTGCCAGGACCACGGGTTAACGCCAGACCAGGTGGTGGCGATTGCGTCTAACATTGGTGGTAAACAAGCCCTGGAAACTGTACAGCGCCTGTTACCTGTCTTATGCCAGGATCATGGTCTGACCCCAGATCAGGTTGTTGCGATCGCCAGCCACGATGGCGGGAAACAGGCATTAGAAACCGTCCAGCGTCTGTTGCCGGTGTTATGTCAAGACCACGGTCTGACCCCTGACCAGGTGGTGGCGATTGCGAGCAACATTGGCGGTAAGCAAGCCCTGGAGACAGTGCAGCGCTTATTACCAGTTCTGTGTCAAGATCATGGTCTGACCCCAGATCAGGTGGTTGCCATCGCGTCGAACGGTGGCGGGAAACAGGCGCTGGAAACGGTGCAGCGTTTACTGCCGGTGCTGTGTCAGGATCATGGTTTAACTCCAGACCAGGTTGTCGCTATTGCATCTAACAATGGTGGCAAACAGGCATTAGAAACGGTTCAGCGTCTGCTCCCTGTATTATGCCAGGATCATGGC'
p7
aS'CTGACGCCGGATCAAGTGGTAGCAATCGCTAGTCACGATGGTGGTAAACAGGCGCTGGAAACCGTACAGCGTCTGCTGCCGGTATTATGCCAGGACCACGGGCTCACACCGGATCAGGTAGTGGCAATCGCGTCACACGATGGCGGCAAACAGGCCTTAGAGACAGTTCAGCGTCTTCTGCCGGTGCTGTGCCAGGACCACGGTTTAACTCCTGACCAGGTCGTAGCTATCGCTTCGAACGGTGGTGGCAAACAAGCACTGGAAACTGTCCAACGTCTGTTGCCGGTGCTGTGCCAAGACCACGGCCTTACACCGGATCAGGTCGTGGCCATTGCGTCACACGATGGCGGTAAGCAGGCCCTGGAGACAGTGCAGCGCCTGCTGCCGGTCCTGTGTCAGGACCACGGGCTGACGCCGGATCAAGTAGTCGCAATCGCCTCAAACATTGGGGGCAAGCAGGCTCTGGAAACGGTGCAGCGTTTATTACCAGTGCTGTGTCAGGATCATGGCCTGACCCCAGACCAGGTTGTGGCTATCGCGAGCAACGGTGGCGGTAAACAAGCGCTGGAAACGGTTCAACGCTTACTGCCGGTTTTATGCCAGGATCATGGCCTGACCCCGGACCAAGTGGTTGCAATCGCAAGCCACGATGGGGGTAAACAAGCACTCGAAACCGTGCAACGCCTGCTTCCGGTCCTGTGCCAGGATCACGGTTTAACCCCGGATCAGGTGGTAGCCATTGCTAGTAACATTGGTGGCAAACAGGCGCTCGAAACTGTCCAGCGCCTGCTGCCGGTTCTGTGCCAGGATCATGGCCTTACCCCGGATCAGGTTGTCGCGATTGCCAGCAACAATGGCGGCAAGCAGGCTTTAGAGACAGTCCAACGCCTGCTTCCGGTTCTCTGTCAGGATCATGGCTTAACACCGGATCAAGTAGTGGCGATTGCGAGCAACAATGGTGGCAAACAGGCGTTAGAAACCGTTCAGCGCCTGTTACCAGTTTTATGTCAAGATCATGGCCTGACCCCGGATCAGGTTGTTGCCATTGCATCGAACATTGGTGGTAAACAGGCTCTGGAAACCGTTCAGCGTTTACTGCCGGTGCTGTGCCAGGACCACGGTTTAACGCCAGACCAGGTGGTGGCGATTGCGTCTAACATTGGTGGTAAACAAGCCCTGGAAACTGTACAGCGCCTGTTACCTGTCTTATGCCAGGATCATGGTCTGACTCCAGACCAGGTCGTTGCGATCGCCAGCCACGATGGCGGGAAACAGGCATTAGAAACCGTCCAGCGTCTGTTGCCGGTGTTATGCCAAGACCACGGTCTGACCCCTGACCAGGTGGTTGCGATTGCGAGCAACATTGGCGGTAAACAAGCGCTGGAGACAGTGCAGCGCTTATTACCAGTTCTGTGTCAAGATCATGGTCTGACCCCGGATCAGGTGGTTGCTATCGCGTCGAACGGTGGCGGGAAGCAGGCGCTGGAAACGGTGCAACGTTTACTGCCGGTGCTGTGTCAGGATCATGGGTTAACTCCAGATCAGGTTGTCGCTATTGCATCTAACAATGGTGGCAAACAGGCATTAGAAACGGTTCAGCGTCTGCTCCCTGTATTATGCCAGGATCATGGC'
p8
aS'CTGACGCCGGATCAAGTGGTAGCAATCGCTAGTCACGATGGTGGTAAACAGGCACTGGAAACCGTACAGCGTCTGCTGCCGGTACTTTGCCAGGACCACGGGCTCACACCGGATCAGGTAGTGGCTATCGCTTCACACGATGGCGGTAAACAGGCCTTAGAGACAGTTCAGCGTCTTCTGCCGGTACTGTGCCAGGACCACGGTTTAACTCCTGACCAGGTCGTAGCTATCGCTTCGAACGGTGGTGGCAAGCAAGCACTGGAAACCGTCCAACGTCTGTTGCCGGTGCTGTGCCAAGACCACGGCCTTACACCGGATCAGGTCGTGGCCATTGCATCACACGATGGCGGTAAGCAGGCCCTGGAGACAGTGCAGCGCCTGCTGCCGGTACTGTGTCAAGACCACGGGCTGACGCCGGATCAAGTAGTCGCAATCGCCTCAAACATTGGGGGCAAACAGGCTCTGGAAACGGTGCAGCGTTTATTACCAGTGCTGTGTCAGGATCATGGCCTGACCCCTGACCAGGTTGTGGCTATCGCCAGCAACGGTGGCGGTAAACAAGCGCTGGAAACGGTTCAACGCTTACTGCCGGTTTTATGCCAGGATCATGGCCTGACCCCGGACCAAGTGGTTGCAATCGCAAGCCACGATGGGGGTAAACAGGCACTCGAAACCGTGCAACGCCTGCTGCCGGTCCTGTGCCAAGATCACGGTTTAACCCCGGATCAGGTGGTAGCGATTGCTAGTAACATTGGTGGCAAACAGGCGCTCGAAACTGTCCAGCGCCTGCTGCCGGTTCTGTGCCAGGATCACGGCTTAACCCCGGATCAGGTTGTCGCGATTGCCAGCAACAATGGCGGCAAACAGGCTTTAGAGACAGTGCAACGCCTGCTTCCGGTTCTCTGTCAGGATCATGGCTTAACACCGGATCAGGTAGTGGCGATTGCGAGCAACAATGGTGGCAAACAGGCGTTAGAAACCGTTCAGCGCCTGTTACCAGTTTTATGTCAAGATCATGGCCTGACCCCGGATCAGGTTGTTGCCATTGCATCGAACATTGGTGGTAAACAGGCTCTGGAAACCGTTCAGCGTTTACTGCCGGTGCTGTGCCAGGACCACGGTTTAACGCCAGACCAGGTGGTGGCGATTGCGTCTAACATTGGTGGTAAACAAGCCCTGGAAACTGTACAGCGCCTGTTACCTGTCTTATGCCAGGATCATGGTCTGACACCAGATCAGGTAGTTGCGATCGCCAGCCACGATGGCGGGAAACAGGCATTAGAAACCGTCCAGCGTCTGTTGCCGGTGTTATGCCAAGACCACGGTCTGACCCCTGACCAGGTGGTTGCGATTGCGAGCAACATTGGCGGTAAGCAAGCGCTGGAGACAGTGCAGCGCTTATTACCAGTTCTGTGTCAGGATCATGGTCTGACCCCGGATCAGGTGGTTGCCATCGCGTCGAACGGTGGCGGGAAACAGGCGCTGGAAACGGTGCAGCGTTTACTGCCGGTGCTGTGTCAGGATCATGGTCTGACTCCAGATCAGGTCGTCGCTATTGCATCTAACAATGGTGGCAAACAGGCATTAGAAACGGTGCAGCGTCTGCTCCCTGTATTATGCCAGGATCATGGC'
p9
aS'CTGACGCCGGATCAAGTAGTAGCAATCGCTAGTCACGATGGTGGTAAACAGGCGCTGGAAACCGTACAGCGTCTGCTGCCGGTATTATGCCAGGACCACGGGCTCACACCGGATCAGGTAGTGGCAATCGCGTCACACGATGGCGGCAAACAGGCCTTAGAGACAGTTCAGCGTCTTCTGCCGGTGCTGTGCCAGGACCACGGTTTAACTCCTGACCAGGTCGTAGCTATCGCTTCGAACGGTGGTGGCAAACAAGCACTGGAAACCGTCCAACGTCTGTTGCCGGTGCTGTGCCAAGACCACGGCCTTACACCGGATCAGGTCGTGGCCATTGCATCACACGATGGCGGTAAACAGGCCCTGGAGACAGTGCAGCGCCTGCTGCCGGTCCTGTGTCAAGACCACGGGCTCACGCCGGACCAAGTAGTCGCAATCGCCTCAAACATTGGGGGCAAACAGGCTCTGGAAACGGTGCAGCGTTTATTACCAGTGCTGTGCCAGGATCATGGCCTGACCCCTGACCAGGTTGTGGCTATCGCCAGCAACGGTGGCGGTAAACAAGCGCTGGAAACGGTTCAACGCTTACTGCCGGTTTTATGCCAGGATCATGGCCTGACACCGGACCAAGTGGTTGCAATCGCAAGCCACGATGGGGGTAAACAAGCACTCGAAACCGTGCAACGCCTGCTGCCGGTCCTGTGCCAGGATCACGGTTTAACCCCGGATCAGGTGGTAGCGATTGCTAGTAACATTGGTGGCAAACAGGCGCTCGAAACTGTCCAGCGCCTGCTGCCGGTTCTGTGCCAGGATCATGGCTTAACCCCGGACCAGGTTGTCGCCATTGCCAGCAACAATGGCGGCAAACAGGCTTTAGAGACAGTACAACGCCTGCTTCCGGTTCTCTGTCAGGATCATGGCTTAACACCGGATCAAGTAGTGGCGATTGCGAGCAACAATGGTGGCAAACAGGCGTTAGAAACCGTTCAGCGCCTGTTACCAGTTTTATGCCAAGATCATGGCCTGACCCCGGATCAGGTTGTTGCGATTGCATCGAACATTGGTGGTAAACAGGCTCTGGAAACCGTCCAGCGTTTACTGCCGGTGCTGTGCCAGGACCACGGGTTAACGCCAGACCAGGTGGTGGCGATTGCGTCTAACATTGGTGGTAAACAAGCCCTGGAAACTGTACAGCGCCTGTTACCTGTCTTATGCCAGGATCATGGTCTGACCCCAGATCAGGTTGTTGCGATCGCCAGCCACGATGGCGGGAAACAGGCATTAGAAACCGTCCAGCGTCTGTTGCCGGTGTTATGTCAAGACCACGGTCTGACCCCTGACCAGGTGGTGGCGATTGCGAGCAACATTGGCGGTAAGCAAGCCCTGGAGACAGTGCAGCGCTTATTACCAGTTCTGTGTCAAGATCATGGTCTGACCCCAGATCAGGTGGTTGCCATCGCGTCGAACGGTGGCGGGAAACAGGCGCTGGAAACGGTGCAGCGTTTACTGCCGGTGCTGTGTCAGGATCATGGTTTAACTCCAGATCAGGTTGTCGCTATTGCATCTAACAATGGTGGCAAACAGGCATTAGAAACGGTTCAGCGTCTGCTCCCTGTATTATGCCAGGATCATGGC'
p10
aS'CTGACGCCGGATCAAGTGGTAGCAATCGCTAGTCACGATGGTGGTAAACAGGCGCTTGAAACCGTACAGCGTCTGCTGCCGGTATTATGCCAGGACCACGGGCTCACACCGGATCAGGTAGTGGCAATCGCGTCACACGATGGCGGCAAGCAGGCCTTAGAGACAGTTCAGCGTCTTCTGCCGGTGCTGTGCCAGGACCACGGTTTAACTCCTGACCAGGTCGTAGCTATCGCTTCGAACGGTGGTGGCAAGCAAGCACTGGAAACCGTCCAACGTCTGTTGCCGGTGCTGTGCCAAGACCACGGCCTTACACCGGATCAGGTCGTGGCCATTGCTTCACACGATGGCGGGAAGCAGGCCCTGGAGACAGTGCAGCGCCTGCTGCCGGTCCTGTGTCAAGACCACGGGCTGACGCCGGATCAAGTAGTCGCAATCGCCTCAAACATTGGGGGCAAACAGGCTCTGGAAACGGTGCAGCGTTTATTACCAGTGCTGTGTCAGGATCATGGCCTGACCCCTGACCAGGTTGTGGCTATCGCCAGCAACGGTGGCGGTAAACAAGCGCTGGAAACGGTTCAACGCTTACTGCCGGTTTTATGCCAGGATCATGGCCTGACCCCGGACCAAGTGGTTGCAATCGCAAGCCACGATGGGGGTAAACAGGCACTCGAAACCGTGCAACGCCTGCTGCCGGTCCTGTGCCAGGATCACGGTTTAACCCCAGATCAGGTGGTAGCGATTGCTAGTAACATTGGTGGCAAACAGGCGCTCGAAACTGTCCAGCGCCTGCTGCCGGTTCTGTGCCAGGATCACGGCTTAACCCCGGACCAGGTTGTCGCGATTGCCAGCAACAATGGCGGCAAACAGGCTTTAGAGACAGTGCAACGCCTGCTTCCGGTTCTCTGTCAGGATCATGGCTTAACACCGGATCAGGTAGTGGCGATTGCGAGCAACAATGGTGGCAAACAGGCGTTAGAAACCGTTCAACGCCTGTTACCAGTTTTATGTCAAGATCATGGCCTGACCCCGGATCAGGTTGTTGCCATTGCATCGAACATTGGTGGTAAACAGGCTCTGGAAACCGTTCAGCGTTTACTGCCGGTGCTGTGCCAGGACCACGGGTTAACGCCAGACCAGGTGGTGGCGATTGCGTCTAACATTGGTGGTAAACAAGCCCTGGAAACTGTACAGCGCCTGTTACCTGTCTTATGCCAGGATCATGGTCTGACCCCAGATCAGGTTGTTGCGATCGCCAGCCACGATGGTGGGAAACAGGCGTTAGAAACCGTCCAGCGTCTGTTGCCGGTGTTATGCCAAGACCACGGTCTGACCCCTGACCAGGTGGTTGCGATTGCGAGCAACATTGGCGGTAAGCAAGCGCTGGAGACAGTGCAGCGCTTATTACCAGTTCTGTGTCAAGATCATGGTCTGACCCCGGATCAAGTGGTTGCCATCGCGTCGAACGGTGGCGGGAAACAGGCGCTGGAAACGGTGCAACGTTTACTGCCGGTGCTGTGTCAGGATCATGGTTTAACTCCAGATCAGGTCGTCGCTATTGCATCTAACAATGGTGGCAAACAGGCATTAGAAACGGTTCAGCGTCTGCTCCCTGTATTATGCCAGGATCATGGC'
p11
aS'CTGACGCCGGATCAAGTGGTAGCAATCGCTAGTCACGATGGTGGTAAACAAGCGCTGGAAACCGTACAGCGTCTGCTGCCGGTATTATGCCAGGACCACGGGCTCACACCGGATCAGGTAGTGGCAATCGCGTCACACGATGGCGGCAAACAGGCCTTAGAGACAGTTCAGCGTCTTCTGCCGGTACTGTGCCAGGACCACGGTTTAACTCCTGACCAGGTCGTAGCTATCGCTTCGAACGGTGGTGGCAAACAAGCACTGGAAACCGTCCAACGTCTGTTGCCGGTGCTGTGCCAAGACCACGGCCTTACACCGGATCAGGTCGTGGCCATTGCATCACACGATGGCGGTAAGCAGGCCCTGGAGACAGTGCAGCGCCTGCTGCCGGTCCTGTGTCAAGACCACGGGCTGACGCCGGATCAAGTAGTCGCAATCGCCTCAAACATTGGGGGCAAGCAGGCTCTGGAAACGGTGCAGCGTTTATTACCAGTGCTGTGTCAGGATCATGGCCTGACCCCTGACCAGGTTGTGGCTATTGCGAGCAACGGTGGCGGTAAACAAGCGCTGGAAACGGTTCAACGCTTACTGCCGGTTTTATGCCAGGATCATGGCCTGACCCCGGACCAAGTGGTTGCAATCGCAAGCCACGATGGGGGTAAACAAGCACTCGAAACCGTGCAACGCCTGCTGCCGGTCCTGTGCCAGGATCACGGTTTAACCCCGGATCAGGTGGTAGCGATTGCTAGTAACATTGGTGGCAAACAGGCGCTCGAAACTGTCCAGCGCCTGCTGCCGGTTCTGTGCCAGGATCACGGCTTAACCCCGGACCAGGTTGTCGCGATTGCCAGCAACAATGGCGGCAAACAGGCTTTAGAGACAGTGCAACGCCTGCTTCCGGTTCTCTGTCAGGATCATGGCTTAACACCGGATCAGGTAGTGGCGATTGCGAGCAACAATGGTGGCAAACAGGCGTTAGAAACCGTTCAGCGCCTGTTACCAGTTTTATGTCAAGATCATGGCCTGACCCCGGATCAGGTTGTTGCCATTGCATCGAACATTGGTGGTAAACAGGCTCTGGAAACCGTTCAGCGTTTACTGCCGGTGCTGTGCCAGGACCACGGTTTAACGCCAGACCAGGTGGTGGCGATTGCGTCTAACATTGGTGGTAAACAAGCCCTGGAAACTGTACAGCGCCTGTTACCTGTCTTATGCCAGGATCATGGTCTGACTCCAGATCAGGTTGTTGCGATCGCCAGCCACGATGGCGGGAAACAGGCATTAGAAACCGTCCAGCGTCTGTTGCCGGTGTTATGCCAAGACCACGGTCTGACCCCTGACCAGGTGGTTGCGATTGCGAGCAACATTGGCGGTAAGCAAGCGCTGGAGACAGTGCAGCGCTTATTACCAGTTCTGTGTCAAGATCATGGTCTGACCCCGGATCAGGTGGTTGCCATCGCGTCGAACGGTGGCGGGAAACAGGCGCTGGAAACGGTGCAGCGTTTACTGCCGGTGCTGTGTCAGGATCATGGTTTAACTCCAGATCAGGTTGTGGCGATTGCATCTAACAATGGTGGCAAACAGGCATTAGAAACGGTTCAGCGTCTGCTCCCTGTATTATGCCAGGATCATGGC'
p12
aS'CTGACGCCGGATCAAGTGGTAGCAATCGCTAGTCACGATGGTGGTAAACAGGCACTGGAAACCGTACAGCGTCTGCTGCCGGTACTTTGCCAGGACCACGGGCTCACACCGGATCAGGTAGTGGCTATTGCGTCACACGATGGCGGCAAACAGGCCTTAGAGACTGTTCAGCGTCTTCTGCCGGTACTGTGCCAGGACCACGGTTTAACTCCTGACCAGGTCGTAGCTATCGCTTCGAACGGTGGTGGCAAGCAAGCACTGGAAACCGTCCAACGTCTGTTGCCGGTGCTGTGCCAAGACCACGGCCTTACACCGGATCAGGTCGTGGCCATTGCATCACACGATGGCGGTAAACAGGCCCTTGAGACAGTGCAGCGCCTGCTGCCGGTCCTGTGTCAAGACCACGGGCTGACGCCGGACCAAGTAGTCGCAATCGCCTCAAACATTGGGGGTAAACAGGCTCTGGAAACGGTGCAGCGTTTATTACCAGTGCTGTGTCAGGATCATGGCCTGACCCCTGACCAGGTTGTGGCTATCGCCAGCAACGGTGGCGGTAAACAAGCGCTGGAAACGGTTCAACGCTTACTGCCGGTTTTATGCCAGGATCATGGCCTGACACCGGACCAAGTGGTGGCAATCGCAAGCCACGATGGGGGCAAACAGGCTCTCGAAACCGTGCAACGCCTGCTGCCGGTCCTGTGCCAAGATCACGGTTTAACCCCGGATCAGGTGGTAGCGATTGCTTCTAACATTGGTGGCAAACAGGCGCTCGAAACTGTCCAGCGTCTGCTGCCGGTTCTGTGTCAGGATCACGGCTTAACCCCGGACCAGGTTGTCGCGATTGCCAGCAACAATGGCGGCAAACAGGCTTTAGAGACAGTGCAACGCCTGCTTCCGGTTCTCTGTCAGGATCATGGCTTAACACCGGATCAAGTAGTTGCGATTGCGAGCAACAATGGTGGCAAACAGGCGTTAGAAACCGTTCAGCGCCTGTTACCAGTTTTATGTCAAGATCATGGCCTGACCCCGGATCAGGTTGTTGCGATTGCATCGAACATTGGTGGTAAACAGGCTCTGGAAACCGTTCAGCGTTTACTGCCGGTGCTGTGCCAGGACCACGGTTTAACGCCAGACCAGGTGGTGGCGATTGCGTCTAACATTGGTGGTAAACAAGCCCTGGAAACTGTACAGCGCCTGTTACCTGTCTTATGCCAGGATCATGGTCTGACTCCAGATCAGGTAGTTGCGATCGCCAGCCACGATGGCGGGAAACAGGCATTAGAAACCGTCCAGCGTCTGTTGCCGGTGTTATGCCAGGACCACGGTCTGACCCCTGACCAAGTGGTTGCGATTGCGAGCAACATTGGCGGTAAGCAAGCGCTGGAGACAGTGCAGCGCTTATTACCAGTTCTGTGTCAAGATCATGGTCTGACCCCGGATCAGGTGGTTGCCATCGCGTCGAACGGTGGCGGGAAACAGGCGCTGGAAACGGTGCAGCGTTTACTGCCGGTGCTGTGTCAGGATCATGGTTTAACTCCAGATCAGGTTGTCGCTATTGCATCTAACAATGGTGGCAAACAGGCATTAGAAACGGTTCAGCGTCTGCTCCCTGTATTATGCCAGGATCATGGC'
p13
aS'CTGACGCCGGATCAAGTGGTAGCAATCGCTAGTCACGATGGTGGTAAACAGGCACTGGAAACCGTACAGCGTCTGCTGCCGGTACTTTGCCAGGACCACGGGCTCACACCGGATCAGGTAGTGGCTATCGCGTCACACGATGGCGGTAAACAGGCCTTAGAGACAGTTCAGCGTCTTCTGCCGGTACTGTGCCAGGACCACGGTTTAACTCCTGACCAGGTCGTAGCTATCGCTTCGAACGGTGGTGGCAAGCAAGCACTGGAAACCGTCCAACGTCTGTTGCCGGTGCTGTGCCAAGACCACGGCCTTACACCGGATCAGGTCGTGGCCATTGCATCACACGATGGCGGTAAGCAGGCCCTGGAGACAGTGCAGCGCCTGCTGCCGGTCCTGTGTCAAGACCACGGGCTGACGCCGGATCAAGTAGTCGCAATCGCCTCAAACATTGGGGGGAAACAGGCTCTGGAAACGGTGCAGCGTTTATTACCAGTGCTGTGTCAGGATCATGGCCTGACCCCTGACCAGGTTGTGGCTATCGCCAGCAACGGTGGCGGTAAACAAGCGCTGGAAACGGTTCAACGCTTACTGCCGGTTTTATGCCAGGATCATGGCCTGACCCCGGACCAAGTGGTTGCAATCGCAAGCCACGATGGGGGTAAACAGGCACTCGAAACCGTGCAACGCCTGCTGCCAGTCCTGTGCCAGGATCACGGTTTAACCCCGGATCAGGTGGTAGCGATTGCTAGTAACATTGGTGGCAAACAGGCGCTCGAAACTGTCCAGCGCCTGCTGCCGGTTCTGTGCCAGGATCACGGCTTAACCCCGGATCAGGTTGTCGCGATTGCCAGCAACAATGGCGGCAAACAGGCTTTAGAGACAGTGCAACGCCTGCTTCCGGTTCTCTGTCAGGATCATGGCTTAACACCGGATCAGGTAGTGGCGATTGCGAGCAACAATGGTGGCAAACAGGCGTTAGAAACCGTTCAGCGCCTGTTACCAGTTTTATGTCAAGATCATGGCCTGACCCCGGATCAAGTTGTGGCCATTGCATCGAACATTGGTGGTAAACAGGCTCTGGAAACCGTTCAGCGTTTACTGCCGGTGCTGTGCCAGGACCACGGGTTAACGCCAGACCAGGTGGTGGCGATTGCGTCTAACATTGGTGGTAAACAAGCCCTGGAAACTGTACAGCGCCTGTTACCTGTCTTATGCCAGGATCATGGTCTGACCCCAGATCAGGTTGTTGCGATCGCCAGCCACGATGGTGGGAAACAGGCGTTAGAAACCGTCCAGCGTCTGTTGCCGGTGTTATGCCAAGACCACGGTCTGACCCCTGACCAGGTGGTTGCGATTGCGAGCAACATTGGCGGTAAGCAAGCGCTGGAGACAGTGCAGCGCTTATTACCAGTTCTGTGTCAGGATCATGGTCTGACCCCGGATCAAGTGGTTGCCATCGCGTCGAACGGTGGCGGGAAACAGGCGCTGGAAACGGTGCAACGTTTACTGCCGGTGCTGTGTCAGGATCATGGTTTAACTCCAGATCAGGTCGTCGCTATTGCATCTAACAATGGTGGCAAACAGGCATTAGAAACGGTTCAGCGTCTGCTCCCTGTATTATGCCAGGATCATGGC'
p14
aS'CTGACGCCGGATCAAGTAGTAGCAATCGCTAGTCACGATGGTGGTAAACAGGCGCTGGAAACCGTACAGCGTCTGCTGCCGGTATTATGCCAGGACCACGGGCTCACACCGGATCAGGTAGTGGCAATCGCGTCACACGATGGCGGCAAACAGGCCTTAGAGACAGTTCAGCGTCTTCTGCCAGTACTGTGCCAGGACCACGGTTTAACTCCTGACCAGGTCGTAGCTATCGCTTCGAACGGTGGTGGCAAACAAGCACTGGAAACCGTCCAACGTCTGTTGCCGGTGCTGTGCCAAGACCACGGCCTTACACCGGATCAGGTCGTGGCCATTGCATCACACGATGGCGGTAAGCAGGCCCTGGAGACAGTGCAGCGCCTGCTGCCGGTCCTGTGTCAAGACCACGGGCTGACGCCGGACCAAGTAGTCGCAATCGCCTCAAACATTGGGGGCAAACAGGCTCTGGAAACGGTGCAGCGTTTATTACCAGTGCTGTGTCAGGATCATGGCCTGACCCCTGACCAGGTTGTGGCTATCGCCAGCAACGGTGGCGGTAAACAAGCGCTGGAAACGGTACAACGCTTACTGCCGGTTTTATGCCAGGATCATGGCCTGACACCGGACCAAGTAGTTGCAATCGCAAGCCACGATGGGGGTAAACAAGCACTCGAAACAGTGCAACGCCTGCTGCCGGTCCTGTGCCAGGATCACGGTTTAACCCCGGATCAGGTGGTAGCGATTGCTAGTAACATTGGTGGCAAACAGGCGCTCGAAACTGTCCAGCGCCTGCTGCCGGTTCTGTGCCAGGATCACGGCTTAACCCCGGACCAGGTTGTCGCGATTGCCAGCAACAATGGCGGCAAACAGGCTTTAGAGACAGTGCAACGCCTGCTTCCGGTTCTCTGTCAGGATCATGGCTTAACACCGGATCAGGTAGTGGCGATTGCGAGCAACAATGGTGGCAAACAAGCGTTAGAAACCGTTCAGCGCCTGTTACCAGTTTTATGTCAAGATCATGGCCTGACCCCGGATCAAGTTGTTGCCATTGCATCGAACATTGGTGGTAAACAGGCTCTGGAAACCGTTCAACGTTTACTGCCTGTGCTGTGCCAGGACCACGGTTTAACGCCAGACCAGGTGGTGGCGATTGCGTCTAACATTGGTGGTAAACAAGCCCTGGAAACTGTACAGCGCCTGTTACCTGTCTTATGCCAGGATCATGGTCTGACCCCAGATCAGGTTGTTGCGATCGCCAGCCACGATGGCGGGAAACAGGCATTAGAAACCGTCCAGCGTCTGTTGCCGGTGTTATGCCAAGACCACGGTCTGACCCCTGACCAGGTGGTTGCGATTGCGAGCAACATTGGCGGTAAGCAAGCGCTGGAGACAGTGCAGCGCTTATTACCAGTTCTGTGTCAGGATCATGGTCTGACCCCGGATCAGGTCGTTGCCATCGCGTCGAACGGTGGCGGGAAACAGGCGCTGGAAACGGTGCAGCGTTTACTGCCGGTGCTGTGTCAGGATCATGGTTTAACTCCAGATCAGGTCGTCGCTATTGCATCTAACAATGGTGGCAAACAGGCATTAGAAACGGTTCAGCGTCTGCTCCCGGTCTTATGCCAGGATCATGGC'
p15
aS'CTGACGCCGGATCAAGTGGTAGCAATCGCTAGTCACGATGGTGGTAAACAAGCGCTGGAAACCGTACAGCGTCTGCTGCCGGTATTATGCCAGGACCACGGGCTCACACCGGATCAGGTCGTGGCAATCGCGTCACACGATGGCGGCAAGCAGGCCTTAGAAACAGTTCAGCGTCTTCTGCCTGTGCTGTGCCAGGACCACGGTTTAACTCCTGACCAGGTCGTAGCTATCGCTTCGAACGGTGGTGGCAAACAAGCACTGGAAACTGTCCAACGTCTGTTGCCGGTGCTGTGCCAAGACCACGGCCTTACACCGGATCAGGTTGTGGCCATTGCATCACACGATGGCGGTAAGCAGGCCCTGGAGACAGTGCAGCGCCTGCTGCCGGTCCTGTGTCAAGACCACGGGCTTACCCCGGATCAAGTAGTCGCAATCGCCTCAAACATTGGGGGCAAACAGGCTTTAGAAACGGTGCAGCGTTTATTACCAGTGCTGTGTCAGGATCATGGCCTGACCCCTGACCAGGTTGTGGCTATCGCCAGCAACGGTGGCGGTAAGCAAGCGCTGGAAACGGTTCAACGCTTACTGCCGGTTTTATGCCAGGATCATGGCCTGACACCGGACCAAGTGGTTGCAATCGCAAGCCACGATGGGGGTAAACAAGCTCTCGAAACCGTGCAACGCCTGCTGCCGGTCCTGTGCCAGGATCACGGTTTAACCCCGGATCAGGTGGTAGCGATTGCTAGTAACATTGGTGGCAAACAGGCGCTCGAAACTGTCCAGCGCCTGCTGCCGGTTCTGTGCCAGGATCATGGCTTAACCCCGGACCAGGTTGTCGCGATTGCCAGCAACAATGGCGGCAAACAGGCTTTAGAGACAGTCCAACGCCTGCTTCCGGTTCTCTGTCAGGATCATGGCTTAACACCGGATCAAGTAGTGGCGATTGCGAGCAACAATGGTGGCAAACAGGCGTTAGAAACCGTTCAGCGCCTGTTACCAGTTTTATGTCAAGATCATGGCCTGACCCCGGATCAGGTTGTTGCCATTGCATCGAACATTGGTGGTAAACAGGCTCTGGAAACCGTTCAGCGTTTACTGCCGGTGCTGTGCCAGGACCACGGTTTAACGCCAGACCAGGTGGTGGCGATTGCGTCTAACATTGGTGGTAAACAAGCCCTGGAAACTGTACAGCGCCTGTTACCTGTCTTATGCCAGGATCATGGTCTGACACCAGATCAGGTTGTTGCGATCGCCAGCCACGATGGCGGTAAACAGGCGTTAGAAACCGTCCAGCGTCTGTTGCCGGTGTTATGCCAAGACCACGGTCTGACCCCTGACCAAGTGGTTGCGATTGCGAGCAACATTGGCGGTAAGCAAGCGCTGGAGACAGTGCAGCGCTTATTACCAGTTCTGTGTCAAGATCATGGTCTGACGCCGGATCAGGTGGTTGCCATCGCGTCGAACGGTGGCGGGAAACAGGCACTGGAAACGGTGCAGCGTTTACTGCCGGTGCTGTGTCAGGATCATGGGTTAACTCCAGATCAGGTTGTCGCTATTGCATCTAACAATGGTGGCAAACAGGCATTAGAAACGGTTCAGCGTCTGCTCCCTGTATTATGCCAGGATCATGGC'
p16
aS'CTGACGCCGGATCAAGTGGTAGCAATCGCTAGTCACGATGGTGGTAAACAAGCGCTGGAAACCGTACAGCGTCTGCTGCCGGTATTATGCCAGGACCACGGGCTCACACCGGATCAGGTAGTGGCAATCGCGTCACACGATGGCGGCAAACAGGCCTTAGAGACAGTTCAGCGTCTTCTGCCGGTGCTGTGCCAGGACCACGGTTTAACTCCTGACCAGGTCGTAGCTATCGCTTCGAACGGTGGTGGCAAACAAGCACTGGAAACTGTCCAACGTCTGTTGCCGGTGCTGTGCCAAGACCACGGCCTTACACCGGATCAGGTCGTGGCCATTGCGTCACACGATGGCGGTAAGCAGGCCCTGGAGACAGTGCAGCGCCTGCTCCCTGTCCTGTGTCAGGACCACGGGCTGACGCCGGATCAAGTAGTCGCAATCGCCTCAAACATTGGGGGCAAGCAGGCTCTGGAAACGGTGCAGCGTTTATTACCAGTGCTGTGTCAGGATCATGGCCTGACCCCTGACCAGGTTGTGGCTATCGCCAGCAACGGTGGCGGTAAACAAGCGCTGGAAACGGTTCAACGCTTACTGCCGGTTTTATGCCAGGATCATGGCCTGACACCGGACCAAGTGGTTGCAATCGCAAGCCACGATGGCGGTAAACAAGCACTCGAAACCGTGCAACGCCTGCTGCCGGTCCTGTGCCAGGATCACGGCTTAACCCCGGATCAAGTGGTAGCGATTGCTAGTAACATTGGTGGCAAACAGGCGCTCGAAACTGTCCAGCGCCTGCTGCCGGTTCTGTGCCAGGATCATGGCTTAACCCCGGACCAGGTTGTCGCCATTGCCAGCAACAATGGCGGCAAACAGGCTTTAGAGACAGTACAACGCCTGCTTCCGGTTCTCTGTCAGGATCATGGCTTAACACCGGATCAAGTAGTGGCGATTGCGAGCAACAATGGTGGCAAACAGGCGTTAGAAACCGTTCAGCGCCTGTTACCAGTTTTATGCCAAGATCATGGCCTGACCCCGGATCAGGTTGTTGCGATTGCATCGAACATTGGTGGTAAACAGGCTCTGGAAACCGTTCAGCGTTTACTGCCGGTGCTGTGCCAGGACCACGGTTTAACACCAGACCAGGTGGTGGCGATTGCGTCTAACATTGGTGGTAAACAAGCCCTGGAAACTGTACAGCGCCTGTTACCTGTCTTATGCCAGGATCATGGTCTGACCCCAGATCAGGTTGTTGCGATCGCCAGCCACGATGGCGGGAAACAGGCTTTAGAAACCGTCCAGCGTCTGTTGCCGGTGTTATGCCAAGACCACGGTCTGACCCCTGACCAGGTGGTTGCGATTGCGAGCAACATTGGCGGTAAGCAAGCGCTGGAGACAGTGCAGCGCTTATTACCAGTTCTGTGCCAGGATCATGGTCTGACCCCGGATCAGGTGGTTGCCATCGCGTCGAACGGTGGCGGGAAACAGGCGCTGGAAACGGTGCAGCGTTTACTGCCGGTGCTGTGTCAAGATCATGGTTTAACTCCAGATCAGGTTGTGGCCATTGCATCTAACAATGGTGGCAAACAGGCCTTAGAAACGGTTCAGCGTCTGCTCCCTGTATTATGCCAGGATCATGGC'
p17
aS'CTGACGCCGGATCAAGTGGTAGCAATCGCTAGTCACGATGGTGGTAAACAGGCACTGGAAACCGTACAGCGTCTGCTGCCGGTACTTTGCCAGGACCACGGGCTCACACCGGATCAGGTAGTGGCTATCGCGTCACACGATGGCGGTAAACAGGCCTTAGAGACAGTTCAGCGTCTTCTGCCGGTACTGTGCCAGGACCACGGTTTAACTCCTGACCAGGTCGTAGCTATCGCTTCGAACGGTGGTGGCAAACAAGCACTGGAAACCGTCCAACGTCTGTTGCCGGTGCTGTGCCAAGACCACGGCCTTACCCCGGATCAGGTCGTGGCCATTGCATCACACGATGGCGGTAAGCAGGCCCTGGAGACAGTGCAGCGCCTGCTGCCGGTCCTGTGTCAAGACCACGGGCTGACGCCGGATCAAGTAGTCGCAATCGCATCAAACATTGGGGGCAAACAGGCTCTGGAAACGGTGCAGCGTTTATTACCAGTGCTGTGTCAGGATCATGGCCTGACCCCTGACCAGGTTGTGGCTATCGCCAGCAACGGTGGCGGTAAACAAGCGCTGGAAACGGTTCAACGCTTACTGCCGGTTTTATGCCAGGATCATGGCCTGACACCGGACCAAGTAGTTGCAATCGCAAGCCACGATGGCGGTAAACAAGCACTCGAAACCGTGCAACGCCTGCTGCCGGTCCTGTGCCAGGATCACGGTTTAACCCCGGATCAAGTGGTAGCGATTGCTAGTAACATTGGTGGCAAACAGGCGCTCGAAACTGTCCAGCGCCTGCTGCCGGTTCTGTGCCAAGATCATGGCTTAACCCCGGACCAGGTTGTCGCCATTGCCAGCAACAATGGCGGCAAACAGGCTTTAGAGACAGTCCAACGCCTGCTTCCGGTTCTCTGTCAGGATCATGGCTTAACACCGGATCAAGTAGTGGCGATTGCGAGCAACAATGGTGGCAAGCAGGCGTTAGAAACCGTTCAGCGCCTGTTACCAGTTTTATGTCAAGATCATGGCCTGACCCCGGATCAGGTTGTTGCCATTGCATCGAACATTGGTGGTAAACAGGCTCTGGAAACCGTTCAGCGTTTACTGCCGGTGCTGTGTCAGGACCACGGTTTAACGCCAGACCAGGTGGTGGCGATTGCGTCTAACATTGGTGGTAAACAGGCCCTGGAGACTGTACAGCGCCTGTTACCTGTCTTATGCCAGGATCATGGTCTGACTCCAGATCAGGTTGTTGCGATCGCCAGCCACGATGGCGGGAAACAGGCATTAGAAACCGTCCAGCGTCTGTTGCCGGTGTTATGCCAAGACCACGGTCTGACCCCTGACCAGGTGGTTGCGATTGCGAGCAACATTGGCGGTAAGCAAGCCCTGGAGACAGTGCAGCGCTTATTACCAGTTCTGTGTCAGGATCACGGTCTGACCCCGGATCAGGTCGTTGCCATCGCGTCGAACGGTGGCGGGAAACAGGCGCTGGAAACGGTGCAGCGTTTACTGCCGGTGCTGTGTCAGGATCATGGTTTAACTCCAGATCAGGTTGTCGCTATTGCATCTAACAATGGTGGCAAACAGGCATTAGAAACGGTTCAACGTCTGCTCCCTGTATTATGCCAGGATCATGGC'
p18
aS'CTGACGCCGGATCAAGTGGTAGCAATCGCTAGTCACGATGGTGGTAAACAGGCGCTTGAAACCGTACAGCGTCTGCTGCCGGTATTATGCCAGGACCACGGGCTCACACCGGATCAGGTAGTGGCAATCGCGTCACACGATGGCGGCAAACAGGCCTTAGAGACAGTTCAGCGTCTTCTGCCGGTGCTGTGCCAGGACCACGGTTTAACTCCTGACCAGGTCGTAGCTATCGCTTCGAACGGTGGTGGCAAACAAGCACTGGAAACTGTCCAACGTCTGTTGCCGGTGCTGTGCCAAGACCACGGCCTTACCCCGGATCAGGTCGTGGCCATTGCATCACACGATGGCGGTAAGCAGGCCCTGGAGACAGTGCAGCGCCTGCTGCCGGTCCTGTGTCAAGACCACGGGCTGACGCCGGATCAAGTAGTCGCAATCGCCTCAAACATTGGGGGCAAACAGGCTCTGGAAACGGTGCAGCGTTTATTACCAGTGCTGTGTCAGGATCATGGCCTGACCCCTGACCAGGTTGTGGCTATCGCCAGCAACGGTGGCGGTAAACAAGCGCTGGAAACGGTTCAACGCTTACTGCCGGTTTTATGCCAGGATCACGGCCTGACACCGGACCAAGTAGTTGCAATCGCAAGCCACGATGGCGGTAAACAAGCACTCGAAACCGTGCAACGCCTGCTGCCGGTCCTGTGCCAGGATCACGGTTTAACCCCGGATCAAGTGGTAGCGATTGCTAGTAACATTGGTGGCAAACAGGCGCTCGAAACTGTCCAGCGCTTACTGCCGGTTCTGTGTCAGGATCATGGCTTAACCCCGGACCAGGTTGTCGCGATTGCCAGCAACAATGGCGGCAAACAGGCTTTAGAGACAGTGCAACGCCTGCTTCCGGTTCTCTGTCAGGATCATGGCTTAACACCGGATCAGGTAGTGGCGATTGCGAGCAACAATGGTGGCAAACAGGCGTTAGAAACCGTTCAGCGCCTGTTACCAGTTTTATGTCAAGATCATGGCCTGACCCCGGATCAAGTTGTTGCCATTGCATCGAACATTGGTGGTAAACAGGCTCTGGAAACCGTTCAGCGTTTACTGCCTGTGCTGTGCCAGGACCACGGTTTAACGCCAGACCAGGTGGTGGCGATTGCGTCCAACATTGGTGGTAAACAAGCCCTGGAAACTGTACAGCGCCTGTTACCTGTCTTATGCCAGGATCATGGTCTGACTCCAGATCAGGTTGTTGCGATCGCCAGCCACGATGGCGGGAAACAGGCATTAGAAACCGTCCAGCGTCTGTTGCCGGTGTTATGCCAGGACCACGGTCTGACCCCTGACCAGGTGGTGGCGATTGCCAGCAACATTGGCGGTAAGCAAGCCCTGGAGACAGTGCAGCGCTTATTACCAGTTCTGTGTCAGGATCATGGTCTGACCCCGGATCAGGTGGTTGCCATCGCGTCTAACGGTGGCGGGAAACAGGCGCTGGAAACGGTGCAACGTTTACTGCCGGTGCTGTGTCAAGATCATGGTTTAACTCCAGATCAGGTTGTCGCTATTGCATCTAACAATGGTGGCAAACAGGCATTAGAAACGGTTCAGCGTCTGCTCCCTGTATTATGCCAGGATCATGGC'
p19
aS'CTGACGCCGGATCAAGTGGTAGCAATCGCTAGTCACGATGGTGGTAAACAAGCGCTGGAAACCGTACAGCGTCTGCTGCCGGTATTATGCCAGGACCACGGGCTCACACCGGATCAGGTCGTGGCAATCGCGTCACACGATGGCGGCAAGCAGGCCTTAGAAACAGTTCAGCGTCTTCTGCCGGTGCTGTGCCAGGACCACGGTTTAACTCCTGACCAGGTCGTAGCTATCGCTTCGAACGGTGGTGGCAAGCAGGCACTGGAAACCGTCCAACGTCTGTTGCCGGTGCTGTGCCAAGACCACGGCCTTACGCCGGATCAGGTCGTGGCCATTGCATCACACGATGGCGGTAAACAGGCCCTGGAGACAGTGCAGCGCCTGCTGCCGGTCCTGTGTCAAGACCACGGGCTGACGCCGGATCAAGTAGTCGCAATCGCCTCAAACATTGGGGGCAAACAGGCTCTGGAAACGGTGCAGCGTTTATTACCAGTGCTGTGTCAGGATCATGGCCTGACCCCTGACCAAGTTGTGGCTATCGCCAGCAACGGTGGCGGTAAACAAGCTCTGGAAACGGTTCAACGCTTACTGCCGGTTTTATGCCAAGATCATGGCCTGACACCGGACCAAGTGGTTGCAATCGCAAGCCACGATGGGGGCAAACAAGCACTCGAAACCGTGCAACGCCTGCTGCCGGTCCTGTGCCAGGATCACGGCTTAACCCCGGATCAGGTGGTAGCGATTGCTAGTAACATTGGTGGCAAACAGGCGCTCGAAACTGTCCAGCGCCTGCTGCCGGTTCTGTGCCAGGATCATGGCTTAACCCCGGACCAGGTTGTCGCCATTGCCAGCAACAATGGCGGCAAACAGGCTTTAGAGACAGTCCAACGCCTGCTTCCGGTTCTCTGTCAGGATCATGGCTTAACACCGGATCAAGTAGTGGCGATTGCGAGCAACAATGGTGGCAAACAAGCGTTAGAAACCGTTCAGCGCCTGTTACCAGTTTTATGTCAAGATCATGGCCTGACCCCGGATCAGGTTGTTGCCATTGCATCGAACATTGGTGGTAAACAGGCTCTGGAAACCGTTCAGCGTTTACTGCCGGTCCTGTGCCAGGACCACGGTTTAACGCCAGACCAGGTGGTGGCGATTGCGTCTAACATTGGTGGTAAACAAGCCCTGGAAACTGTACAGCGCCTGTTACCTGTCTTATGCCAGGATCATGGTCTGACTCCAGATCAGGTTGTTGCGATCGCCAGCCACGATGGCGGGAAACAGGCATTAGAAACCGTCCAGCGTCTGTTGCCGGTGTTATGCCAGGACCACGGTCTGACCCCTGACCAAGTGGTTGCGATTGCGAGCAACATTGGCGGTAAGCAAGCGCTGGAGACAGTGCAGCGCTTATTACCAGTTCTGTGTCAAGATCATGGTCTGACCCCGGATCAGGTGGTTGCCATCGCGTCGAACGGTGGCGGGAAACAGGCGCTGGAAACGGTGCAGCGTTTACTGCCGGTGCTGTGTCAGGATCATGGTTTAACTCCAGATCAGGTTGTGGCTATTGCATCTAACAATGGTGGCAAACAGGCATTAGAAACGGTTCAGCGTCTGCTCCCTGTATTATGCCAGGATCATGGC'
p20
aS'CTGACGCCGGATCAAGTGGTAGCAATCGCTAGTCACGATGGTGGTAAACAAGCGCTGGAAACCGTACAGCGTCTGCTGCCGGTATTATGCCAGGACCACGGGCTCACACCGGATCAGGTAGTGGCAATCGCGTCACACGATGGCGGCAAACAGGCCTTAGAGACAGTTCAGCGTCTTCTGCCGGTGCTGTGCCAGGACCACGGTTTAACTCCTGACCAGGTCGTAGCTATCGCTTCGAACGGTGGTGGCAAACAAGCACTGGAAACTGTCCAACGTCTGTTGCCGGTGCTGTGCCAAGACCACGGCCTTACACCGGATCAGGTCGTGGCCATTGCGTCACACGATGGCGGTAAGCAGGCCCTGGAGACAGTGCAGCGCCTGCTCCCTGTCCTGTGTCAGGATCACGGGCTGACGCCGGATCAAGTAGTCGCAATCGCCTCAAACATTGGGGGCAAGCAGGCTCTGGAAACGGTGCAGCGTTTATTACCAGTGCTGTGTCAGGATCATGGCCTGACCCCTGACCAGGTTGTGGCTATCGCCAGCAACGGTGGCGGTAAACAAGCGCTGGAAACGGTTCAACGCTTACTGCCGGTTTTATGCCAGGATCATGGCCTGACACCGGACCAAGTGGTTGCAATCGCAAGCCACGATGGCGGTAAACAAGCACTCGAAACCGTGCAACGCCTGCTGCCGGTCCTGTGCCAGGATCACGGCTTAACCCCGGATCAAGTGGTAGCGATTGCTAGTAACATTGGTGGCAAACAGGCGCTCGAAACTGTCCAGCGCCTGCTGCCGGTTCTGTGCCAGGATCATGGCTTAACCCCGGATCAGGTTGTCGCGATTGCCAGCAACAATGGCGGCAAACAGGCTTTAGAGACAGTGCAACGCCTGCTTCCGGTTCTCTGTCAGGATCATGGCTTAACACCGGATCAAGTAGTGGCGATTGCGAGCAACAATGGTGGCAAACAGGCGTTAGAAACCGTTCAGCGCCTGTTACCAGTTTTATGTCAAGATCATGGCCTGACCCCGGATCAGGTTGTTGCCATTGCATCGAACATTGGTGGTAAACAGGCTCTGGAAACCGTTCAGCGTTTACTGCCGGTCCTGTGCCAGGACCACGGTTTAACGCCAGACCAGGTGGTGGCGATTGCGTCTAACATTGGTGGTAAACAAGCCCTGGAGACTGTACAGCGCCTGTTACCTGTCTTATGCCAGGATCATGGTCTGACTCCAGATCAGGTTGTTGCGATCGCCAGCCACGATGGCGGGAAACAGGCATTAGAAACCGTCCAGCGTCTGTTGCCGGTGTTATGCCAAGACCACGGTCTGACCCCTGACCAAGTGGTTGCGATTGCGAGCAACATTGGCGGTAAGCAAGCGCTGGAGACAGTGCAGCGCTTATTACCAGTTCTGTGTCAAGATCATGGTCTGACCCCGGATCAGGTGGTTGCCATCGCGTCGAACGGTGGCGGGAAACAGGCGCTGGAAACGGTGCAGCGTTTACTGCCGGTGCTGTGTCAGGATCATGGTTTAACTCCAGATCAGGTTGTGGCTATTGCATCTAACAATGGTGGCAAACAGGCATTAGAAACGGTTCAGCGTCTGCTCCCTGTATTATGCCAGGATCACGGC'
p21
aS'CTGACGCCGGATCAAGTGGTAGCAATCGCTAGTCACGATGGTGGTAAACAGGCGCTTGAAACCGTACAGCGTCTGCTGCCGGTACTCTGCCAGGACCACGGGCTCACACCGGATCAGGTAGTGGCAATCGCGTCACACGATGGCGGCAAACAGGCCTTAGAGACAGTTCAGCGTCTTCTGCCGGTGCTGTGCCAGGACCACGGTTTAACTCCTGACCAGGTCGTAGCTATCGCTTCGAACGGTGGTGGCAAACAAGCACTGGAAACCGTCCAACGTCTGTTGCCGGTGCTGTGCCAAGACCACGGCCTTACACCGGATCAGGTCGTGGCCATTGCATCACACGATGGCGGTAAACAGGCCCTTGAGACAGTGCAGCGCCTGCTGCCGGTCCTGTGTCAAGACCACGGGCTGACGCCGGATCAAGTAGTCGCAATCGCCTCAAACATTGGGGGCAAGCAGGCTCTGGAAACGGTGCAGCGTTTATTACCAGTGCTGTGTCAGGATCATGGCCTGACCCCTGACCAGGTTGTGGCTATCGCCAGCAACGGTGGCGGTAAACAAGCTCTGGAAACGGTTCAACGCTTACTGCCGGTTTTATGCCAGGATCACGGCCTGACACCGGACCAAGTGGTTGCAATCGCAAGCCACGATGGGGGTAAACAAGCCCTCGAAACCGTGCAACGCCTTCTGCCGGTCCTGTGCCAAGATCACGGTTTAACCCCGGATCAGGTGGTAGCGATTGCTAGTAACATTGGTGGCAAACAGGCGCTCGAAACTGTCCAGCGCCTGCTGCCGGTTCTGTGTCAGGATCATGGCTTAACCCCGGACCAGGTTGTCGCGATTGCCAGCAACAATGGCGGCAAACAGGCTTTAGAGACAGTCCAACGCCTGCTTCCGGTTCTTTGTCAGGATCATGGCTTAACACCGGATCAAGTAGTGGCGATTGCGAGCAACAATGGTGGCAAACAGGCGTTAGAAACCGTTCAGCGCCTGTTACCAGTTTTATGTCAAGATCATGGCCTGACCCCGGATCAGGTTGTAGCCATTGCATCGAACATTGGTGGTAAACAGGCTCTGGAAACCGTTCAGCGTTTACTGCCGGTGCTGTGCCAGGACCACGGTTTAACGCCAGACCAGGTGGTGGCGATTGCGTCTAACATTGGTGGTAAACAGGCCCTGGAGACTGTACAGCGCCTGTTACCTGTCTTATGCCAGGATCATGGTCTGACTCCAGATCAGGTTGTTGCGATCGCCAGCCACGATGGCGGGAAACAGGCATTAGAAACCGTCCAGCGTCTGTTGCCGGTGTTATGCCAAGACCACGGTCTGACCCCTGACCAGGTGGTTGCGATTGCGAGCAACATTGGCGGTAAGCAAGCCCTGGAGACAGTGCAGCGCTTATTACCAGTTCTGTGTCAGGATCACGGTCTGACCCCGGATCAGGTCGTTGCCATCGCGTCGAACGGTGGCGGGAAACAGGCGCTGGAAACGGTGCAGCGTTTACTGCCGGTGCTGTGTCAGGATCATGGTTTAACTCCAGATCAGGTTGTCGCTATTGCATCTAACAATGGTGGCAAACAGGCATTAGAAACGGTTCAACGTCTGCTCCCTGTATTATGCCAGGATCATGGC'
p22
aS'CTGACGCCGGATCAAGTGGTAGCAATCGCTAGTCACGATGGTGGTAAACAAGCGCTGGAAACCGTACAGCGTCTGCTGCCGGTATTATGCCAGGACCACGGGCTCACACCGGATCAGGTAGTGGCAATCGCGTCACACGATGGCGGCAAACAGGCCTTAGAGACAGTTCAGCGTCTTCTGCCGGTACTGTGCCAGGACCACGGTTTAACTCCTGACCAGGTCGTAGCTATCGCTTCGAACGGTGGTGGCAAACAGGCACTGGAAACCGTCCAACGTCTGTTGCCGGTGCTGTGCCAAGATCACGGCCTTACACCGGATCAGGTCGTGGCCATTGCGTCACACGATGGCGGTAAGCAGGCCCTGGAGACAGTGCAGCGCCTGCTGCCGGTCCTGTGTCAGGACCACGGGCTGACGCCGGATCAAGTAGTCGCCATCGCCTCAAACATTGGGGGCAAACAGGCTCTGGAAACGGTGCAGCGTTTATTACCAGTGCTGTGTCAAGATCATGGCCTGACCCCTGACCAGGTTGTGGCTATCGCCAGCAACGGTGGCGGTAAACAAGCGCTGGAAACGGTTCAACGCTTACTGCCGGTTTTATGCCAGGATCATGGCCTGACACCGGACCAAGTGGTTGCAATCGCAAGCCACGATGGCGGTAAACAAGCACTCGAAACCGTGCAACGCCTGCTGCCGGTCCTGTGTCAGGATCACGGTTTAACCCCGGATCAAGTGGTAGCGATTGCTAGTAACATTGGTGGCAAACAGGCGCTCGAAACTGTCCAGCGCCTGCTGCCGGTTCTGTGTCAGGATCATGGCTTAACCCCGGACCAGGTTGTGGCGATTGCAAGCAACAATGGCGGCAAACAGGCTTTAGAGACAGTGCAACGCCTGCTTCCGGTTCTCTGTCAGGATCATGGCTTAACACCGGATCAAGTAGTGGCGATTGCGAGCAACAATGGTGGCAAACAGGCGTTAGAAACCGTTCAACGCCTGTTACCAGTTTTATGTCAAGATCATGGCCTGACCCCGGATCAGGTTGTTGCCATTGCATCGAACATTGGTGGTAAACAGGCTCTGGAAACCGTTCAGCGTTTACTGCCGGTGCTGTGCCAGGACCACGGGTTAACGCCAGACCAGGTGGTGGCGATTGCGTCTAACATTGGTGGTAAACAAGCCCTGGAAACTGTACAGCGCCTGTTACCTGTCTTATGCCAGGATCATGGTCTGACTCCAGATCAGGTTGTTGCGATCGCCAGCCACGATGGCGGGAAACAGGCATTAGAAACCGTGCAGCGTCTGTTGCCGGTGTTATGCCAAGACCACGGTCTGACCCCTGACCAGGTGGTTGCGATTGCGAGCAACATTGGCGGTAAGCAAGCGCTGGAGACAGTGCAGCGCTTATTACCAGTTCTGTGTCAGGATCATGGTCTGACCCCGGATCAGGTCGTTGCCATCGCGTCGAACGGTGGCGGGAAACAGGCGCTGGAAACGGTGCAGCGTTTACTGCCGGTGCTGTGTCAGGATCATGGTTTAACTCCAGATCAGGTCGTCGCTATTGCATCTAACAATGGTGGCAAACAGGCATTAGAAACGGTTCAGCGTCTGCTCCCGGTCTTATGCCAGGATCATGGC'
p23
aS'CTGACGCCGGATCAAGTAGTAGCAATCGCTAGTCACGATGGTGGTAAACAGGCGCTGGAAACCGTACAGCGTCTGCTGCCGGTATTATGCCAGGACCACGGGCTCACACCGGATCAGGTAGTGGCAATCGCGTCACACGATGGCGGCAAACAGGCCTTAGAGACAGTTCAGCGTCTTCTGCCGGTGCTGTGCCAGGACCACGGTTTAACTCCTGACCAGGTCGTAGCTATCGCTTCGAACGGTGGTGGCAAACAAGCACTGGAAACCGTCCAACGTCTGTTGCCGGTGCTGTGCCAAGACCACGGCCTTACACCGGATCAGGTCGTGGCCATTGCATCACACGATGGCGGTAAACAGGCCCTGGAGACAGTGCAGCGCCTGCTGCCGGTCCTGTGTCAAGACCACGGGCTGACGCCGGACCAAGTAGTCGCAATCGCCTCAAACATTGGGGGCAAACAGGCTCTGGAAACGGTGCAGCGTTTATTACCAGTGCTGTGCCAGGATCATGGCCTGACCCCTGACCAGGTTGTGGCTATCGCCAGCAACGGTGGCGGTAAACAAGCGCTGGAAACGGTTCAACGCTTACTGCCGGTTTTATGCCAGGATCATGGCCTGACACCGGACCAAGTGGTTGCAATCGCAAGCCACGATGGGGGTAAACAGGCACTCGAAACCGTGCAACGCCTGCTGCCGGTCCTGTGCCAGGATCACGGTTTAACCCCAGATCAGGTGGTAGCGATTGCTAGTAACATTGGTGGCAAACAGGCGCTCGAAACTGTCCAGCGCCTGCTGCCGGTTCTGTGCCAGGATCACGGCTTAACCCCGGACCAGGTTGTCGCGATTGCAAGCAACAATGGCGGCAAACAGGCTTTAGAGACAGTCCAACGCCTGCTTCCGGTTCTCTGTCAGGATCATGGCTTAACACCGGATCAGGTCGTGGCGATTGCGAGCAACAATGGTGGCAAACAGGCGTTAGAAACCGTTCAGCGCCTGTTACCAGTTTTATGTCAAGATCATGGCCTGACCCCGGATCAGGTTGTTGCCATTGCATCGAACATTGGTGGTAAACAGGCTCTGGAAACCGTTCAGCGTTTACTGCCGGTGCTGTGCCAGGACCACGGTTTAACGCCAGACCAGGTGGTGGCGATTGCGTCTAACATTGGTGGTAAACAAGCCCTGGAAACTGTACAACGCCTGTTACCTGTCTTATGCCAGGATCATGGTCTGACTCCAGATCAGGTTGTTGCGATCGCCAGCCACGATGGCGGGAAACAGGCATTAGAAACCGTCCAGCGTCTGTTGCCGGTGTTATGCCAAGACCACGGTCTGACCCCTGACCAGGTGGTTGCGATTGCGAGCAACATTGGCGGTAAGCAAGCGCTGGAGACAGTGCAGCGCTTATTACCAGTTCTGTGTCAAGATCATGGTCTGACCCCGGATCAGGTGGTTGCCATCGCGTCGAACGGTGGCGGGAAACAGGCGCTGGAAACGGTGCAGCGTTTACTGCCTGTACTGTGTCAGGATCATGGTTTAACTCCAGATCAGGTCGTCGCTATTGCATCTAACAATGGTGGCAAACAGGCATTAGAAACGGTTCAGCGTCTGCTCCCTGTCTTATGCCAGGATCATGGC'
p24
aS'CTGACGCCGGATCAAGTGGTAGCAATCGCTAGTCACGATGGTGGTAAACAAGCGCTGGAAACCGTACAGCGTCTGCTGCCGGTATTATGCCAGGACCACGGGCTCACACCGGATCAGGTCGTGGCAATCGCGTCACACGATGGCGGCAAGCAGGCCTTAGAAACAGTTCAGCGTCTTCTGCCGGTGCTGTGCCAGGACCACGGTTTAACTCCTGACCAGGTCGTAGCTATCGCTTCGAACGGTGGTGGCAAGCAGGCACTGGAAACCGTCCAACGTCTGTTGCCGGTGCTGTGCCAAGACCACGGCCTTACGCCGGATCAGGTCGTGGCCATTGCATCACACGATGGCGGTAAACAGGCCCTGGAGACAGTGCAGCGCCTGCTGCCGGTCCTGTGTCAAGACCACGGGCTGACGCCGGATCAAGTAGTCGCAATCGCCTCAAACATTGGGGGCAAACAGGCTCTGGAAACGGTGCAGCGTTTATTACCAGTGCTGTGTCAGGATCATGGCCTGACCCCTGACCAGGTGGTGGCTATCGCCAGCAACGGTGGCGGTAAACAAGCGCTGGAAACGGTTCAACGCTTACTGCCGGTTTTATGCCAGGATCATGGCCTGACCCCGGACCAAGTGGTTGCAATCGCAAGCCACGATGGGGGTAAACAGGCACTCGAAACCGTGCAACGCCTGCTGCCGGTCCTGTGCCAGGATCACGGTTTGACACCGGATCAGGTGGTAGCGATTGCTAGTAACATTGGTGGCAAACAGGCGCTCGAAACTGTCCAGCGCCTGCTGCCGGTTCTGTGCCAGGATCACGGCTTAACCCCGGATCAGGTTGTCGCGATTGCCAGCAACAATGGCGGCAAACAGGCTTTAGAGACAGTGCAACGCCTGCTTCCGGTTCTCTGTCAGGATCATGGCTTAACACCGGATCAAGTAGTGGCGATTGCGAGCAACAATGGTGGCAAACAGGCGTTAGAAACCGTTCAGCGCCTGTTACCAGTTTTATGTCAAGATCATGGCCTGACCCCGGATCAGGTTGTTGCCATTGCATCGAACATTGGTGGTAAACAGGCTCTGGAAACCGTTCAGCGTTTACTGCCGGTCCTGTGCCAGGACCACGGTTTAACGCCAGACCAGGTGGTGGCGATTGCGTCTAACATTGGTGGTAAACAAGCCCTGGAGACTGTACAGCGCCTGTTACCTGTCTTATGCCAGGATCATGGTCTGACTCCAGATCAGGTTGTTGCGATCGCCAGCCACGATGGCGGGAAACAGGCATTAGAAACCGTCCAGCGTCTGTTGCCGGTGTTATGCCAAGACCACGGTCTGACCCCTGACCAGGTGGTTGCGATTGCGAGCAACATTGGCGGTAAGCAAGCGCTGGAGACAGTGCAGCGCTTATTACCAGTTCTGTGTCAGGATCATGGTCTGACCCCGGATCAGGTCGTTGCCATCGCGTCGAACGGTGGCGGGAAACAGGCGCTGGAAACGGTGCAGCGTTTACTGCCGGTGCTGTGTCAGGATCATGGTTTAACTCCAGATCAGGTTGTCGCTATTGCATCTAACAATGGTGGCAAACAGGCATTAGAAACGGTTCAGCGTCTGCTCCCTGTATTATGCCAGGATCATGGC'
p25
aS'CTGACGCCGGATCAAGTGGTAGCAATCGCTAGTCACGATGGTGGTAAACAGGCGCTGGAAACCGTACAGCGTCTGCTGCCGGTATTATGTCAGGACCACGGGCTCACACCGGATCAAGTAGTGGCAATCGCGTCACACGATGGCGGCAAACAGGCCTTAGAGACAGTTCAGCGTCTTCTGCCGGTACTGTGCCAGGACCACGGTTTAACTCCTGACCAGGTCGTAGCTATCGCTTCGAACGGTGGTGGCAAACAGGCACTGGAAACCGTCCAACGTCTGTTGCCGGTGCTGTGCCAAGACCACGGTCTTACACCGGATCAGGTCGTGGCCATTGCATCACACGATGGCGGTAAGCAGGCCCTGGAGACAGTGCAGCGCCTGCTGCCGGTCCTGTGTCAAGACCACGGGCTGACGCCGGATCAAGTAGTCGCAATCGCCTCAAACATTGGGGGCAAACAGGCTCTGGAAACGGTGCAGCGTTTATTACCAGTGCTGTGTCAGGATCATGGCCTGACCCCTGACCAGGTTGTGGCTATCGCCAGCAACGGTGGCGGTAAGCAAGCGCTGGAAACGGTTCAGCGCTTACTGCCGGTTTTATGCCAGGATCATGGCCTGACACCGGACCAAGTGGTTGCAATCGCAAGCCACGATGGGGGTAAACAAGCACTCGAAACCGTGCAGCGTCTGCTGCCGGTCCTGTGCCAGGATCACGGTTTAACCCCGGATCAGGTGGTAGCCATTGCTAGTAACATTGGTGGCAAACAGGCGCTCGAAACTGTCCAGCGCCTGCTGCCGGTTCTGTGCCAGGATCACGGCTTAACCCCGGACCAGGTTGTCGCGATTGCCAGCAACAATGGCGGCAAACAGGCTTTAGAGACAGTGCAACGCCTGCTTCCGGTTCTCTGTCAGGATCATGGCTTAACACCGGATCAGGTAGTGGCGATTGCGAGCAACAATGGTGGCAAACAGGCGTTAGAAACCGTTCAGCGCCTGTTACCAGTTTTATGTCAAGATCATGGCCTGACCCCGGATCAGGTTGTTGCCATTGCATCGAACATTGGTGGTAAACAGGCTCTGGAAACCGTTCAGCGTTTACTGCCGGTGCTGTGTCAGGACCACGGTTTAACACCAGACCAGGTGGTGGCGATTGCGTCTAACATTGGTGGTAAACAAGCCCTGGAAACTGTACAGCGCCTGTTACCTGTCTTATGCCAGGATCATGGTCTGACCCCAGATCAGGTTGTTGCGATCGCCAGCCACGATGGCGGGAAACAGGCATTAGAAACCGTCCAGCGTCTGTTGCCGGTGTTATGCCAAGACCACGGTCTGACCCCTGACCAGGTGGTTGCGATTGCGAGCAACATTGGCGGTAAACAAGCGCTGGAGACAGTGCAGCGCTTATTACCAGTTCTGTGTCAGGATCATGGTCTGACCCCGGATCAGGTCGTTGCCATCGCGTCGAACGGTGGCGGGAAACAGGCGCTGGAAACGGTGCAGCGTTTACTGCCGGTGCTGTGTCAGGATCACGGTTTAACTCCAGATCAGGTCGTCGCTATTGCATCTAACAATGGTGGCAAACAGGCATTAGAAACGGTTCAGCGTCTGCTCCCTGTCTTATGCCAGGATCATGGC'
p26
aS'CTGACGCCGGATCAAGTGGTAGCAATCGCTAGTCACGATGGTGGTAAACAAGCGCTGGAAACCGTACAGCGTCTGCTGCCGGTATTATGCCAGGACCACGGGCTCACACCGGATCAGGTCGTGGCAATCGCGTCACACGATGGCGGCAAGCAGGCCTTAGAAACAGTTCAGCGTCTTCTGCCGGTGCTGTGCCAGGACCACGGTTTAACTCCTGACCAGGTCGTAGCTATCGCTTCGAACGGTGGTGGCAAGCAGGCACTGGAAACCGTCCAACGTCTGTTGCCGGTGCTGTGCCAAGACCACGGCCTTACGCCGGATCAGGTCGTGGCCATTGCATCACACGATGGCGGTAAACAGGCCCTGGAGACAGTGCAGCGCCTGCTGCCGGTCCTGTGTCAAGACCACGGGCTGACGCCGGATCAAGTAGTCGCAATCGCCTCAAACATTGGGGGCAAACAGGCTCTGGAAACGGTGCAGCGTTTATTACCAGTGCTGTGTCAGGATCATGGCCTGACCCCTGACCAGGTGGTGGCTATCGCCAGCAACGGTGGCGGTAAACAAGCGCTGGAAACGGTTCAACGCTTACTGCCGGTTTTATGCCAGGATCATGGCCTGACCCCGGACCAAGTGGTTGCAATCGCAAGCCACGATGGGGGTAAACAGGCACTCGAAACCGTGCAACGCCTGCTGCCGGTCCTGTGCCAGGATCACGGTTTGACCCCGGATCAGGTGGTAGCGATTGCTAGTAACATTGGTGGCAAACAGGCGCTCGAAACTGTCCAGCGCCTGCTGCCGGTTCTGTGCCAGGATCATGGCTTAACCCCGGACCAGGTTGTCGCCATTGCCAGCAACAATGGCGGCAAACAGGCTTTAGAGACAGTCCAACGCCTGCTTCCGGTTCTCTGTCAGGATCATGGCTTAACACCGGATCAAGTAGTGGCGATTGCGAGCAACAATGGTGGCAAACAGGCGTTAGAAACCGTTCAGCGCCTGTTACCAGTTTTATGTCAAGATCATGGCCTGACCCCGGATCAGGTTGTTGCGATTGCATCGAACATTGGTGGTAAACAGGCTCTGGAAACCGTTCAGCGTTTACTGCCGGTGCTGTGCCAGGACCACGGTTTAACGCCAGACCAGGTGGTGGCGATTGCGTCTAACATTGGTGGTAAACAAGCCCTGGAAACTGTACAGCGCCTGTTACCTGTCTTATGCCAGGATCATGGTCTGACTCCAGATCAGGTAGTTGCGATCGCCAGCCACGATGGCGGGAAACAGGCATTAGAAACCGTCCAGCGTCTGTTGCCGGTGTTATGCCAGGACCACGGTCTGACCCCTGACCAAGTGGTTGCGATTGCGAGCAACATTGGCGGTAAGCAAGCGCTGGAGACAGTGCAGCGCTTATTACCAGTTCTGTGTCAAGATCATGGTCTGACCCCGGATCAGGTGGTTGCCATCGCGTCGAACGGTGGCGGGAAACAGGCGCTGGAAACGGTGCAGCGTTTACTGCCGGTGTTATGTCAGGATCATGGTTTAACTCCAGATCAGGTTGTCGCTATTGCATCTAACAATGGTGGCAAACAGGCATTAGAAACGGTTCAGCGTCTGCTCCCTGTATTATGCCAGGATCATGGC'
p27
aS'CTGACGCCGGATCAAGTGGTAGCAATCGCTAGTCACGATGGTGGTAAACAGGCGCTGGAAACCGTACAGCGTCTGCTGCCGGTATTATGCCAGGACCACGGGCTCACACCGGATCAGGTAGTGGCAATCGCGTCACACGATGGCGGTAAACAGGCCTTAGAGACAGTTCAGCGTCTTCTGCCGGTACTGTGCCAGGACCACGGTTTAACTCCTGACCAGGTCGTAGCTATCGCTTCGAACGGTGGTGGCAAGCAAGCACTGGAAACCGTCCAACGTCTGTTGCCGGTGCTGTGCCAAGACCACGGCCTTACACCGGATCAAGTCGTGGCCATTGCATCACACGATGGCGGTAAGCAGGCCCTGGAGACAGTGCAGCGCCTGCTGCCGGTCCTGTGTCAAGACCACGGGCTGACCCCGGATCAAGTTGTCGCAATCGCCTCAAACATTGGGGGCAAACAGGCTTTAGAAACGGTGCAGCGTTTATTACCAGTGCTGTGTCAGGATCATGGCCTGACCCCTGACCAGGTTGTGGCTATCGCCAGCAACGGTGGCGGTAAACAAGCGCTGGAAACGGTTCAACGCTTACTGCCGGTTTTATGCCAGGATCATGGCCTGACCCCGGACCAAGTGGTTGCAATCGCAAGCCACGATGGGGGTAAACAGGCACTCGAAACCGTGCAACGCCTGCTGCCGGTCCTGTGCCAGGATCACGGTTTAACCCCGGATCAGGTGGTAGCGATTGCTAGTAACATTGGTGGCAAACAGGCGCTCGAAACTGTCCAGCGCCTGCTGCCGGTTCTGTGCCAGGATCACGGCTTAACCCCGGATCAGGTTGTCGCGATTGCCAGCAACAATGGCGGCAAACAGGCTTTAGAGACAGTGCAACGCCTGCTTCCGGTTCTCTGTCAGGATCATGGCTTAACACCGGATCAGGTAGTGGCGATTGCGAGCAACAATGGTGGCAAACAGGCGTTAGAAACCGTTCAGCGCCTGTTACCAGTTTTATGTCAAGATCATGGCCTGACCCCGGATCAGGTTGTTGCCATTGCATCGAACATTGGTGGTAAACAGGCTCTGGAAACCGTTCAGCGTTTACTGCCGGTGCTGTGCCAGGACCACGGTTTAACGCCAGACCAGGTGGTGGCGATTGCGTCTAACATTGGTGGTAAACAAGCCCTGGAAACTGTACAGCGCCTGTTACCTGTCTTATGCCAGGATCATGGTCTGACCCCAGATCAGGTTGTTGCGATCGCCAGCCACGATGGCGGGAAACAGGCATTAGAAACCGTCCAGCGTCTGTTGCCGGTGTTATGCCAAGACCACGGTCTGACCCCTGACCAGGTGGTTGCGATTGCGAGCAACATTGGCGGTAAGCAAGCGCTGGAGACAGTGCAGCGCTTATTACCAGTTCTGTGTCAGGATCATGGTCTGACCCCGGATCAGGTCGTTGCCATCGCGTCGAACGGTGGCGGGAAACAGGCGCTGGAAACGGTGCAGCGTTTACTGCCGGTGCTGTGTCAGGATCATGGTTTAACTCCAGATCAGGTTGTCGCTATTGCATCTAACAATGGTGGCAAACAGGCATTAGAAACGGTTCAGCGTCTGCTCCCTGTATTATGCCAGGATCATGGC'
p28
aS'CTGACGCCGGATCAAGTGGTAGCAATCGCTAGTCACGATGGTGGTAAACAGGCGCTGGAAACCGTACAGCGTCTGCTGCCGGTATTATGCCAGGACCACGGGCTCACACCGGATCAGGTAGTAGCAATCGCGTCACACGATGGCGGCAAACAGGCCTTAGAGACAGTTCAGCGTCTTCTGCCGGTACTGTGCCAGGACCACGGTTTAACGCCTGACCAGGTCGTAGCCATCGCTTCGAACGGTGGTGGCAAACAGGCACTGGAAACCGTCCAACGTCTGTTGCCGGTGCTGTGCCAAGACCACGGCCTTACACCGGATCAGGTCGTGGCCATTGCATCACACGATGGCGGTAAGCAGGCTCTGGAGACAGTGCAGCGCCTGCTGCCGGTCCTGTGTCAAGACCACGGGCTGACGCCGGACCAAGTCGTCGCAATCGCCTCAAACATTGGGGGCAAACAGGCTCTGGAAACGGTGCAGCGTTTATTACCAGTGCTGTGTCAGGATCATGGCCTGACCCCTGACCAGGTTGTGGCTATCGCCAGCAACGGTGGCGGTAAACAAGCGCTGGAAACGGTTCAACGCTTACTGCCGGTTTTATGCCAGGATCATGGCCTGACACCGGACCAAGTGGTTGCAATCGCAAGCCACGATGGCGGTAAACAAGCACTCGAAACCGTGCAACGCCTGCTGCCGGTCCTGTGCCAGGATCACGGTTTAACCCCGGATCAAGTGGTAGCGATTGCTAGTAACATTGGTGGCAAACAGGCGCTCGAAACTGTCCAGCGCCTGCTGCCGGTTCTGTGTCAGGATCATGGCTTAACCCCGGACCAGGTTGTGGCGATTGCAAGCAACAATGGCGGCAAACAGGCTTTAGAGACAGTGCAACGCCTGCTTCCGGTTCTCTGTCAGGATCATGGCTTAACACCGGATCAAGTAGTGGCGATTGCGAGCAACAATGGTGGCAAACAGGCGTTAGAAACCGTTCAACGCCTGTTACCAGTTTTATGTCAAGATCATGGCCTGACCCCGGATCAGGTTGTTGCCATTGCATCGAACATTGGTGGTAAACAGGCTCTGGAAACCGTTCAGCGTTTACTGCCGGTGCTGTGCCAGGACCACGGGTTAACGCCAGACCAGGTGGTGGCGATTGCGTCTAACATTGGTGGTAAACAAGCCCTGGAAACTGTACAGCGCCTGTTACCTGTCTTATGCCAGGATCATGGTCTGACCCCAGATCAGGTTGTTGCGATCGCCAGCCACGATGGCGGGAAACAGGCATTAGAAACCGTCCAACGTCTGTTGCCGGTGTTATGCCAAGACCACGGTCTGACCCCTGACCAGGTGGTTGCGATTGCGAGCAACATTGGCGGTAAGCAAGCGCTGGAGACAGTGCAGCGCTTATTACCAGTTCTGTGTCAGGATCATGGTCTGACCCCGGATCAGGTCGTTGCCATCGCGTCGAACGGTGGCGGGAAACAGGCGCTGGAAACGGTGCAGCGTTTACTGCCGGTGCTGTGTCAGGATCATGGTTTAACTCCAGATCAGGTTGTCGCTATTGCATCTAACAATGGTGGCAAACAGGCATTAGAAACGGTTCAGCGTCTGCTCCCTGTATTATGCCAGGATCATGGC'
p29
aS'CTGACGCCGGATCAAGTGGTAGCAATCGCTAGTCACGATGGTGGTAAACAGGCACTGGAAACCGTACAGCGTCTGCTGCCGGTACTTTGCCAGGACCACGGGCTCACACCGGATCAGGTAGTGGCAATCGCTTCACACGATGGCGGTAAACAGGCCTTAGAGACAGTTCAGCGTCTTCTGCCGGTACTGTGCCAGGACCACGGTCTGACTCCTGACCAGGTCGTAGCTATCGCTTCGAACGGTGGTGGCAAGCAAGCACTGGAAACCGTCCAACGTCTGTTGCCGGTGCTGTGCCAAGACCACGGCCTTACACCGGATCAGGTCGTGGCCATTGCATCACACGATGGCGGTAAACAGGCCCTTGAAACAGTGCAGCGCCTGCTGCCGGTCCTGTGTCAAGATCACGGGCTGACGCCGGATCAAGTAGTCGCCATCGCCTCAAACATTGGGGGCAAACAGGCTCTGGAAACGGTGCAACGTTTATTACCAGTGCTGTGTCAGGATCATGGCCTGACCCCTGACCAGGTTGTGGCTATCGCCAGCAACGGTGGCGGTAAACAAGCGCTGGAAACGGTTCAACGCTTACTGCCGGTTTTATGCCAGGATCATGGGCTGACACCGGACCAAGTGGTGGCAATCGCAAGCCACGATGGGGGTAAACAAGCCCTCGAAACCGTGCAACGCCTGCTGCCGGTCCTGTGCCAGGATCACGGTTTAACCCCGGATCAGGTGGTAGCCATTGCTAGTAACATTGGTGGCAAACAGGCGCTCGAAACTGTCCAGCGCCTGCTGCCGGTTCTGTGCCAGGATCATGGCTTAACCCCGGATCAGGTTGTCGCGATTGCCAGCAACAATGGCGGCAAGCAGGCTTTAGAGACAGTCCAACGCCTGCTTCCGGTTCTCTGTCAGGATCATGGCTTAACACCGGATCAAGTAGTGGCGATTGCGAGCAACAATGGTGGCAAACAGGCGTTAGAAACCGTTCAGCGCCTGTTACCAGTTTTATGTCAAGATCATGGCCTGACCCCGGATCAGGTTGTTGCCATTGCATCGAACATTGGTGGTAAACAGGCTCTGGAAACCGTTCAGCGTTTACTGCCGGTGCTGTGCCAGGACCACGGTTTAACGCCAGACCAGGTGGTGGCGATTGCGTCTAACATTGGTGGTAAACAAGCCCTGGAAACTGTACAGCGCCTGTTACCTGTCTTATGCCAGGATCATGGTCTGACTCCAGATCAGGTCGTTGCGATCGCCAGCCACGATGGCGGGAAACAGGCATTAGAAACCGTCCAGCGTCTGTTGCCGGTGTTATGCCAAGACCACGGTCTGACCCCTGACCAGGTGGTTGCGATTGCGAGCAACATTGGCGGTAAGCAAGCGCTGGAGACAGTGCAGCGCTTATTACCAGTTCTGTGTCAAGATCATGGTCTGACCCCGGATCAGGTGGTTGCCATCGCGTCGAACGGTGGCGGGAAACAGGCGCTGGAAACGGTGCAGCGTTTACTGCCGGTGCTGTGTCAGGATCATGGTTTAACTCCAGATCAGGTTGTGGCTATTGCATCTAACAATGGTGGCAAACAGGCATTAGAAACGGTTCAGCGTCTGCTCCCTGTATTATGCCAGGATCATGGC'
p30
aS'CTGACGCCGGATCAAGTGGTAGCAATCGCTAGTCACGATGGTGGTAAACAGGCGCTGGAAACCGTACAGCGTCTGCTGCCGGTATTATGCCAGGACCACGGGCTCACACCGGATCAGGTCGTGGCAATCGCGTCACACGATGGCGGCAAACAGGCCTTAGAGACAGTTCAGCGTCTTCTGCCAGTGCTGTGCCAGGACCACGGTTTAACTCCTGACCAGGTCGTAGCTATCGCTTCGAACGGTGGTGGCAAACAAGCACTGGAAACTGTCCAACGTCTGTTGCCGGTGCTGTGCCAAGACCACGGCCTTACACCGGATCAGGTCGTGGCCATTGCGTCACACGATGGCGGTAAGCAGGCCCTGGAGACAGTGCAGCGCCTGCTGCCGGTCCTGTGTCAGGACCACGGGCTGACGCCGGATCAAGTAGTCGCAATCGCCTCAAACATTGGGGGCAAGCAGGCTCTGGAAACGGTGCAGCGTTTATTACCAGTGCTGTGTCAAGATCATGGCCTGACCCCTGACCAGGTTGTGGCTATCGCCAGCAACGGTGGCGGCAAACAAGCGCTGGAAACGGTTCAACGCTTACTGCCGGTTTTATGCCAGGATCATGGCCTGACACCGGACCAAGTGGTTGCAATCGCAAGCCACGATGGCGGTAAACAAGCACTCGAAACCGTGCAACGCCTGCTGCCAGTCCTGTGCCAGGATCACGGTTTAACCCCGGATCAGGTGGTAGCGATTGCTAGTAACATTGGTGGCAAACAGGCGCTCGAAACTGTCCAGCGCCTGCTGCCGGTTCTGTGCCAGGATCACGGCTTAACCCCGGATCAGGTTGTCGCGATTGCCAGCAACAATGGCGGCAAACAGGCTTTAGAGACAGTGCAACGCCTGCTTCCGGTTCTCTGTCAGGATCATGGCTTAACACCGGATCAGGTAGTGGCGATTGCGAGCAACAATGGTGGCAAACAGGCGTTAGAAACCGTTCAGCGCCTGTTACCAGTTTTATGTCAAGATCATGGCCTGACCCCGGATCAAGTTGTTGCTATTGCATCGAACATTGGTGGTAAACAGGCTCTGGAAACCGTTCAGCGTTTACTGCCGGTGCTGTGCCAGGACCACGGGTTAACGCCAGACCAGGTGGTGGCGATTGCGTCTAACATTGGTGGTAAACAAGCCCTGGAAACTGTACAGCGCCTGTTACCTGTCTTATGCCAGGATCATGGTCTGACCCCAGATCAGGTTGTTGCGATCGCCAGCCACGATGGCGGGAAACAGGCATTAGAAACCGTCCAGCGTCTGTTGCCGGTGTTATGCCAAGACCACGGTCTGACCCCTGACCAGGTGGTTGCGATTGCGAGCAACATTGGCGGTAAGCAAGCGCTGGAGACAGTGCAGCGCTTATTACCAGTTCTGTGTCAGGATCATGGTCTGACCCCGGATCAGGTCGTTGCCATCGCGTCGAACGGTGGCGGGAAACAGGCGCTGGAAACGGTGCAGCGTTTACTGCCGGTGCTGTGTCAGGATCATGGTTTAACTCCAGATCAGGTCGTCGCTATTGCATCTAACAATGGTGGCAAACAGGCATTAGAAACGGTTCAGCGTCTGCTCCCGGTCTTATGCCAGGATCATGGC'
p31
aS'CTGACGCCGGATCAAGTGGTAGCAATCGCTAGTCACGATGGTGGTAAACAGGCACTGGAAACCGTACAGCGTCTGCTGCCGGTACTTTGCCAGGACCACGGGCTCACACCGGATCAGGTAGTGGCAATCGCGTCACACGATGGCGGTAAACAGGCCTTAGAGACAGTTCAGCGTCTTCTGCCGGTACTGTGCCAGGACCACGGTCTGACTCCTGACCAGGTCGTAGCTATCGCTTCGAACGGTGGTGGCAAGCAAGCACTGGAAACCGTCCAACGTCTGTTGCCGGTGCTGTGCCAAGACCACGGCCTTACACCGGATCAGGTCGTGGCCATTGCATCACACGATGGCGGTAAGCAGGCCCTGGAGACAGTGCAGCGCCTGCTGCCGGTCCTGTGTCAAGACCACGGGCTGACGCCGGATCAAGTAGTCGCAATCGCCTCAAACATTGGGGGCAAACAGGCTCTGGAAACGGTGCAGCGTTTATTACCAGTGCTGTGTCAGGATCATGGCCTGACCCCGGACCAGGTTGTGGCTATCGCCAGCAACGGTGGCGGTAAGCAAGCGTTAGAAACGGTTCAACGCTTACTGCCGGTTTTATGCCAGGATCATGGCCTGACACCGGACCAAGTGGTGGCAATCGCAAGCCACGATGGGGGTAAACAAGCCCTCGAAACCGTGCAACGCCTGCTGCCGGTCCTGTGCCAGGATCACGGTTTAACCCCGGATCAGGTGGTAGCCATTGCTAGTAACATTGGTGGCAAACAGGCGCTCGAAACTGTCCAGCGCCTGCTGCCGGTTCTGTGCCAGGATCATGGCTTAACCCCGGACCAGGTTGTCGCGATTGCCAGCAACAATGGCGGCAAACAGGCTTTAGAGACAGTCCAACGCCTGCTTCCGGTTCTTTGTCAGGATCATGGCTTAACACCGGATCAAGTAGTGGCGATTGCGAGCAACAATGGTGGCAAACAGGCGTTAGAAACCGTTCAGCGCCTGTTACCAGTTTTATGTCAAGATCATGGCCTGACCCCGGATCAGGTTGTTGCCATTGCATCGAACATTGGTGGTAAACAGGCTCTGGAAACCGTTCAGCGTTTACTGCCGGTGCTGTGTCAGGACCACGGTTTAACACCAGACCAGGTGGTGGCGATTGCGTCTAACATTGGTGGTAAACAAGCCCTGGAAACTGTACAGCGCCTGTTACCTGTCTTATGCCAGGATCATGGTCTGACCCCAGATCAGGTTGTTGCGATCGCCAGCCACGATGGCGGGAAACAGGCATTAGAAACCGTCCAGCGTCTGTTGCCGGTGTTATGCCAAGACCACGGTCTGACCCCTGACCAGGTGGTTGCGATTGCGAGCAACATTGGCGGTAAGCAAGCGCTGGAGACAGTGCAGCGCTTATTACCAGTTCTGTGCCAGGATCATGGTCTGACCCCGGATCAGGTGGTTGCCATCGCGTCGAACGGTGGCGGGAAACAGGCGCTGGAAACGGTGCAGCGTTTACTGCCGGTGCTGTGTCAGGATCATGGTTTAACTCCAGATCAGGTTGTGGCTATTGCATCTAACAATGGTGGCAAACAGGCATTAGAAACGGTTCAGCGTCTGCTTCCTGTATTATGCCAGGATCATGGC'
p32
aS'CTGACGCCGGATCAAGTGGTAGCAATCGCTAGTCACGATGGTGGTAAACAGGCACTGGAAACCGTACAGCGTCTGCTGCCGGTACTTTGCCAGGACCACGGGCTCACACCGGATCAGGTAGTGGCTATCGCGTCACACGATGGCGGTAAACAGGCCTTAGAGACAGTTCAGCGTCTTCTGCCGGTACTGTGCCAGGACCACGGTTTAACTCCTGACCAGGTCGTAGCTATCGCTTCGAACGGTGGTGGCAAACAAGCACTGGAAACCGTCCAACGTCTGTTGCCGGTGCTGTGCCAAGACCACGGCCTTACCCCGGATCAGGTCGTGGCCATTGCATCACACGATGGCGGTAAGCAGGCCCTGGAGACAGTGCAGCGCCTGCTGCCGGTCCTGTGTCAAGACCACGGGCTGACGCCGGATCAAGTAGTCGCAATCGCCTCAAACATTGGGGGCAAACAGGCTCTGGAAACGGTGCAGCGTTTATTACCAGTGCTGTGTCAGGATCATGGCCTGACCCCTGACCAGGTTGTGGCTATCGCCAGCAACGGTGGCGGTAAACAAGCGCTGGAAACGGTTCAACGCTTACTGCCGGTTTTATGCCAGGATCATGGCCTGACACCGGACCAAGTAGTTGCAATCGCAAGCCACGATGGCGGTAAACAAGCACTCGAAACCGTGCAACGCCTGCTGCCGGTCCTGTGCCAGGATCACGGTTTAACCCCGGATCAAGTGGTAGCGATTGCTAGTAACATTGGTGGCAAACAGGCGCTCGAAACTGTCCAGCGCCTGCTGCCGGTTCTGTGCCAAGATCATGGCTTAACCCCGGACCAGGTTGTCGCCATTGCCAGCAACAATGGCGGCAAACAGGCTTTAGAGACAGTCCAACGCCTGCTTCCGGTTCTCTGTCAGGATCATGGCTTAACACCGGATCAAGTAGTGGCGATTGCGAGCAACAATGGTGGCAAGCAGGCGTTAGAAACCGTTCAGCGCCTGTTACCAGTTTTATGTCAAGATCATGGCCTGACCCCGGATCAGGTTGTAGCCATTGCATCGAACATTGGTGGTAAACAGGCTCTGGAAACCGTTCAGCGTTTACTGCCGGTGCTGTGTCAGGACCACGGTTTAACACCAGACCAGGTGGTGGCGATTGCGTCTAACATTGGTGGTAAACAAGCCCTGGAAACTGTACAGCGCCTGTTACCTGTCTTATGCCAGGATCATGGTCTGACCCCAGATCAGGTTGTTGCGATCGCCAGCCACGATGGCGGGAAACAGGCATTAGAAACCGTCCAGCGTCTGTTGCCGGTGTTATGCCAAGACCACGGTCTGACCCCTGACCAGGTGGTTGCGATTGCGAGCAACATTGGCGGTAAGCAAGCGCTGGAGACAGTGCAGCGCTTATTACCAGTTCTGTGCCAGGATCATGGTCTGACCCCGGATCAGGTGGTTGCCATCGCGTCGAACGGTGGCGGGAAACAGGCGCTGGAAACGGTGCAGCGTTTACTGCCGGTGCTGTGTCAGGATCATGGTTTAACTCCAGACCAGGTCGTCGCTATTGCATCTAACAATGGTGGCAAACAGGCATTAGAAACGGTTCAGCGTCTGCTCCCTGTCTTATGCCAGGATCATGGC'
p33
aS'CTGACGCCGGATCAAGTGGTAGCAATCGCTAGTCACGATGGTGGTAAACAGGCGCTTGAAACCGTACAGCGTCTGCTGCCGGTATTATGCCAGGACCACGGGCTCACACCGGATCAGGTAGTGGCAATCGCGTCACACGATGGCGGCAAGCAGGCCTTAGAGACAGTTCAGCGTCTTCTGCCGGTTCTGTGCCAGGACCACGGTTTAACTCCTGACCAGGTCGTAGCTATCGCTTCGAACGGTGGTGGCAAGCAAGCACTGGAAACCGTCCAACGTCTGTTGCCGGTGCTGTGCCAAGACCACGGCCTTACACCGGATCAGGTCGTGGCCATTGCTTCACACGATGGCGGGAAGCAGGCCCTGGAGACAGTGCAGCGCCTGCTGCCGGTCCTGTGTCAAGACCACGGGCTGACGCCGGATCAAGTAGTCGCAATCGCCTCAAACATTGGGGGCAAACAGGCTCTGGAAACGGTGCAGCGTTTATTACCAGTGCTGTGTCAGGATCATGGCCTGACCCCTGACCAGGTTGTGGCTATCGCCAGCAACGGTGGCGGTAAACAAGCGCTGGAAACGGTTCAACGCTTACTGCCGGTTTTATGCCAGGATCATGGCCTGACCCCGGACCAAGTGGTTGCAATCGCAAGCCACGATGGGGGTAAACAGGCACTCGAAACCGTGCAACGCCTGCTGCCGGTCCTGTGCCAGGATCACGGTTTAACCCCGGATCAGGTGGTAGCGATTGCTAGTAACATTGGTGGCAAGCAGGCGCTCGAAACTGTCCAGCGCCTGCTGCCGGTACTGTGTCAGGATCATGGCTTAACCCCGGACCAGGTTGTCGCGATTGCCAGCAACAATGGCGGCAAACAGGCTTTAGAGACAGTGCAACGCCTGCTTCCGGTTCTCTGTCAGGATCATGGCTTAACACCGGATCAGGTCGTGGCGATTGCGAGCAACAATGGTGGCAAACAGGCGTTAGAAACCGTTCAGCGCCTGTTACCAGTTTTATGCCAAGATCATGGCCTGACCCCGGATCAAGTTGTTGCCATTGCATCGAACATTGGTGGTAAACAAGCTCTGGAAACCGTCCAGCGTTTACTGCCGGTGCTGTGCCAGGACCACGGGTTAACGCCAGACCAGGTGGTGGCGATTGCGTCTAACATTGGTGGTAAACAAGCCCTGGAAACTGTACAGCGCCTGTTACCTGTCTTATGCCAGGATCATGGTCTGACCCCAGATCAGGTTGTTGCGATCGCCAGCCACGATGGCGGGAAACAGGCATTAGAAACCGTCCAGCGTCTGTTGCCGGTGTTATGCCAAGACCACGGTCTGACCCCTGACCAGGTGGTTGCGATTGCGAGCAACATTGGCGGTAAGCAAGCGCTGGAGACAGTGCAGCGCTTATTACCAGTTCTGTGTCAGGATCATGGCCTGACCCCGGATCAGGTCGTTGCCATCGCGTCGAACGGTGGCGGGAAACAGGCGCTGGAAACGGTGCAGCGTTTACTGCCGGTGCTGTGTCAAGATCATGGTTTAACTCCAGATCAGGTTGTGGCCATTGCATCTAACAATGGTGGCAAACAGGCCTTAGAAACGGTTCAGCGTCTGCTCCCTGTATTATGCCAGGATCATGGC'
p34
aS'CTGACGCCGGATCAAGTGGTAGCAATCGCTAGTCACGATGGTGGTAAACAGGCGCTGGAAACCGTACAGCGTCTGCTGCCGGTATTATGCCAGGACCACGGGCTCACACCGGATCAGGTAGTGGCAATCGCGTCACACGATGGCGGCAAACAGGCCTTAGAGACAGTTCAGCGTCTTCTGCCGGTGCTGTGCCAGGACCACGGTTTAACTCCTGACCAGGTCGTAGCTATCGCTTCGAACGGTGGTGGCAAACAAGCACTGGAAACTGTCCAACGTCTGTTGCCGGTGCTGTGCCAAGACCACGGCCTTACACCGGATCAGGTCGTGGCCATTGCGTCACACGATGGCGGTAAGCAGGCCCTGGAGACAGTGCAGCGCCTGCTGCCGGTCCTGTGTCAGGACCACGGGCTGACGCCGGATCAAGTAGTCGCAATCGCCTCAAACATTGGGGGCAAACAGGCTCTGGAAACGGTGCAGCGTTTATTACCAGTGCTGTGTCAGGATCACGGCCTGACCCCTGACCAGGTTGTGGCGATCGCCAGCAACGGTGGCGGTAAGCAAGCGCTGGAAACGGTTCAGCGCTTACTGCCGGTTTTATGCCAGGATCATGGCCTGACACCGGACCAAGTGGTGGCAATCGCAAGCCACGATGGGGGTAAACAAGCCCTCGAAACCGTGCAACGCCTGCTGCCGGTCCTGTGCCAGGATCACGGTTTAACCCCGGATCAGGTGGTAGCCATTGCTAGTAACATTGGTGGCAAACAGGCGCTCGAAACTGTCCAGCGCCTGCTGCCGGTTCTGTGCCAGGATCATGGCTTAACCCCGGACCAGGTTGTCGCGATTGCCAGCAACAATGGCGGCAAACAGGCTTTAGAGACAGTCCAACGCCTGCTTCCGGTTCTTTGTCAGGATCATGGCTTAACACCGGATCAAGTAGTGGCGATTGCGAGCAACAATGGTGGCAAACAGGCGTTAGAAACCGTTCAGCGCCTGTTACCAGTTTTATGTCAAGATCATGGCCTGACCCCGGATCAGGTTGTTGCCATTGCATCGAACATTGGTGGTAAACAGGCTCTGGAAACCGTTCAACGTTTACTGCCGGTGCTGTGTCAGGACCACGGTTTAACACCAGACCAGGTGGTGGCGATTGCGTCTAACATTGGTGGTAAACAAGCCCTGGAAACTGTACAGCGCCTGTTACCTGTCTTATGCCAGGATCATGGTCTGACCCCAGATCAGGTTGTTGCGATCGCCAGCCACGATGGCGGGAAACAGGCATTAGAAACCGTCCAGCGTCTGTTGCCGGTGTTATGCCAAGACCACGGTCTGACCCCTGACCAGGTGGTTGCGATTGCGAGCAACATTGGCGGTAAGCAAGCGCTGGAGACAGTGCAGCGCTTATTACCAGTTCTGTGCCAGGATCATGGTCTGACCCCGGATCAGGTGGTTGCCATCGCGTCGAACGGTGGCGGGAAACAGGCGCTGGAAACGGTGCAGCGTTTACTGCCGGTGCTGTGTCAGGATCATGGTTTAACTCCAGATCAGGTTGTGGCTATTGCATCTAACAATGGTGGCAAACAGGCATTAGAAACGGTTCAGCGTCTGCTCCCTGTATTATGCCAGGATCATGGC'
p35
aS'CTGACGCCGGATCAAGTGGTAGCAATCGCTAGTCACGATGGTGGTAAACAGGCGCTTGAAACCGTACAGCGTCTGCTGCCGGTATTATGCCAGGACCACGGGCTCACACCGGATCAGGTAGTGGCAATCGCGTCACACGATGGCGGCAAGCAGGCCTTAGAGACAGTTCAGCGTCTTCTGCCGGTGCTGTGCCAGGACCACGGTTTAACTCCTGACCAGGTCGTAGCTATCGCTTCGAACGGTGGTGGCAAGCAAGCACTGGAAACCGTCCAACGTCTGTTGCCGGTGCTGTGCCAAGACCACGGCCTTACACCGGATCAGGTCGTGGCCATTGCTTCACACGATGGCGGGAAGCAGGCCCTGGAGACAGTGCAGCGCCTGCTGCCGGTCCTGTGTCAAGACCACGGGCTGACGCCGGATCAAGTAGTCGCAATCGCCTCAAACATTGGGGGCAAACAGGCTCTGGAAACGGTGCAGCGTTTATTACCAGTGCTGTGTCAGGATCATGGCCTGACCCCTGACCAGGTTGTGGCTATCGCCAGCAACGGTGGCGGTAAACAAGCGCTGGAAACGGTTCAACGCTTACTGCCGGTTTTATGCCAGGATCATGGCCTGACCCCGGACCAAGTGGTTGCAATCGCAAGCCACGATGGGGGTAAACAGGCACTCGAAACCGTGCAACGCCTGCTGCCGGTCCTGTGCCAGGATCACGGTTTAACCCCAGATCAGGTGGTAGCGATTGCTAGTAACATTGGTGGCAAACAGGCGCTCGAAACTGTCCAGCGCCTGCTGCCGGTTCTGTGCCAGGATCACGGCTTAACCCCGGACCAGGTTGTCGCGATTGCCAGCAACAATGGCGGCAAACAGGCTTTAGAGACAGTGCAACGCCTGCTTCCGGTTCTCTGTCAGGATCATGGCTTAACACCGGATCAGGTAGTGGCGATTGCGAGCAACAATGGTGGCAAACAGGCGTTAGAAACCGTTCAGCGCCTGTTACCAGTTTTATGTCAAGATCATGGCCTGACCCCGGATCAAGTTGTTGCCATTGCATCGAACATTGGTGGTAAACAGGCTCTGGAAACCGTTCAGCGTTTACTGCCGGTGCTGTGCCAGGACCACGGTTTAACGCCAGACCAGGTGGTGGCGATTGCGTCTAACATTGGTGGTAAACAAGCCCTGGAAACTGTACAGCGCCTGTTACCTGTCTTATGCCAGGATCATGGTCTGACTCCAGATCAGGTTGTTGCGATCGCCAGCCACGATGGCGGGAAACAGGCATTAGAAACCGTGCAGCGTCTGTTGCCGGTGTTATGCCAAGACCACGGTCTGACCCCTGACCAGGTGGTTGCGATCGCGAGCAACATTGGCGGTAAGCAAGCGCTGGAGACAGTGCAGCGCTTATTACCAGTTCTGTGTCAGGATCATGGTCTGACCCCGGATCAGGTGGTTGCCATCGCGTCGAACGGTGGCGGGAAACAAGCGCTGGAAACGGTGCAGCGTTTACTGCCGGTGCTGTGCCAGGATCATGGTTTAACTCCAGATCAGGTTGTCGCTATTGCTTCTAACAATGGTGGCAAACAGGCATTAGAAACGGTTCAGCGTCTGCTCCCTGTATTATGCCAGGATCATGGC'
p36
aS'CTGACGCCGGATCAAGTGGTAGCTATCGCTAGTCACGATGGTGGTAAACAGGCGCTTGAAACCGTACAGCGTCTGCTCCCGGTATTATGCCAGGACCACGGGCTCACACCGGATCAGGTAGTGGCAATCGCGTCACACGATGGCGGCAAGCAGGCCTTAGAGACAGTTCAACGTCTTCTGCCGGTGCTGTGCCAGGACCACGGTTTAACTCCTGACCAGGTCGTAGCTATCGCTTCGAACGGTGGTGGCAAACAGGCCCTGGAAACCGTCCAGCGTCTGTTGCCGGTGCTGTGCCAAGACCACGGCCTTACACCGGATCAGGTCGTGGCCATTGCATCACACGATGGCGGTAAGCAGGCCCTGGAGACAGTGCAGCGCCTGCTGCCGGTCCTGTGTCAAGACCACGGGCTGACGCCGGATCAAGTAGTCGCAATCGCCTCAAACATTGGGGGCAAGCAGGCTCTGGAAACGGTGCAGCGTTTATTACCAGTGCTGTGTCAGGATCATGGCCTGACCCCTGACCAGGTTGTGGCTATCGCCTCGAACGGTGGCGGTAAACAAGCGCTGGAAACGGTTCAACGTTTACTGCCGGTTTTATGCCAGGATCATGGCCTGACACCGGACCAAGTGGTTGCAATCGCAAGCCACGATGGGGGTAAACAAGCACTCGAAACCGTGCAACGCCTGCTGCCGGTCCTGTGCCAGGATCACGGTTTAACCCCGGATCAGGTGGTAGCCATTGCTAGTAACATTGGTGGCAAACAGGCGCTCGAAACTGTCCAGCGCCTGCTGCCGGTTCTGTGCCAGGATCATGGCTTAACGCCGGACCAGGTTGTCGCGATTGCCAGCAACAATGGCGGCAAACAGGCTTTAGAGACAGTCCAACGCCTGCTTCCGGTTCTTTGTCAGGATCATGGCTTAACACCGGATCAAGTAGTGGCGATTGCGAGCAACAATGGTGGCAAACAGGCGTTAGAAACCGTTCAGCGCCTGTTACCAGTTTTATGTCAAGATCATGGCCTGACCCCGGATCAGGTTGTTGCGATTGCATCGAACATTGGTGGTAAACAGGCTCTGGAAACCGTTCAGCGTTTACTGCCGGTGCTGTGCCAGGACCACGGTTTAACGCCAGACCAGGTGGTGGCGATTGCGTCTAACATTGGTGGTAAACAAGCCCTGGAAACTGTACAGCGCCTGTTACCTGTCTTATGCCAGGATCATGGTCTGACTCCAGATCAGGTAGTTGCGATCGCCAGCCACGATGGCGGGAAACAGGCATTAGAAACCGTCCAGCGTCTGTTGCCGGTGTTATGCCAGGACCACGGTCTGACCCCTGACCAAGTGGTTGCGATTGCGAGCAACATTGGCGGTAAGCAAGCGCTGGAGACAGTGCAGCGCTTATTACCAGTTCTGTGTCAAGATCATGGTCTGACCCCGGATCAGGTGGTTGCCATCGCGTCGAACGGTGGCGGGAAACAGGCGCTGGAAACGGTGCAGCGTTTACTGCCGGTGCTGTGTCAGGATCATGGTTTAACTCCAGATCAGGTTGTCGCTATTGCATCTAACAATGGTGGCAAACAGGCATTAGAAACGGTTCAGCGTCTGCTCCCTGTATTATGCCAGGATCATGGC'
p37
aS'CTGACGCCGGATCAAGTGGTAGCAATCGCTAGTCACGATGGTGGTAAACAGGCGCTGGAAACCGTACAGCGTCTGCTGCCGGTATTATGCCAGGACCACGGGCTCACACCGGATCAGGTCGTGGCAATCGCGTCACACGATGGCGGCAAACAGGCCTTAGAGACAGTTCAGCGTCTTCTGCCAGTGCTGTGCCAGGACCACGGTTTAACTCCTGACCAGGTCGTAGCTATCGCTTCGAACGGTGGTGGCAAACAAGCACTGGAAACTGTCCAACGTCTGTTGCCGGTGCTGTGCCAAGACCACGGCCTTACACCGGATCAGGTCGTGGCCATTGCGTCACACGATGGCGGTAAGCAGGCCCTGGAGACAGTGCAGCGCCTGCTGCCGGTCCTGTGTCAGGACCACGGGCTGACGCCGGATCAAGTAGTCGCAATCGCCTCAAACATTGGGGGCAAGCAGGCTCTGGAAACGGTGCAGCGTTTATTACCAGTGCTGTGTCAAGATCATGGCCTGACCCCTGACCAGGTTGTGGCTATCGCCAGCAACGGTGGCGGCAAACAAGCGCTGGAAACGGTTCAACGCTTACTGCCGGTTTTATGCCAGGATCATGGCCTGACACCGGACCAAGTGGTTGCAATCGCAAGCCACGATGGCGGTAAACAAGCACTCGAAACCGTGCAACGCCTGCTGCCGGTCCTGTGCCAGGATCACGGTTTAACCCCGGATCAAGTGGTAGCGATTGCTAGTAACATTGGTGGCAAACAGGCGCTCGAAACTGTCCAGCGCCTGCTGCCGGTTCTGTGTCAGGATCATGGCTTAACCCCGGACCAGGTTGTGGCGATTGCAAGCAACAATGGCGGCAAACAGGCGTTAGAGACAGTGCAACGCCTGCTTCCGGTTCTCTGTCAGGATCATGGCTTAACACCGGATCAAGTAGTGGCGATTGCGAGCAACAATGGTGGCAAACAGGCGTTAGAAACCGTTCAACGCCTGTTACCAGTTTTATGTCAAGATCATGGCCTGACCCCGGATCAGGTTGTTGCCATTGCATCGAACATTGGTGGTAAACAGGCTCTGGAAACCGTTCAGCGTTTACTGCCGGTGCTGTGCCAGGACCACGGGTTAACGCCAGACCAGGTGGTGGCGATTGCGTCGAACATTGGTGGTAAACAAGCCCTGGAAACTGTACAGCGCCTGTTACCTGTCTTATGCCAGGATCATGGTCTGACCCCAGATCAGGTTGTTGCGATCGCCAGCCACGATGGCGGGAAACAGGCATTAGAAACCGTCCAGCGTCTGTTGCCGGTGTTATGTCAAGACCACGGTCTGACCCCTGACCAGGTGGTGGCGATTGCGAGCAACATTGGCGGTAAGCAAGCCCTGGAGACAGTGCAGCGCTTATTACCAGTTCTGTGTCAAGATCATGGTCTGACCCCAGATCAGGTGGTTGCCATCGCGTCGAACGGTGGCGGGAAACAGGCGCTGGAAACGGTGCAGCGTTTACTGCCGGTGCTGTGTCAGGATCATGGTTTAACTCCAGATCAGGTTGTCGCTATTGCATCTAACAATGGTGGCAAACAGGCATTAGAAACGGTTCAGCGTCTGCTCCCTGTATTATGCCAGGATCATGGC'
p38
aS'CTGACGCCGGATCAAGTGGTAGCAATCGCTAGTCACGATGGTGGTAAACAGGCACTGGAAACCGTACAGCGTCTGCTGCCGGTACTTTGCCAGGACCACGGGCTCACACCGGATCAGGTAGTGGCAATCGCGTCACACGATGGCGGTAAACAGGCCTTAGAGACAGTTCAGCGTCTTCTGCCGGTGCTGTGCCAGGACCACGGTTTAACTCCTGACCAGGTCGTAGCTATCGCTTCGAACGGTGGTGGCAAACAAGCACTGGAAACTGTCCAACGTCTGTTGCCGGTGCTGTGCCAAGACCACGGCCTTACACCGGATCAGGTCGTGGCCATTGCGTCACACGATGGCGGTAAGCAGGCCCTGGAGACAGTGCAGCGCCTGCTGCCGGTCCTGTGCCAAGACCACGGGCTGACGCCGGATCAAGTGGTCGCTATCGCCTCAAACATTGGGGGCAAACAGGCTCTGGAAACGGTGCAGCGTTTATTACCAGTGCTCTGTCAGGATCATGGCCTGACCCCTGACCAGGTTGTGGCTATCGCCAGCAACGGTGGCGGTAAACAAGCGCTGGAAACGGTTCAACGCTTACTGCCGGTTTTATGCCAGGATCATGGCCTGACACCGGACCAAGTTGTTGCAATCGCAAGCCACGATGGGGGTAAACAAGCCCTCGAAACCGTGCAACGCCTGCTGCCGGTCCTGTGCCAGGATCACGGTTTAACCCCGGATCAGGTGGTCGCGATTGCCAGTAACATTGGTGGCAAACAGGCGCTCGAAACTGTCCAGCGCCTGCTGCCGGTTCTGTGTCAGGATCATGGCTTAACCCCGGACCAGGTTGTGGCGATTGCAAGCAACAATGGCGGCAAACAGGCTTTAGAGACAGTGCAACGCCTGCTTCCGGTTCTCTGTCAGGATCATGGCTTAACGCCGGATCAGGTCGTGGCGATTGCGAGCAACAATGGTGGCAAACAGGCGTTAGAAACCGTTCAGCGCCTGTTACCAGTTTTATGTCAAGATCATGGCCTGACCCCGGATCAGGTTGTTGCCATTGCATCGAACATTGGTGGTAAACAGGCTCTGGAAACCGTTCAGCGTTTACTGCCGGTGCTGTGCCAGGACCACGGTTTAACGCCAGACCAGGTGGTGGCGATTGCGTCTAACATTGGTGGTAAACAAGCCCTGGAAACTGTACAGCGCCTGTTACCTGTCTTATGCCAGGATCATGGTCTGACACCAGATCAGGTAGTTGCGATCGCCAGCCACGATGGCGGGAAACAGGCATTAGAAACCGTCCAGCGTCTGTTGCCGGTGTTATGCCAGGACCACGGTCTGACCCCTGACCAAGTGGTTGCGATCGCGAGCAACATTGGCGGTAAGCAAGCGCTGGAGACAGTGCAGCGCTTATTACCAGTTCTGTGTCAAGATCATGGTCTGACCCCGGATCAGGTGGTTGCCATCGCGTCGAACGGTGGCGGGAAACAGGCGCTGGAAACGGTGCAGCGTTTACTGCCGGTGCTGTGTCAGGATCATGGTTTAACTCCAGATCAGGTCGTCGCTATTGCATCTAACAATGGTGGCAAACAGGCATTAGAAACGGTTCAGCGTCTGCTCCCTGTCTTATGCCAGGATCATGGC'
p39
aS'CTGACGCCGGATCAAGTGGTAGCAATCGCTAGTCACGATGGTGGTAAACAGGCGCTGGAAACCGTACAGCGTCTGCTGCCGGTATTATGCCAGGACCACGGGCTCACACCGGATCAGGTAGTGGCAATCGCGTCACACGATGGCGGTAAACAGGCCTTAGAGACAGTTCAGCGTCTTCTGCCGGTGCTGTGCCAGGACCACGGTTTAACTCCTGACCAGGTCGTAGCGATCGCTTCGAACGGTGGTGGCAAACAAGCACTGGAAACTGTCCAACGTCTGTTGCCGGTGCTGTGCCAAGACCACGGCCTTACACCGGATCAGGTCGTGGCCATTGCGTCACACGATGGTGGTAAGCAGGCCCTGGAGACAGTGCAGCGCCTGCTGCCGGTCCTGTGTCAGGACCACGGGCTGACGCCGGATCAAGTAGTCGCCATCGCCTCAAACATTGGGGGCAAGCAGGCTCTGGAAACGGTGCAGCGTTTATTACCAGTGCTGTGTCAAGATCATGGCCTGACCCCTGACCAGGTTGTGGCTATCGCCAGCAACGGTGGCGGTAAACAAGCGCTGGAAACGGTTCAACGCTTACTGCCGGTTTTATGCCAGGATCATGGCCTGACACCGGACCAAGTGGTTGCAATCGCAAGCCACGATGGCGGTAAACAAGCACTCGAAACCGTGCAACGCCTGCTGCCGGTCCTGTGTCAGGATCACGGTTTAACCCCGGATCAAGTGGTAGCGATTGCTAGTAACATTGGTGGCAAACAGGCGCTCGAAACTGTCCAGCGCCTGCTGCCGGTTCTGTGTCAGGATCATGGCTTAACCCCGGACCAGGTTGTGGCGATTGCAAGCAACAATGGCGGCAAACAGGCGTTAGAGACAGTGCAACGCCTGCTTCCGGTTCTCTGTCAGGATCATGGCTTAACACCGGATCAAGTAGTGGCGATTGCGAGCAACAATGGTGGCAAACAGGCGTTAGAAACCGTTCAACGCCTGTTACCAGTTTTATGTCAAGATCATGGCCTGACCCCGGATCAGGTTGTTGCCATTGCATCGAACATTGGTGGTAAACAGGCTCTGGAAACCGTTCAGCGTTTACTGCCGGTGCTGTGCCAGGACCACGGTTTAACGCCAGACCAGGTGGTGGCGATTGCGTCTAACATTGGTGGTAAACAGGCCCTGGAGACTGTACAGCGCCTGTTACCTGTCTTATGCCAGGATCATGGTCTGACTCCAGATCAGGTTGTTGCGATCGCCAGCCACGATGGCGGGAAACAGGCATTAGAAACCGTCCAGCGTCTGTTGCCGGTGTTATGCCAAGACCACGGTCTGACCCCTGACCAGGTGGTTGCGATTGCGAGCAACATTGGCGGTAAGCAAGCCCTGGAGACAGTGCAGCGCTTATTACCAGTTCTGTGTCAGGATCACGGTCTGACCCCGGATCAGGTCGTTGCCATCGCGTCGAACGGTGGCGGGAAACAGGCGCTGGAAACGGTGCAGCGTTTACTGCCGGTGCTGTGTCAGGATCATGGTTTAACTCCAGATCAGGTTGTCGCTATTGCATCTAACAATGGTGGCAAACAGGCATTAGAAACGGTTCAACGTCTGCTCCCTGTATTATGCCAGGATCATGGC'
p40
aS'CTGACGCCGGATCAAGTGGTAGCAATCGCTAGTCACGATGGTGGTAAACAAGCCCTTGAAACCGTACAGCGTCTGCTGCCGGTATTATGCCAGGACCACGGGCTCACACCGGATCAGGTAGTGGCAATCGCGTCACACGATGGCGGCAAGCAGGCCTTAGAGACAGTTCAGCGTCTTCTGCCGGTGCTGTGCCAGGACCACGGTTTAACTCCTGACCAGGTCGTAGCTATCGCTTCGAACGGTGGTGGCAAGCAAGCACTGGAAACCGTCCAACGTCTGTTGCCGGTGCTGTGCCAAGACCACGGCCTTACACCGGATCAGGTCGTGGCCATTGCTTCACACGATGGCGGGAAGCAGGCCCTGGAGACAGTGCAGCGCCTGCTGCCGGTCCTGTGTCAAGACCACGGGCTGACGCCGGATCAAGTAGTCGCAATCGCCTCAAACATTGGGGGCAAACAGGCTCTGGAAACGGTGCAGCGTTTATTACCAGTGCTGTGTCAGGATCATGGCCTGACCCCTGACCAGGTTGTGGCTATCGCCAGCAACGGTGGCGGTAAACAAGCGCTGGAAACGGTTCAACGCTTACTGCCGGTTTTATGCCAGGATCATGGCCTGACCCCGGACCAAGTGGTTGCAATCGCAAGCCACGATGGGGGTAAACAGGCACTCGAAACCGTGCAACGCCTGCTGCCGGTCCTGTGCCAGGATCACGGTTTAACCCCAGATCAGGTGGTAGCGATTGCTAGTAACATTGGTGGCAAACAGGCGCTCGAAACTGTCCAGCGCCTGCTGCCGGTTCTGTGCCAGGATCACGGCTTAACCCCGGACCAGGTTGTCGCGATTGCCAGCAACAATGGCGGCAAACAGGCTTTAGAGACAGTGCAACGCCTGCTTCCGGTTCTCTGTCAGGATCATGGCTTAACACCGGATCAGGTAGTGGCGATTGCGAGCAACAATGGTGGCAAACAGGCGTTAGAAACCGTTCAGCGCCTGTTACCAGTTTTATGTCAAGATCATGGCCTGACCCCGGATCAAGTTGTTGCCATTGCATCGAACATTGGTGGTAAACAGGCTCTGGAAACCGTTCAGCGTTTACTGCCTGTGCTGTGCCAGGACCACGGTTTAACGCCAGACCAGGTGGTGGCGATTGCGTCCAACATTGGTGGTAAACAAGCCCTGGAAACTGTACAGCGCCTGTTACCTGTCTTATGCCAGGATCATGGTCTGACTCCAGATCAGGTTGTTGCGATCGCCAGCCACGATGGCGGGAAACAGGCATTAGAAACCGTCCAGCGTCTGTTGCCGGTGTTATGCCAGGACCACGGTCTGACCCCTGACCAGGTGGTGGCGATTGCGAGCAACATTGGCGGTAAGCAAGCCCTGGAGACAGTGCAGCGCTTATTACCAGTTCTGTGTCAGGATCATGGTCTGACCCCGGATCAGGTGGTTGCCATCGCGTCTAACGGTGGCGGGAAACAGGCGCTGGAAACGGTGCAACGTTTACTGCCGGTGCTGTGTCAAGATCATGGTTTGACTCCAGATCAGGTTGTCGCTATTGCATCTAACAATGGTGGCAAACAGGCATTAGAAACGGTTCAGCGTCTGCTCCCTGTATTATGCCAGGATCATGGC'
p41
aS'CTGACGCCGGATCAAGTGGTAGCAATCGCTAGTCACGATGGTGGTAAACAGGCGCTGGAAACCGTACAGCGTCTGCTGCCGGTATTATGCCAGGACCACGGGCTCACACCGGATCAGGTCGTGGCAATCGCGTCACACGATGGTGGCAAACAGGCCTTAGAGACAGTTCAGCGTCTTCTGCCTGTACTGTGCCAGGACCACGGGTTAACTCCTGACCAGGTCGTAGCCATCGCTTCGAACGGTGGTGGCAAACAAGCACTGGAAACCGTCCAACGCCTGTTGCCGGTGCTGTGCCAAGACCACGGCCTTACACCGGATCAGGTCGTGGCCATTGCATCACACGATGGCGGTAAGCAGGCCCTTGAGACAGTGCAGCGCCTGCTGCCGGTCCTGTGTCAAGACCACGGGCTGACGCCGGATCAAGTAGTCGCAATCGCCTCAAACATTGGGGGCAAACAGGCTCTGGAAACGGTGCAGCGTTTATTACCAGTGCTGTGTCAGGATCATGGCCTGACCCCTGACCAGGTTGTGGCTATCGCCAGCAACGGTGGCGGTAAACAAGCGCTGGAAACGGTTCAACGCTTACTGCCGGTTTTATGCCAGGATCATGGCCTGACACCGGACCAAGTGGTTGCAATCGCAAGCCACGATGGGGGTAAACAAGCACTCGAAACCGTCCAACGCCTGCTGCCGGTCCTGTGCCAGGATCACGGTTTAACCCCGGATCAAGTGGTAGCGATTGCTAGTAACATTGGTGGCAAACAGGCGCTCGAAACTGTCCAGCGCCTGCTGCCGGTTCTGTGCCAGGATCATGGCTTAACCCCGGACCAGGTTGTCGCGATTGCCAGCAACAATGGCGGCAAACAGGCTTTAGAGACAGTCCAACGCCTGCTTCCGGTTCTCTGTCAGGATCATGGCTTAACACCGGATCAAGTAGTGGCGATTGCGAGCAACAATGGTGGCAAACAGGCGTTAGAAACCGTTCAGCGCCTGTTACCAGTGTTATGTCAAGATCATGGCCTGACCCCGGATCAGGTTGTTGCCATTGCATCGAACATTGGTGGTAAACAGGCTCTGGAAACCGTTCAGCGTTTACTGCCGGTGCTGTGCCAGGACCACGGTTTAACGCCAGACCAGGTGGTGGCGATTGCGTCTAACATTGGTGGTAAACAAGCCCTGGAAACTGTACAACGCCTGTTACCTGTCTTATGCCAGGATCATGGTCTGACTCCAGATCAGGTTGTTGCGATCGCCAGCCACGATGGCGGGAAACAGGCATTAGAAACCGTCCAGCGTCTGTTGCCGGTGTTATGCCAAGACCACGGTCTGACCCCTGACCAGGTGGTTGCGATTGCGAGCAACATTGGCGGTAAGCAAGCGCTGGAGACAGTGCAGCGCTTATTACCAGTTCTGTGTCAGGATCACGGTCTGACCCCGGATCAGGTGGTTGCCATTGCGTCGAACGGTGGGGGGAAACAGGCGCTGGAAACGGTGCAGCGTTTACTGCCGGTACTGTGTCAGGATCATGGTTTAACTCCAGATCAGGTCGTCGCTATTGCATCTAACAATGGTGGCAAACAGGCATTAGAAACGGTTCAGCGTCTGCTCCCTGTATTATGCCAGGATCATGGC'
p42
aS'CTGACGCCGGATCAAGTGGTAGCAATCGCTAGTCACGATGGTGGTAAACAGGCGCTGGAAACCGTACAGCGTCTGCTGCCGGTATTATGCCAGGACCACGGGCTCACACCGGATCAGGTAGTGGCAATCGCGTCACACGATGGCGGCAAACAGGCCTTAGAGACAGTTCAGCGTCTTCTGCCGGTACTGTGCCAGGACCACGGTTTAACTCCTGACCAGGTCGTAGCTATCGCTTCGAACGGTGGTGGCAAGCAAGCACTGGAAACCGTCCAACGTCTGTTGCCGGTGCTGTGCCAAGACCACGGCCTTACACCGGATCAGGTCGTGGCGATTGCATCACACGATGGCGGTAAACAGGCCCTTGAGACAGTGCAGCGCCTGCTGCCGGTCCTGTGTCAAGACCACGGGCTGACGCCGGACCAAGTAGTCGCAATCGCCTCAAACATTGGGGGCAAACAGGCTCTGGAAACGGTGCAGCGTTTATTACCAGTGCTGTGTCAGGATCATGGCCTGACCCCTGACCAGGTTGTGGCTATCGCCAGCAACGGTGGCGGTAAACAAGCTCTGGAAACGGTTCAACGCTTACTGCCGGTTTTATGCCAGGATCACGGCCTGACACCGGACCAAGTGGTTGCAATCGCAAGCCACGATGGGGGTAAACAAGCCCTCGAAACCGTGCAACGCCTTCTGCCGGTCCTGTGCCAAGATCACGGTTTAACCCCGGATCAGGTGGTAGCGATTGCTAGTAACATTGGTGGCAAACAGGCGCTCGAAACTGTCCAACGCCTGCTGCCGGTTCTCTGTCAAGATCATGGCTTAACCCCGGACCAGGTTGTCGCGATTGCCAGCAACAATGGCGGCAAACAGGCTTTAGAGACAGTCCAACGCCTGCTTCCGGTTCTTTGTCAGGATCATGGCTTAACACCGGATCAAGTAGTGGCGATTGCGAGCAACAATGGTGGCAAACAGGCGTTAGAAACCGTTCAGCGCCTGTTACCAGTTTTATGTCAAGATCATGGCCTGACCCCGGATCAGGTTGTTGCCATTGCATCGAACATTGGTGGTAAACAGGCTCTGGAAACCGTTCAGCGTTTACTGCCGGTGCTGTGCCAGGACCACGGTTTAACGCCAGACCAGGTGGTGGCGATTGCGTCTAACATTGGTGGTAAACAAGCCCTGGAAACTGTACAGCGCCTGTTACCTGTCTTATGCCAGGATCATGGTCTGACTCCAGACCAGGTTGTTGCGATCGCCAGCCACGATGGCGGGAAACAGGCATTAGAAACCGTGCAGCGTCTGTTGCCGGTGTTATGCCAAGACCACGGTCTGACCCCTGACCAGGTGGTTGCGATTGCGAGCAACATTGGCGGTAAGCAAGCGCTGGAGACAGTGCAGCGCTTATTACCAGTTCTGTGTCAGGATCATGGTCTGACCCCGGATCAGGTGGTTGCCATCGCGTCGAACGGTGGCGGGAAACAGGCGCTGGAAACGGTGCAGCGTTTACTGCCGGTGCTGTGTCAGGATCATGGTTTAACTCCAGATCAGGTTGTCGCTATTGCTTCTAACAATGGTGGCAAACAGGCATTAGAAACGGTTCAGCGTCTGCTTCCTGTATTATGCCAGGATCATGGC'
p43
aS'CTGACGCCGGATCAAGTGGTAGCTATCGCTAGTCACGATGGTGGTAAACAGGCGCTGGAAACCGTACAGCGTCTGCTGCCGGTATTATGCCAGGACCACGGGCTCACACCGGATCAGGTCGTGGCAATCGCTTCACACGATGGTGGCAAACAGGCCTTAGAGACAGTTCAGCGTCTTCTGCCGGTACTGTGCCAGGACCACGGGTTAACTCCTGACCAGGTCGTAGCCATCGCTTCGAACGGTGGTGGCAAACAAGCACTGGAAACCGTCCAACGTCTGTTGCCGGTGCTGTGCCAAGACCACGGCCTTACACCGGATCAGGTCGTGGCCATTGCATCACACGATGGCGGTAAACAGGCCCTTGAGACAGTGCAGCGCCTGCTGCCGGTCCTGTGTCAAGACCACGGGCTGACGCCGGACCAAGTCGTCGCAATCGCCTCAAACATTGGGGGTAAACAGGCTCTGGAAACGGTGCAGCGTTTATTACCAGTGCTGTGTCAGGATCATGGCCTGACCCCTGACCAGGTTGTGGCTATCGCCAGCAACGGTGGCGGTAAACAAGCGCTGGAAACGGTTCAACGCTTACTGCCGGTTTTATGCCAGGATCATGGCCTGACACCGGACCAAGTGGTGGCAATCGCAAGCCACGATGGGGGCAAACAGGCTCTCGAAACCGTGCAACGCCTGCTGCCGGTCCTGTGCCAAGATCACGGTTTAACCCCGGATCAGGTGGTAGCGATTGCTTCTAACATTGGTGGCAAACAGGCGCTCGAAACTGTCCAGCGTCTGCTGCCGGTTCTGTGTCAGGATCACGGCTTAACCCCGGACCAGGTTGTCGCGATTGCCAGCAACAATGGCGGCAAACAGGCTTTAGAGACAGTGCAACGCCTGCTTCCGGTTCTCTGTCAGGATCATGGCTTAACACCGGATCAAGTAGTGGCGATTGCGAGCAACAATGGTGGCAAACAGGCGTTAGAAACCGTTCAGCGCCTGTTACCAGTTTTATGTCAAGATCATGGCCTGACCCCGGATCAGGTTGTTGCGATTGCATCGAACATTGGTGGTAAACAGGCTCTGGAAACCGTTCAGCGTTTACTGCCGGTGCTGTGCCAGGACCACGGTTTAACGCCAGACCAGGTGGTGGCGATTGCGTCTAACATTGGTGGTAAACAAGCCCTGGAAACTGTACAGCGCCTGTTACCTGTCTTATGCCAGGATCATGGTCTGACTCCAGATCAGGTAGTTGCGATCGCCAGCCACGATGGCGGGAAACAGGCATTAGAAACCGTCCAGCGTCTGTTGCCGGTGTTATGCCAGGACCACGGTCTGACCCCTGACCAAGTGGTTGCGATTGCGAGCAACATTGGCGGTAAGCAAGCGCTGGAGACAGTGCAGCGCTTATTACCAGTTCTGTGTCAAGATCATGGTCTGACCCCGGATCAGGTGGTTGCCATCGCGTCGAACGGTGGCGGGAAACAGGCGCTGGAAACGGTGCAGCGTTTACTGCCGGTGCTGTGTCAGGATCATGGTTTAACTCCAGATCAGGTTGTCGCTATTGCATCTAACAATGGTGGCAAACAGGCATTAGAAACGGTTCAGCGTCTGCTCCCTGTATTATGCCAGGATCATGGC'
p44
aS'CTGACGCCGGATCAAGTGGTAGCAATCGCTAGTCACGATGGTGGTAAACAGGCACTGGAAACCGTACAGCGTCTGCTGCCGGTATTATGCCAGGACCACGGGCTCACACCGGATCAGGTAGTGGCAATCGCGTCACACGATGGCGGCAAACAGGCCTTAGAGACAGTTCAGCGTCTTCTGCCGGTGCTGTGCCAGGACCACGGTTTAACTCCTGACCAGGTCGTAGCTATCGCTTCGAACGGTGGTGGCAAACAAGCACTGGAAACCGTCCAACGTCTGTTGCCGGTGCTGTGCCAAGACCACGGCCTTACACCGGATCAGGTCGTGGCCATTGCATCACACGATGGCGGTAAGCAAGCCCTGGAGACAGTGCAGCGCCTGCTGCCGGTCCTGTGTCAAGACCACGGGCTGACGCCGGATCAAGTAGTCGCAATCGCCTCAAACATTGGGGGCAAACAGGCTCTGGAAACGGTGCAGCGTTTATTACCAGTGCTGTGTCAGGATCATGGCCTGACCCCTGACCAGGTTGTGGCTATCGCCAGCAACGGTGGCGGTAAACAAGCGCTGGAAACGGTTCAACGCTTACTGCCGGTTTTATGCCAGGATCATGGCCTGACCCCGGACCAAGTGGTTGCAATCGCAAGCCACGATGGGGGTAAACAGGCACTCGAAACCGTGCAACGCCTGCTGCCGGTCCTGTGCCAGGATCACGGTTTGACCCCGGATCAGGTGGTAGCGATTGCTAGTAACATTGGTGGCAAACAGGCGCTCGAAACTGTCCAGCGCCTGCTGCCGGTTCTGTGCCAGGATCACGGCTTAACCCCGGATCAGGTTGTCGCGATTGCCAGCAACAATGGCGGCAAACAGGCTTTAGAGACAGTGCAACGCCTGCTTCCGGTTCTCTGTCAGGATCATGGCTTAACACCGGATCAGGTAGTGGCGATTGCGAGCAACAATGGTGGCAAACAGGCGTTAGAAACCGTTCAGCGCCTGTTACCAGTTTTATGTCAAGATCATGGCCTGACCCCGGATCAAGTTGTTGCCATTGCATCGAACATTGGTGGTAAACAGGCTCTGGAAACCGTTCAGCGCTTACTGCCGGTGCTGTGCCAGGACCACGGTTTAACGCCAGACCAGGTGGTGGCGATTGCGTCTAACATTGGTGGTAAACAAGCCCTGGAAACTGTACAGCGCCTGTTACCTGTCTTATGCCAGGATCATGGTCTGACACCAGATCAGGTAGTTGCGATCGCCAGCCACGATGGCGGGAAGCAGGCATTAGAAACCGTCCAGCGTCTGTTGCCGGTGTTATGCCAGGACCACGGTCTGACCCCTGACCAAGTGGTTGCGATTGCGAGCAACATTGGCGGTAAGCAAGCGCTGGAGACAGTGCAGCGCTTATTACCAGTTCTGTGTCAAGATCATGGTCTGACCCCGGATCAGGTGGTTGCCATCGCGTCGAACGGTGGCGGGAAACAGGCGCTGGAAACGGTGCAGCGTTTACTGCCGGTGCTGTGTCAGGATCATGGTTTAACTCCAGATCAAGTTGTGGCTATTGCATCTAACAATGGTGGCAAACAGGCATTAGAAACGGTTCAGCGTCTGCTCCCTGTATTATGCCAGGATCATGGC'
p45
aS'CTGACGCCGGATCAAGTGGTAGCAATCGCTAGTCACGATGGTGGTAAACAGGCGCTGGAAACCGTACAGCGTCTGCTGCCGGTACTTTGCCAGGACCACGGGCTCACACCGGATCAGGTAGTGGCAATCGCGTCACACGATGGCGGTAAACAGGCCTTAGAGACAGTTCAGCGTCTTCTGCCGGTGCTGTGCCAGGACCACGGTTTAACTCCTGACCAGGTCGTAGCGATCGCTTCGAACGGTGGTGGCAAACAAGCACTGGAAACTGTCCAACGTCTGTTGCCGGTGCTGTGCCAAGACCACGGCCTTACACCGGATCAGGTCGTGGCCATTGCGTCACACGATGGCGGTAAGCAGGCCCTGGAGACAGTGCAGCGCCTGCTGCCGGTCCTGTGCCAAGACCACGGGCTGACGCCGGATCAAGTGGTCGCTATCGCCTCAAACATTGGGGGCAAACAGGCTCTGGAAACGGTGCAGCGTTTATTACCAGTGCTCTGTCAGGATCATGGCCTGACCCCTGACCAGGTTGTGGCTATCGCCAGCAACGGTGGCGGTAAACAAGCGCTGGAAACGGTTCAACGCTTACTGCCGGTTTTATGCCAGGATCATGGCCTGACACCGGACCAAGTTGTTGCAATCGCAAGCCACGATGGGGGTAAACAAGCCCTCGAAACCGTGCAACGCCTGCTGCCGGTCCTGTGCCAGGATCACGGTTTAACCCCGGATCAGGTGGTAGCGATTGCCAGTAACATTGGTGGCAAACAGGCGCTCGAAACTGTCCAGCGCCTGCTGCCGGTTCTGTGTCAGGATCATGGCCTTACCCCGGACCAGGTTGTGGCGATTGCAAGCAACAATGGCGGCAAACAGGCTTTAGAGACAGTGCAACGCCTGCTTCCGGTTCTCTGTCAGGATCATGGCTTAACACCGGATCAGGTCGTGGCGATTGCGAGCAACAATGGTGGCAAACAGGCGTTAGAAACCGTTCAGCGCCTGTTACCAGTTTTATGTCAAGATCATGGCCTGACCCCGGATCAGGTTGTTGCCATTGCATCGAACATTGGTGGTAAACAGGCTCTGGAAACCGTTCAGCGTTTACTGCCGGTGCTGTGCCAGGACCACGGTTTAACGCCAGACCAGGTGGTGGCGATTGCGTCTAACATTGGTGGTAAACAAGCCCTGGAAACTGTACAGCGCCTGTTACCTGTATTATGCCAGGATCATGGTCTGACACCAGATCAGGTAGTTGCGATCGCCAGCCACGATGGCGGGAAACAGGCATTAGAAACCGTCCAGCGTCTGTTGCCGGTGTTATGCCAGGACCACGGTCTGACCCCTGACCAAGTGGTTGCGATCGCGAGCAACATTGGCGGTAAGCAAGCGCTGGAGACAGTGCAGCGCTTATTACCAGTTCTGTGTCAGGATCATGGTCTGACCCCGGATCAAGTGGTTGCCATCGCGTCGAACGGTGGCGGGAAACAGGCGCTGGAAACGGTGCAGCGTTTACTGCCGGTGCTGTGTCAGGATCATGGTTTAACTCCAGATCAGGTAGTCGCTATTGCATCTAACAATGGTGGCAAACAGGCATTAGAAACGGTTCAGCGTCTGCTCCCTGTATTATGCCAGGATCATGGC'
p46
aS'CTGACGCCGGATCAAGTAGTAGCAATCGCTAGTCACGATGGTGGTAAACAGGCGCTGGAAACCGTACAGCGTCTGCTGCCGGTATTATGCCAGGACCACGGGCTCACACCGGATCAGGTAGTGGCAATCGCGTCACACGATGGCGGCAAACAGGCCTTAGAGACAGTTCAGCGTCTTCTGCCAGTACTGTGCCAGGACCACGGTTTAACTCCTGACCAGGTCGTAGCTATCGCTTCGAACGGTGGTGGCAAACAAGCACTGGAAACCGTCCAACGTCTGTTGCCGGTGCTGTGCCAAGACCACGGCCTTACACCGGATCAGGTCGTGGCCATTGCATCACACGATGGCGGTAAGCAGGCCCTGGAGACAGTGCAGCGCCTGCTGCCGGTCCTGTGTCAAGACCACGGGCTGACGCCGGACCAAGTAGTCGCAATCGCCTCAAACATTGGGGGCAAACAGGCTCTGGAAACGGTGCAGCGTTTATTACCAGTGCTGTGTCAGGATCATGGCCTGACCCCTGACCAGGTTGTGGCTATCGCCAGCAACGGTGGCGGTAAACAAGCGCTGGAAACGGTACAACGCTTACTGCCGGTTTTATGCCAGGATCATGGCCTGACACCGGACCAAGTAGTTGCAATCGCAAGCCACGATGGGGGTAAACAAGCACTCGAAACCGTGCAACGCCTGCTGCCGGTCCTGTGCCAGGATCACGGTTTAACCCCGGATCAGGTGGTAGCGATTGCTAGTAACATTGGTGGCAAACAGGCGCTCGAAACTGTCCAGCGCCTGCTGCCGGTTCTGTGCCAGGATCACGGCTTAACCCCGGACCAGGTTGTCGCGATTGCCAGCAACAATGGCGGCAAACAGGCTTTAGAGACAGTGCAACGCCTGCTTCCGGTTCTCTGTCAGGATCATGGCTTAACACCGGATCAGGTAGTGGCGATTGCGAGCAACAATGGTGGCAAACAAGCGTTAGAAACCGTTCAGCGCCTGTTACCAGTTTTATGTCAAGATCATGGCCTGACCCCGGATCAAGTTGTTGCCATTGCATCGAACATTGGTGGTAAACAGGCTCTGGAAACCGTTCAGCGTTTACTGCCGGTGCTGTGCCAGGACCACGGTTTAACGCCAGACCAGGTGGTGGCGATTGCGTCTAACATTGGTGGCAAACAAGCCCTGGAAACTGTACAGCGCCTGTTACCTGTCTTATGCCAGGATCATGGTCTGACTCCAGACCAGGTCGTTGCGATCGCCAGCCACGATGGCGGGAAACAGGCATTAGAAACCGTCCAGCGTCTGTTGCCGGTGTTATGCCAAGACCACGGTCTGACCCCTGACCAGGTGGTTGCGATTGCGAGCAACATTGGCGGTAAGCAAGCGCTGGAGACAGTGCAGCGCTTATTACCAGTTCTGTGTCAAGATCATGGTCTGACCCCGGATCAGGTGGTTGCTATCGCGTCGAACGGTGGCGGGAAGCAGGCGCTGGAAACGGTGCAACGTTTACTGCCGGTGCTGTGTCAGGATCATGGGTTAACTCCAGATCAGGTTGTCGCTATTGCATCTAACAATGGTGGCAAACAGGCATTAGAAACGGTTCAGCGTCTGCTCCCTGTATTATGCCAGGATCATGGC'
p47
aS'CTGACGCCGGATCAAGTGGTAGCAATCGCTAGTCACGATGGTGGTAAACAGGCGCTTGAAACCGTACAGCGTCTGCTGCCGGTATTATGCCAGGACCACGGGCTCACACCGGATCAGGTAGTGGCAATCGCGTCACACGATGGCGGCAAACAGGCCTTAGAGACAGTTCAGCGTCTTCTGCCGGTGCTGTGCCAGGACCACGGTTTAACTCCTGACCAGGTCGTAGCTATCGCTTCGAACGGTGGTGGCAAACAAGCACTGGAAACCGTCCAACGTCTGTTGCCGGTGCTGTGCCAAGACCACGGTCTTACACCGGATCAGGTCGTGGCCATTGCATCACACGATGGCGGTAAGCAGGCCCTGGAGACAGTGCAGCGCCTGCTGCCGGTCCTGTGTCAAGACCACGGGCTGACGCCGGATCAAGTAGTCGCAATCGCCTCAAACATTGGGGGCAAACAGGCTCTGGAAACGGTGCAGCGTTTATTACCAGTGCTGTGTCAGGATCATGGCCTGACCCCTGACCAGGTTGTGGCTATCGCCAGCAACGGTGGCGGTAAGCAAGCGCTGGAAACGGTTCAGCGCTTACTGCCGGTTTTATGCCAGGATCATGGCCTGACACCGGACCAAGTAGTTGCAATCGCAAGCCACGATGGGGGTAAACAAGCACTCGAAACCGTGCAACGCCTGCTGCCGGTCCTGTGCCAGGATCACGGTTTAACCCCGGATCAGGTGGTGGCGATTGCTAGTAACATTGGTGGCAAACAGGCGCTCGAAACTGTCCAGCGCCTGCTGCCGGTTCTGTGCCAGGATCATGGCTTAACCCCGGACCAGGTTGTCGCCATTGCCAGCAACAATGGCGGCAAACAGGCTTTAGAGACAGTCCAACGCCTGCTTCCGGTTCTCTGTCAGGATCATGGCTTAACACCGGATCAAGTAGTGGCGATTGCGAGCAACAATGGTGGCAAACAGGCGTTAGAAACCGTTCAGCGCCTGTTACCAGTTTTATGCCAAGATCATGGCCTGACCCCGGATCAGGTTGTTGCGATTGCATCGAACATTGGTGGTAAACAGGCTCTGGAAACCGTACAGCGTTTACTGCCGGTGCTGTGCCAGGACCACGGTTTAACGCCAGACCAGGTGGTGGCGATTGCGTCTAACATTGGTGGTAAACAGGCCCTGGAGACTGTACAGCGCCTGTTACCTGTCTTATGCCAGGATCATGGTCTGACTCCAGACCAGGTCGTTGCGATCGCCAGCCACGATGGCGGGAAACAGGCATTAGAAACCGTCCAACGTCTGTTGCCGGTGTTATGCCAAGACCACGGTCTGACCCCTGACCAGGTGGTTGCGATTGCGAGCAACATTGGCGGTAAGCAAGCGCTGGAGACAGTGCAGCGCTTATTACCAGTTCTGTGTCAGGATCACGGTCTGACCCCGGATCAGGTCGTTGCCATCGCGTCGAACGGTGGCGGGAAACAGGCGCTGGAAACGGTGCAGCGTTTACTGCCGGTGCTGTGCCAGGATCATGGTTTAACTCCAGATCAGGTTGTCGCTATTGCATCTAACAATGGCGGCAAACAGGCATTAGAAACGGTTCAGCGTCTGCTCCCTGTATTATGCCAGGATCATGGC'
p48
aS'CTGACGCCGGATCAAGTGGTAGCAATCGCTAGTCACGATGGTGGTAAACAGGCGCTGGAAACCGTACAGCGTCTGCTGCCGGTATTATGTCAGGACCACGGGCTCACACCGGATCAAGTAGTGGCAATCGCGTCACACGATGGCGGCAAACAGGCCTTAGAGACAGTTCAGCGTCTTCTGCCGGTACTGTGCCAGGACCACGGTTTAACTCCTGACCAGGTCGTAGCTATCGCTTCGAACGGTGGTGGCAAACAGGCACTGGAAACTGTCCAACGTCTGTTGCCGGTGCTGTGCCAAGACCACGGCCTTACCCCGGATCAGGTCGTGGCCATTGCATCACACGATGGCGGTAAGCAGGCCCTGGAGACAGTGCAGCGCCTGCTGCCGGTCCTGTGTCAAGACCACGGGCTGACGCCGGATCAAGTAGTCGCAATCGCCTCAAACATTGGGGGCAAACAGGCTCTGGAAACGGTGCAGCGTTTATTACCAGTGCTGTGTCAGGATCATGGCCTGACCCCTGACCAGGTTGTGGCTATCGCCAGCAACGGTGGCGGTAAACAAGCGCTGGAAACGGTTCAACGCTTACTGCCGGTTTTATGCCAGGATCACGGCCTGACACCGGACCAAGTAGTTGCAATCGCAAGCCACGATGGCGGTAAACAAGCACTCGAAACCGTGCAACGCCTGCTGCCGGTCCTGTGCCAGGATCACGGTTTAACCCCGGATCAAGTGGTAGCGATTGCTAGTAACATTGGTGGCAAACAGGCGCTCGAAACTGTCCAGCGCTTACTGCCGGTTCTGTGTCAGGATCATGGCTTAACCCCGGACCAGGTTGTCGCGATTGCCAGCAACAATGGCGGCAAACAGGCTTTAGAGACAGTGCAACGCCTGCTTCCGGTTCTCTGTCAGGATCATGGCTTAACACCGGATCAGGTAGTGGCGATTGCGAGCAACAATGGTGGCAAACAGGCGTTAGAAACCGTTCAGCGCCTGTTACCAGTTTTATGTCAAGATCATGGCCTGACCCCGGATCAAGTTGTTGCCATTGCATCGAACATTGGTGGTAAACAGGCTCTGGAAACCGTTCAGCGTTTACTGCCTGTGCTGTGCCAGGACCACGGTTTAACGCCAGACCAGGTGGTGGCGATTGCGTCCAACATTGGTGGTAAACAAGCCCTGGAAACTGTACAGCGCCTGTTACCTGTCTTATGCCAGGATCATGGTCTGACTCCAGATCAGGTTGTTGCGATCGCCAGCCACGATGGCGGGAAACAGGCATTAGAAACCGTCCAGCGTCTGTTGCCGGTGTTATGCCAGGACCACGGTCTGACCCCTGACCAGGTGGTGGCGATTGCGAGCAACATTGGCGGTAAGCAAGCCCTGGAGACAGTGCAGCGCTTATTACCAGTTCTGTGTCAGGATCATGGTCTGACCCCGGATCAGGTGGTTGCCATCGCGTCTAACGGTGGCGGGAAACAGGCGCTGGAAACGGTGCAACGTTTACTGCCGGTGCTGTGTCAAGATCATGGTTTAACTCCAGATCAGGTTGTCGCTATTGCCTCTAACAATGGTGGCAAACAGGCATTAGAAACGGTTCAGCGTCTGCTCCCTGTATTATGCCAGGATCATGGC'
p49
aS'CTGACGCCGGATCAAGTGGTAGCAATCGCTAGTCACGATGGTGGTAAACAGGCGCTGGAAACCGTACAGCGTCTGCTGCCGGTATTATGTCAGGACCACGGGCTCACACCGGATCAAGTAGTGGCAATCGCGTCACACGATGGCGGCAAACAGGCCTTAGAGACAGTTCAGCGTCTTCTGCCGGTACTGTGCCAGGACCACGGTTTAACTCCTGACCAGGTCGTAGCTATCGCTTCGAACGGTGGTGGCAAACAGGCACTGGAAACCGTCCAACGTCTGTTGCCGGTGCTGTGCCAAGACCACGGTCTTACACCGGATCAGGTCGTGGCCATTGCATCACACGATGGCGGTAAGCAGGCCCTGGAGACAGTGCAGCGCCTGCTGCCGGTCCTGTGTCAGGACCACGGGCTGACGCCGGATCAAGTAGTCGCCATCGCCTCAAACATTGGGGGCAAACAGGCTCTGGAAACGGTGCAGCGTCTTTTACCAGTGCTGTGTCAAGATCATGGCCTGACCCCTGACCAGGTTGTGGCTATCGCCAGCAACGGTGGCGGTAAACAAGCGCTGGAAACGGTTCAACGCTTACTGCCGGTTTTATGCCAGGATCATGGGCTGACACCGGACCAAGTGGTGGCAATCGCAAGCCACGATGGGGGTAAACAAGCCCTCGAAACCGTGCAACGCCTGCTGCCGGTCCTGTGCCAGGATCACGGTTTAACCCCGGATCAGGTGGTAGCCATTGCGAGTAACATTGGTGGCAAACAGGCGCTCGAAACTGTCCAGCGCCTGCTGCCGGTTCTGTGCCAGGATCATGGCTTAACCCCGGATCAGGTTGTCGCGATTGCCAGCAACAATGGCGGCAAACAGGCTTTAGAGACAGTGCAACGCCTGCTTCCGGTTCTCTGTCAGGATCATGGCTTAACACCGGATCAGGTCGTGGCGATTGCGAGCAACAATGGTGGCAAACAGGCGTTAGAAACCGTTCAGCGCCTGTTACCAGTTTTATGTCAAGATCATGGCCTGACCCCGGATCAGGTTGTTGCCATTGCATCGAACATTGGTGGTAAACAGGCTCTGGAAACCGTTCAGCGTTTACTGCCGGTCCTGTGCCAGGACCACGGTTTAACGCCAGACCAGGTGGTGGCGATTGCGTCTAACATTGGTGGTAAACAAGCCCTGGAAACTGTACAGCGCCTGTTACCTGTCTTATGCCAGGATCATGGTCTGACACCAGATCAGGTTGTTGCGATCGCCAGCCACGATGGCGGGAAACAGGCATTAGAAACCGTCCAGCGTCTGTTGCCGGTGTTATGCCAAGACCACGGTCTGACCCCTGACCAGGTGGTTGCGATTGCGAGCAACATTGGCGGTAAGCAAGCCCTGGAGACAGTGCAGCGCTTATTACCAGTTCTGTGTCAGGATCACGGTCTGACCCCGGATCAGGTCGTTGCCATCGCGTCGAACGGTGGCGGGAAACAGGCGCTGGAAACGGTGCAGCGTTTACTCCCGGTGCTGTGTCAGGATCATGGTTTAACTCCAGATCAGGTTGTCGCTATTGCATCTAACAATGGTGGCAAACAGGCATTAGAAACGGTTCAGCGTCTGCTCCCTGTATTATGCCAGGATCATGGC'
p50
aS'CTGACGCCGGATCAAGTGGTAGCAATCGCTAGTCACGATGGTGGTAAACAGGCACTGGAAACCGTACAGCGTCTGCTGCCGGTACTTTGCCAGGACCACGGGCTCACACCGGATCAGGTAGTGGCTATCGCGTCACACGATGGCGGTAAACAGGCCTTAGAGACAGTTCAGCGTCTTCTGCCGGTACTGTGCCAGGACCACGGTTTAACTCCTGACCAGGTCGTAGCTATCGCTTCGAACGGTGGTGGCAAGCAAGCACTGGAAACCGTCCAACGTCTGTTGCCGGTGCTGTGCCAAGACCACGGCCTTACACCGGATCAGGTCGTGGCCATTGCATCGCACGATGGCGGTAAGCAGGCCCTGGAGACAGTGCAGCGCCTGCTGCCGGTCCTGTGTCAAGACCACGGGCTGACGCCGGATCAAGTAGTCGCCATCGCCTCAAACATTGGGGGCAAACAGGCTCTGGAAACGGTGCAGCGTTTATTACCAGTGCTGTGTCAAGATCATGGCCTGACCCCAGACCAGGTTGTGGCTATCGCCAGCAACGGTGGCGGTAAACAAGCGCTGGAAACGGTTCAACGCTTACTGCCGGTTTTATGCCAGGATCATGGGCTGACACCGGACCAAGTGGTGGCAATCGCAAGCCACGATGGGGGTAAACAAGCCCTCGAAACCGTGCAACGCCTGCTGCCGGTCTTATGCCAGGATCACGGTTTAACCCCGGATCAGGTGGTAGCGATTGCCAGTAACATTGGTGGCAAACAGGCGCTCGAAACTGTCCAGCGCCTGCTGCCGGTTCTGTGTCAGGATCATGGCTTAACCCCGGACCAGGTTGTGGCGATTGCAAGCAACAATGGCGGCAAACAGGCTTTAGAGACAGTGCAACGCCTGCTTCCGGTTCTCTGTCAGGATCATGGCTTAACACCGGATCAGGTCGTGGCGATTGCGAGCAACAATGGTGGCAAACAGGCGTTAGAAACCGTTCAGCGCCTGTTACCAGTTTTATGTCAAGATCATGGCCTGACCCCGGATCAGGTTGTTGCGATTGCATCGAACATTGGTGGTAAACAGGCTCTGGAAACCGTTCAGCGTTTACTGCCGGTGCTGTGCCAGGACCACGGTTTAACGCCAGACCAGGTGGTGGCGATTGCGTCTAACATTGGTGGTAAACAAGCCCTGGAAACTGTACAGCGCCTGTTACCTGTCTTATGCCAGGATCATGGTCTGACTCCAGATCAGGTAGTTGCGATCGCCAGCCACGATGGCGGGAAACAGGCATTAGAAACCGTCCAGCGTCTGTTGCCGGTGTTATGCCAGGACCACGGTCTGACCCCTGACCAAGTGGTTGCGATTGCGAGCAACATTGGCGGTAAGCAAGCGCTGGAGACAGTGCAGCGCTTATTACCAGTTCTGTGTCAAGATCATGGTCTGACCCCGGATCAGGTGGTTGCCATCGCGTCGAACGGTGGCGGGAAACAGGCGCTGGAAACGGTGCAGCGTTTACTGCCGGTGCTGTGTCAGGATCATGGTTTAACTCCAGATCAGGTTGTCGCTATTGCATCTAACAATGGTGGCAAACAGGCATTAGAAACGGTTCAGCGTCTGCTCCCTGTATTATGCCAGGATCATGGC'
p51
aS'CTGACGCCGGATCAAGTGGTAGCAATCGCTAGTCACGATGGTGGTAAACAGGCGCTGGAAACCGTACAGCGTCTGCTGCCGGTATTATGCCAGGACCACGGGCTTACACCGGATCAGGTAGTGGCAATCGCGTCACACGATGGCGGCAAACAGGCCTTAGAGACTGTTCAGCGTCTTCTGCCGGTACTGTGCCAGGACCACGGTTTAACTCCTGACCAGGTCGTAGCTATTGCTTCGAACGGTGGTGGCAAGCAAGCACTGGAAACCGTCCAACGTCTGTTGCCGGTGCTGTGTCAAGACCACGGCCTCACACCGGATCAGGTCGTGGCCATTGCTTCACACGATGGCGGGAAGCAGGCCCTGGAGACAGTGCAGCGCCTGCTGCCGGTCCTGTGTCAAGACCACGGGCTGACGCCGGATCAAGTAGTCGCTATCGCCTCAAACATTGGGGGCAAACAGGCTCTGGAAACGGTGCAGCGTTTATTACCAGTGCTCTGTCAGGATCATGGCCTGACCCCTGACCAGGTTGTGGCTATCGCCAGCAACGGTGGCGGTAAACAAGCCCTGGAAACGGTTCAACGCTTACTGCCGGTTTTATGCCAGGATCACGGCCTGACACCGGACCAAGTTGTTGCAATCGCAAGCCACGATGGGGGTAAACAAGCCCTCGAAACCGTGCAACGCCTGCTGCCGGTCCTGTGCCAGGATCACGGTTTAACCCCGGATCAGGTGGTAGCCATTGCGAGTAACATTGGTGGCAAACAGGCGCTCGAAACTGTCCAGCGCCTGCTGCCGGTTCTGTGCCAGGATCATGGCTTAACCCCGGATCAGGTTGTCGCGATTGCCAGCAACAATGGCGGCAAGCAGGCTTTAGAGACAGTCCAACGCCTGCTTCCGGTTCTCTGTCAGGATCATGGCTTAACACCGGATCAAGTAGTGGCGATTGCGAGCAACAATGGTGGCAAACAGGCGTTAGAAACCGTTCAGCGCCTGTTACCAGTTTTATGTCAAGATCATGGCCTGACCCCGGATCAGGTTGTTGCCATTGCATCGAACATTGGTGGTAAACAGGCTCTGGAAACCGTTCAGCGTTTACTGCCGGTGCTGTGCCAGGACCACGGTTTAACGCCAGACCAGGTGGTGGCGATTGCGTCTAACATTGGTGGTAAACAAGCCCTGGAAACTGTACAGCGCCTGTTACCTGTCTTATGCCAGGATCATGGTCTGACTCCAGACCAGGTCGTTGCGATCGCCAGCCACGATGGCGGGAAACAGGCATTAGAAACCGTCCAGCGTCTGTTGCCGGTGTTATGCCAAGACCACGGTCTGACCCCTGACCAGGTGGTTGCGATTGCGAGCAACATTGGCGGTAAACAAGCGCTGGAGACAGTGCAGCGCTTATTACCAGTTCTGTGTCAAGATCATGGTCTGACCCCGGATCAGGTGGTTGCTATCGCGTCGAACGGTGGCGGGAAGCAGGCGCTGGAAACGGTGCAACGTTTACTGCCGGTGCTGTGTCAGGATCATGGGTTAACTCCAGATCAGGTTGTCGCTATTGCATCTAACAATGGTGGCAAACAGGCATTAGAAACGGTTCAGCGTCTGCTCCCTGTATTATGCCAGGATCATGGC'
p52
aS'CTGACGCCGGATCAAGTGGTAGCAATCGCTAGTCACGATGGTGGTAAACAAGCGCTGGAAACCGTACAGCGTCTGCTGCCGGTATTATGCCAGGACCACGGGCTCACACCGGATCAGGTCGTGGCAATCGCGTCACACGATGGCGGCAAACAGGCCTTAGAAACAGTTCAGCGTCTTCTGCCGGTGCTGTGCCAGGACCACGGTTTAACTCCTGACCAGGTCGTAGCTATCGCTTCGAACGGTGGTGGCAAGCAGGCACTGGAAACCGTCCAACGTCTGTTGCCGGTGCTGTGCCAAGACCACGGCCTTACGCCGGATCAGGTCGTGGCCATTGCATCACACGATGGCGGTAAACAGGCCCTGGAGACAGTGCAGCGCCTGCTGCCGGTCCTGTGTCAAGACCACGGGCTGACACCGGATCAAGTAGTCGCCATCGCCTCAAACATTGGGGGCAAACAGGCTCTGGAAACGGTGCAGCGTTTATTACCAGTGCTGTGTCAAGATCATGGCCTGACCCCTGACCAAGTTGTGGCTATCGCCAGCAACGGTGGCGGTAAACAAGCGCTGGAAACGGTTCAACGCTTACTGCCGGTTTTATGCCAGGATCATGGGCTGACACCGGACCAAGTGGTTGCAATCGCAAGCCACGATGGGGGTAAGCAAGCACTCGAAACCGTACAACGCCTGCTGCCGGTCCTGTGCCAGGATCACGGTTTAACCCCGGATCAAGTGGTAGCCATTGCAAGTAACATTGGTGGCAAACAGGCGCTCGAAACTGTCCAGCGCTTACTGCCGGTTCTGTGTCAGGATCATGGCTTAACCCCGGACCAGGTTGTCGCGATTGCCAGCAACAATGGCGGCAAACAGGCTTTAGAGACAGTGCAACGCCTGCTTCCGGTTCTCTGTCAGGATCATGGCTTAACACCGGATCAAGTAGTGGCGATTGCGAGCAACAATGGTGGCAAACAGGCGTTAGAAACCGTTCAACGCCTGTTACCAGTTTTATGTCAAGATCATGGCCTGACCCCGGATCAGGTTGTTGCCATTGCATCGAACATTGGTGGTAAACAGGCTCTGGAAACCGTTCAGCGTTTACTGCCGGTGCTGTGCCAGGACCACGGTTTAACGCCAGACCAGGTGGTGGCGATTGCGTCTAACATTGGTGGTAAACAAGCCCTGGAAACTGTACAGCGCCTGTTACCTGTCTTATGCCAGGATCATGGTCTGACTCCAGACCAGGTCGTTGCGATCGCCAGCCACGATGGCGGGAAACAGGCATTAGAAACCGTCCAGCGTCTGTTGCCGGTGTTATGCCAAGACCACGGTCTGACCCCTGACCAGGTGGTTGCGATTGCGAGCAACATTGGCGGTAAGCAAGCGTTGGAGACAGTGCAGCGCTTATTACCAGTTCTGTGTCAGGATCACGGTCTGACCCCGGATCAGGTGGTTGCCATCGCGTCGAACGGTGGCGGGAAACAGGCGCTGGAAACGGTGCAGCGTTTACTGCCGGTGCTGTGTCAGGATCATGGTTTAACTCCAGATCAGGTTGTCGCTATTGCTTCTAACAATGGTGGCAAACAGGCTTTAGAAACGGTTCAGCGTCTGCTCCCTGTATTATGCCAGGATCATGGC'
p53
aS'CTGACGCCGGATCAAGTGGTAGCTATCGCTAGTCACGATGGTGGTAAACAGGCGCTTGAAACCGTACAGCGTCTGCTCCCGGTATTATGCCAGGACCACGGGCTCACACCGGATCAGGTAGTGGCAATCGCGTCACACGATGGCGGCAAGCAGGCCTTAGAGACAGTTCAGCGTCTTCTGCCGGTGCTGTGCCAGGATCACGGTTTAACTCCTGACCAGGTCGTAGCTATCGCTTCGAACGGTGGTGGCAAACAGGCCCTGGAAACGGTCCAGCGTCTGTTGCCGGTGCTGTGCCAAGACCACGGCCTTACACCGGATCAGGTCGTGGCCATTGCATCACACGATGGCGGTAAGCAGGCCCTGGAGACAGTGCAGCGCCTGCTGCCGGTCCTGTGTCAAGACCACGGGCTGACGCCGGATCAAGTAGTCGCAATCGCCTCAAACATTGGGGGCAAACAGGCTCTGGAAACGGTGCAGCGTTTATTACCAGTGCTGTGTCAGGATCATGGCCTGACCCCTGACCAGGTTGTGGCTATCGCCAGCAACGGTGGCGGTAAACAAGCGCTGGAAACGGTTCAACGCTTACTGCCGGTTTTATGCCAGGATCATGGGCTGACACCGGACCAAGTGGTTGCAATCGCAAGCCACGATGGGGGTAAGCAAGCACTCGAAACCGTGCAACGCCTGCTGCCGGTCCTGTGCCAGGATCACGGTTTAACCCCGGATCAAGTGGTAGCCATTGCAAGTAACATTGGTGGCAAACAGGCGCTCGAAACTGTCCAGCGCTTACTGCCAGTTCTGTGTCAGGATCATGGCTTAACCCCGGACCAGGTTGTCGCGATTGCCAGCAACAATGGCGGCAAACAGGCTTTAGAGACAGTGCAACGCCTGCTTCCGGTTCTCTGTCAGGATCATGGCTTAACACCGGATCAAGTAGTGGCGATTGCGAGCAACAATGGTGGCAAACAGGCGTTAGAAACCGTTCAACGCCTGTTACCAGTTTTATGTCAAGATCATGGCCTGACCCCGGATCAGGTTGTTGCCATTGCATCGAACATTGGTGGTAAACAGGCTTTGGAAACCGTTCAGCGTTTACTGCCGGTGCTGTGCCAGGACCACGGGTTAACGCCAGACCAGGTGGTGGCGATTGCGTCTAACATTGGTGGTAAACAAGCCCTGGAAACTGTACAGCGCCTGTTACCTGTCTTATGCCAGGATCATGGTCTGACCCCAGATCAGGTTGTTGCGATCGCCAGCCACGATGGCGGGAAACAGGCATTAGAAACCGTCCAGCGTCTGTTGCCGGTGTTATGCCAAGACCACGGTCTGACCCCTGACCAGGTGGTTGCGATTGCGAGCAACATTGGCGGTAAGCAAGCGCTGGAGACAGTGCAGCGCTTATTACCAGTTCTGTGTCAGGATCATGGTCTGACCCCGGATCAGGTCGTTGCCATCGCGTCGAACGGTGGCGGGAAACAGGCGCTGGAAACGGTGCAGCGTTTACTGCCGGTGCTGTGTCAGGATCATGGTTTAACTCCAGATCAGGTTGTCGCTATTGCATCTAACAATGGTGGCAAACAGGCATTAGAAACGGTTCAGCGTCTGCTCCCTGTATTATGCCAGGATCATGGC'
p54
aS'CTGACGCCGGATCAAGTGGTAGCAATCGCTAGTCACGATGGTGGTAAACAGGCGCTTGAAACCGTACAGCGTCTGCTGCCGGTATTATGCCAGGACCACGGGCTCACACCGGATCAGGTAGTGGCAATCGCGTCACACGATGGCGGCAAACAGGCCTTAGAGACAGTTCAGCGTCTTCTGCCGGTGCTGTGCCAGGACCACGGTTTAACTCCTGACCAGGTCGTAGCTATCGCTTCGAACGGTGGTGGCAAACAAGCACTTGAAACTGTCCAACGTCTGTTGCCGGTGCTGTGCCAAGACCACGGCCTGACCCCGGATCAGGTCGTGGCCATTGCATCACACGATGGCGGTAAGCAGGCCCTGGAGACAGTGCAGCGCCTGCTGCCGGTCCTGTGTCAAGACCACGGGCTGACGCCGGATCAAGTAGTCGCAATCGCCTCAAACATTGGGGGCAAACAGGCTCTGGAAACGGTGCAGCGTTTATTACCAGTGCTGTGTCAGGATCATGGCCTGACCCCTGACCAGGTTGTGGCTATCGCCAGCAACGGTGGCGGTAAACAAGCGCTGGAAACGGTTCAACGCTTACTGCCGGTTTTATGCCAGGATCATGGCCTGACACCGGACCAAGTAGTTGCAATCGCAAGCCACGATGGCGGTAAACAAGCACTCGAAACCGTGCAACGCCTGCTGCCGGTCCTGTGCCAGGATCACGGTTTAACCCCGGATCAGGTGGTAGCGATTGCTTCTAACATTGGTGGCAAACAGGCGCTCGAAACTGTCCAGCGTCTGCTGCCGGTTCTGTGTCAGGATCACGGCTTAACCCCGGACCAGGTTGTCGCGATTGCCAGCAACAATGGCGGCAAACAGGCTTTAGAGACAGTGCAACGCCTGCTTCCGGTTCTCTGCCAGGATCATGGCTTAACACCGGATCAGGTGGTGGCGATTGCGAGCAACAATGGTGGCAAACAGGCGTTAGAAACCGTTCAGCGCCTGTTACCAGTTCTGTGTCAAGATCATGGCCTGACCCCGGATCAGGTTGTTGCCATTGCATCGAACATTGGTGGTAAACAGGCTCTGGAAACCGTTCAGCGTTTACTGCCGGTGCTGTGCCAGGACCACGGTTTAACGCCAGACCAGGTGGTGGCGATTGCGTCTAACATTGGTGGTAAACAAGCCCTGGAAACTGTACAGCGCCTGTTACCTGTCTTATGCCAGGATCATGGTCTGACACCGGATCAGGTAGTTGCGATCGCCAGCCACGATGGCGGGAAACAGGCATTAGAAACCGTCCAGCGTCTGTTGCCGGTGTTATGCCAGGACCACGGTCTGACCCCTGACCAAGTGGTTGCGATCGCGAGCAACATTGGCGGTAAGCAAGCGCTGGAGACAGTGCAGCGCTTATTACCAGTTCTGTGTCAAGATCATGGTCTGACCCCGGATCAGGTGGTTGCCATCGCGTCGAACGGTGGCGGGAAACAGGCGCTGGAAACGGTGCAGCGTTTACTGCCGGTGCTGTGTCAGGATCATGGTTTAACTCCAGATCAGGTTGTGGCTATTGCATCTAACAATGGTGGCAAACAGGCATTAGAAACGGTTCAGCGTCTGCTCCCTGTATTATGCCAGGATCATGGC'
p55
aS'CTGACGCCGGATCAAGTGGTAGCAATCGCTAGTCACGATGGTGGTAAACAGGCACTGGAAACCGTACAGCGTCTGCTGCCGGTACTTTGCCAGGACCACGGGCTCACACCGGATCAGGTAGTGGCTATCGCGTCACACGATGGCGGCAAACAGGCCTTAGAGACTGTTCAGCGTCTTCTGCCGGTACTGTGCCAGGACCACGGTTTAACTCCTGACCAGGTCGTAGCTATCGCTTCGAACGGTGGTGGCAAGCAAGCACTGGAAACCGTCCAACGTCTGTTGCCGGTGCTGTGCCAAGACCACGGCCTTACACCGGATCAGGTCGTGGCCATTGCATCACACGATGGCGGTAAACAGGCCCTTGAGACAGTGCAGCGCCTGCTGCCGGTCCTGTGTCAAGACCACGGGCTGACGCCGGACCAAGTAGTCGCAATCGCCTCAAACATTGGGGGTAAACAGGCTCTGGAAACGGTGCAGCGTTTATTACCAGTGCTGTGTCAGGATCATGGCCTGACCCCTGACCAGGTTGTGGCTATCGCCAGCAACGGTGGCGGTAAACAAGCGCTGGAAACGGTTCAACGCTTACTGCCGGTTTTATGCCAGGATCATGGCCTGACACCGGACCAAGTGGTGGCAATCGCAAGCCACGATGGGGGCAAACAGGCTCTCGAAACCGTGCAACGCCTGCTGCCGGTCCTGTGCCAAGATCACGGTTTAACCCCGGATCAGGTGGTAGCGATTGCTTCTAACATTGGTGGCAAACAGGCGCTCGAAACTGTCCAGCGTCTGCTGCCGGTTCTGTGTCAGGATCACGGCTTAACCCCGGACCAGGTTGTCGCGATTGCCAGCAACAATGGCGGCAAACAGGCTTTAGAGACAGTGCAACGCCTGCTTCCGGTTCTCTGTCAGGATCATGGCTTAACACCGGATCAAGTCGTTGCGATTGCGAGCAACAATGGTGGCAAACAGGCGTTAGAAACCGTTCAGCGCCTGTTACCAGTTTTATGTCAAGATCATGGCCTGACCCCGGATCAGGTTGTTGCGATTGCATCGAACATTGGTGGTAAACAGGCTCTGGAAACCGTTCAGCGTTTACTGCCGGTGCTGTGCCAGGACCACGGTTTAACGCCAGACCAGGTGGTGGCGATTGCGTCTAACATTGGTGGTAAACAAGCCCTGGAAACTGTACAGCGCCTGTTACCTGTCTTATGCCAGGATCATGGTCTGACTCCAGATCAGGTTGTTGCGATCGCCAGCCACGATGGCGGGAAACAGGCATTAGAAACCGTCCAGCGTCTGTTGCCGGTGTTATGCCAGGACCACGGTCTGACCCCTGACCAGGTGGTGGCGATTGCGAGCAACATTGGCGGTAAGCAAGCCCTGGAGACAGTGCAGCGCTTATTACCAGTTCTGTGTCAGGATCATGGTCTGACCCCGGATCAGGTGGTTGCCATCGCGTCTAACGGTGGCGGGAAACAGGCGCTGGAAACGGTGCAACGTTTACTGCCGGTGCTGTGTCAAGATCATGGTTTAACTCCAGATCAGGTTGTCGCTATTGCATCTAACAATGGTGGCAAACAGGCATTAGAAACGGTTCAGCGTCTGCTCCCTGTATTATGCCAGGATCATGGC'
p56
aS'CTGACGCCGGATCAAGTGGTAGCAATCGCTAGTCACGATGGTGGTAAACAGGCGCTGGAAACCGTACAGCGTCTGCTGCCGGTATTATGCCAGGACCACGGGCTCACACCGGATCAGGTCGTGGCAATCGCGTCACACGATGGTGGCAAACAGGCCTTAGAGACAGTTCAACGTCTTCTGCCGGTACTGTGCCAGGACCACGGGTTAACTCCTGACCAGGTCGTAGCCATCGCTTCGAACGGTGGTGGCAAACAAGCACTGGAAACCGTCCAACGCCTGTTGCCGGTGCTGTGCCAAGACCACGGCCTTACACCGGATCAGGTCGTGGCCATTGCATCACACGATGGCGGTAAGCAGGCCCTTGAGACAGTGCAGCGCCTGCTGCCGGTCCTGTGTCAAGACCACGGGCTGACGCCGGATCAAGTAGTCGCAATCGCCTCAAACATTGGGGGCAAACAGGCTCTGGAAACGGTGCAGCGTTTATTACCAGTGCTGTGTCAGGATCATGGCCTGACCCCTGACCAGGTTGTGGCTATCGCCAGCAACGGTGGCGGTAAACAAGCGCTGGAAACGGTTCAACGCTTACTGCCGGTTTTATGCCAGGATCATGGCCTGACACCGGACCAAGTGGTTGCAATCGCAAGCCACGATGGGGGTAAACAAGCACTCGAAACCGTCCAACGCCTGCTGCCGGTCCTGTGCCAGGATCACGGTTTAACCCCGGATCAAGTGGTAGCGATTGCTAGTAACATTGGTGGCAAACAGGCGCTCGAAACTGTCCAGCGCCTGCTGCCGGTTCTGTGCCAGGATCACGGCTTAACCCCGGACCAGGTTGTCGCGATTGCCAGCAACAATGGCGGCAAACAGGCTTTAGAGACAGTCCAACGCCTGCTTCCGGTTCTTTGTCAGGATCATGGCTTAACACCGGATCAAGTAGTGGCTATTGCGAGCAACAATGGTGGCAAACAGGCGTTAGAAACCGTTCAGCGCCTGTTACCAGTTTTATGTCAAGATCATGGCCTGACCCCGGATCAGGTTGTTGCCATTGCATCGAACATTGGTGGTAAACAGGCTCTGGAAACCGTTCAGCGTTTACTGCCGGTGCTGTGCCAGGACCACGGTTTAACGCCAGACCAGGTGGTGGCGATTGCGTCTAACATTGGTGGTAAACAAGCCCTGGAAACTGTACAGCGCCTGTTACCTGTCTTATGCCAGGATCATGGTCTGACACCAGATCAGGTAGTTGCGATCGCCAGCCACGATGGCGGGAAACAGGCATTAGAAACCGTCCAGCGTCTGTTGCCGGTGTTATGCCAAGACCACGGTCTGACCCCTGACCAGGTGGTTGCGATTGCGAGCAACATTGGCGGTAAGCAAGCGCTGGAGACAGTGCAGCGCTTATTACCAGTTCTGTGTCAGGATCACGGTCTGACCCCGGATCAGGTCGTTGCCATCGCGTCGAACGGTGGCGGGAAACAGGCGCTGGAAACGGTGCAGCGTTTACTGCCGGTGCTGTGTCAGGATCATGGTTTAACTCCAGATCAGGTTGTCGCTATTGCATCTAACAATGGTGGCAAGCAGGCATTAGAAACGGTTCAACGTCTGCTCCCTGTATTATGCCAGGATCATGGC'
p57
aS'CTGACGCCGGATCAAGTGGTAGCAATCGCTAGTCACGATGGTGGTAAACAAGCGCTGGAAACCGTACAGCGTCTGCTGCCGGTATTATGCCAGGACCACGGGCTCACACCGGATCAGGTAGTGGCAATCGCGTCACACGATGGCGGCAAACAGGCCTTAGAGACAGTTCAGCGTCTTCTGCCGGTGCTGTGCCAGGACCACGGTTTAACTCCTGACCAGGTCGTAGCTATCGCTTCGAACGGTGGTGGCAAACAAGCACTGGAAACTGTCCAACGTCTGTTGCCGGTGCTGTGCCAAGACCACGGCCTTACACCGGATCAGGTCGTGGCCATTGCGTCACACGATGGCGGTAAGCAGGCCCTGGAGACAGTGCAGCGCCTGCTCCCTGTCCTGTGTCAGGACCACGGGCTGACGCCGGATCAAGTAGTCGCAATCGCCTCAAACATTGGGGGCAAGCAGGCTCTGGAAACGGTGCAGCGTTTATTACCAGTGCTGTGTCAGGATCATGGCTTGACCCCTGACCAGGTTGTGGCTATCGCCAGCAACGGTGGCGGTAAACAAGCGCTGGAAACGGTTCAACGCTTACTGCCGGTTTTATGCCAGGATCATGGCCTGACACCGGACCAAGTGGTTGCAATCGCAAGCCACGATGGCGGTAAACAAGCACTCGAAACCGTGCAACGCCTGCTGCCGGTCCTGTGCCAGGATCACGGCTTAACCCCGGATCAAGTGGTAGCGATTGCTAGTAACATTGGTGGCAAACAGGCGCTCGAAACTGTCCAGCGCCTGCTGCCGGTTCTGTGCCAGGATCATGGCTTAACCCCGGACCAGGTTGTCGCCATTGCCAGCAACAATGGCGGCAAACAGGCTTTAGAGACAGTACAACGCCTGCTTCCGGTTCTCTGTCAGGATCATGGCTTAACACCGGATCAAGTAGTGGCGATTGCGAGCAACAATGGTGGCAAACAGGCGTTAGAAACCGTTCAGCGCCTGTTACCAGTTTTATGCCAAGATCATGGCCTGACCCCGGATCAGGTTGTTGCGATTGCATCGAACATTGGTGGTAAACAGGCTCTGGAAACCGTTCAGCGTTTACTGCCGGTGCTGTGCCAGGACCACGGTTTAACGCCAGACCAGGTGGTGGCGATTGCGTCTAACATTGGTGGTAAACAGGCCCTGGAGACTGTACAGCGCCTGTTACCTGTCTTATGCCAGGATCATGGTCTGACTCCAGATCAGGTTGTTGCGATCGCCAGCCACGATGGCGGGAAACAGGCATTAGAAACCGTCCAGCGTCTGTTGCCGGTGTTATGCCAAGACCACGGTCTGACCCCTGACCAGGTGGTTGCGATTGCGAGCAACATTGGCGGTAAGCAAGCCCTGGAGACAGTGCAGCGCTTATTACCAGTTCTGTGTCAGGATCATGGTCTGACCCCGGATCAGGTGGTTGCCATCGCGTCGAACGGTGGCGGGAAACAGGCGCTGGAAACGGTGCAGCGTTTACTGCCGGTGCTGTGTCAGGATCATGGTCTGACTCCAGATCAGGTCGTCGCTATTGCATCTAACAATGGTGGCAAACAGGCGTTAGAAACGGTGCAGCGTCTGCTCCCTGTATTATGCCAGGATCATGGC'
p58
aS'CTGACGCCGGATCAAGTGGTAGCTATCGCTAGTCACGATGGTGGTAAACAGGCGCTTGAAACCGTACAGCGTCTGCTGCCGGTATTATGCCAGGACCACGGGCTCACACCGGATCAGGTAGTGGCAATCGCGTCACACGATGGCGGCAAGCAGGCCTTAGAGACAGTTCAGCGTCTTCTGCCGGTCCTGTGCCAGGACCACGGTTTAACTCCTGACCAGGTCGTAGCGATCGCTTCGAACGGTGGTGGCAAACAAGCACTGGAAACTGTCCAACGTCTGTTGCCGGTGCTGTGCCAAGACCACGGCCTTACACCGGATCAGGTCGTGGCCATTGCGTCACACGATGGCGGTAAGCAGGCCCTGGAGACAGTGCAGCGCCTGCTGCCGGTCCTGTGCCAAGACCACGGGCTGACGCCGGATCAAGTGGTCGCTATCGCCTCAAACATTGGGGGCAAACAGGCTCTGGAAACGGTGCAGCGTTTATTACCAGTGCTCTGTCAGGATCATGGCCTGACCCCTGACCAGGTTGTGGCTATCGCCAGCAACGGTGGCGGTAAACAAGCGCTGGAAACGGTTCAACGCTTACTGCCGGTTTTATGCCAGGATCATGGCCTGACACCGGACCAAGTTGTTGCAATCGCAAGCCACGATGGGGGTAAACAAGCCCTCGAAACCGTGCAACGCCTGCTGCCGGTCCTGTGCCAGGATCACGGTTTAACCCCGGATCAGGTGGTAGCGATTGCCAGTAACATTGGTGGCAAACAGGCGCTCGAAACTGTCCAGCGCCTGCTGCCGGTTCTGTGTCAGGATCATGGCTTAACCCCGGACCAGGTTGTGGCGATTGCAAGCAACAATGGCGGCAAACAGGCTTTAGAGACAGTGCAACGCCTGCTTCCGGTTCTCTGTCAGGATCATGGCTTAACACCGGATCAGGTCGTGGCGATTGCGAGCAACAATGGTGGCAAACAGGCGTTAGAAACCGTTCAGCGCCTGTTACCAGTTTTATGTCAAGATCATGGCCTGACCCCGGATCAGGTTGTTGCCATTGCATCGAACATTGGTGGTAAACAGGCTCTGGAAACCGTTCAGCGTTTACTGCCGGTGCTGTGCCAGGACCACGGTTTAACGCCAGACCAGGTGGTGGCGATTGCGTCTAACATTGGTGGTAAACAAGCCCTGGAAACTGTACAGCGCCTGTTACCTGTATTATGCCAGGATCATGGTCTGACACCAGATCAGGTAGTTGCGATCGCCAGCCACGATGGCGGGAAACAGGCATTAGAAACCGTCCAGCGTCTGTTGCCGGTGTTATGCCAGGACCACGGTCTGACCCCTGACCAAGTGGTTGCGATCGCGAGCAACATTGGCGGTAAGCAAGCGCTGGAGACAGTGCAGCGCTTATTACCAGTTCTGTGTCAGGATCATGGTCTGACCCCGGATCAAGTGGTTGCCATCGCGTCGAACGGTGGCGGGAAACAGGCGCTGGAAACGGTGCAGCGTTTACTGCCGGTGCTGTGTCAGGATCATGGTTTAACTCCAGATCAGGTAGTCGCTATTGCATCTAACAATGGTGGCAAACAGGCATTAGAAACGGTTCAGCGTCTGCTCCCTGTATTATGCCAGGATCATGGC'
p59
aS'CTGACGCCGGATCAAGTGGTAGCAATCGCTAGTCACGATGGTGGTAAACAGGCACTGGAAACCGTACAGCGTCTGCTGCCGGTACTTTGCCAGGACCACGGGCTCACACCGGATCAGGTAGTGGCAATCGCGTCACACGATGGCGGTAAACAGGCCTTAGAGACAGTTCAGCGTCTTCTGCCGGTGCTGTGCCAGGACCACGGTTTAACTCCTGACCAGGTCGTAGCTATCGCTTCGAACGGTGGTGGCAAACAGGCACTGGAAACCGTCCAACGTCTGTTGCCGGTGCTGTGCCAAGACCACGGCCTTACACCGGATCAGGTCGTGGCCATTGCGTCACACGATGGCGGTAAGCAGGCCCTGGAGACAGTGCAGCGCCTGCTGCCGGTCCTGTGTCAGGACCACGGGCTGACGCCGGATCAAGTAGTCGCAATCGCCTCAAACATTGGGGGCAAACAGGCTCTGGAAACGGTGCAGCGTTTATTACCAGTGCTGTGTCAGGATCACGGCCTGACCCCTGACCAGGTTGTGGCGATCGCCAGCAACGGTGGCGGTAAGCAAGCGCTGGAAACGGTTCAGCGCTTACTGCCGGTTTTATGCCAGGATCATGGCCTGACACCGGACCAAGTGGTGGCAATCGCAAGCCACGATGGGGGTAAACAAGCACTCGAAACCGTGCAACGCCTGCTGCCGGTCCTGTGCCAGGATCACGGTTTAACCCCGGATCAGGTGGTAGCCATTGCTAGTAACATTGGTGGCAAACAGGCGCTCGAAACTGTCCAGCGCCTGCTGCCGGTTCTGTGCCAGGATCACGGCTTAACCCCGGACCAGGTTGTCGCGATTGCCAGCAACAATGGCGGCAAACAGGCTTTAGAGACAGTGCAACGCCTGCTTCCGGTTCTCTGTCAGGATCATGGCTTAACACCGGATCAGGTAGTGGCGATTGCCAGCAACAATGGTGGCAAGCAGGCGTTAGAAACCGTTCAGCGCCTGTTACCAGTTCTGTGTCAAGATCATGGCCTGACCCCGGATCAGGTTGTTGCTATTGCATCTAACATTGGGGGCAAACAGGCTCTGGAAACCGTTCAGCGTTTACTGCCGGTGCTGTGCCAGGACCACGGGTTAACGCCAGACCAGGTGGTGGCCATTGCGTCTAACATTGGTGGTAAACAAGCCCTGGAAACTGTACAGCGCCTGTTACCTGTCTTATGCCAGGATCATGGTCTGACCCCAGATCAAGTTGTTGCGATCGCCAGCCACGATGGCGGGAAACAGGCATTAGAAACCGTCCAGCGTCTGTTGCCGGTGTTATGCCAAGACCACGGTCTGACCCCTGACCAGGTGGTTGCGATTGCGAGCAACATTGGCGGTAAGCAAGCGCTGGAGACAGTGCAGCGCTTATTACCAGTTCTGTGTCAGGATCATGGTCTGACCCCGGATCAGGTCGTTGCCATCGCGTCGAACGGTGGCGGGAAACAGGCGCTGGAAACGGTGCAGCGTTTACTGCCGGTGCTGTGTCAGGATCATGGTTTAACTCCAGATCAGGTTGTCGCTATTGCATCTAACAATGGTGGCAAACAGGCATTAGAAACGGTTCAGCGTCTGCTCCCTGTATTATGCCAGGATCATGGC'
p60
aS'CTGACGCCGGATCAAGTGGTAGCAATCGCTAGTCACGATGGTGGTAAACAGGCGCTTGAAACCGTACAGCGTCTGCTGCCGGTACTCTGCCAGGACCACGGGCTCACACCGGATCAGGTAGTGGCAATCGCGTCACACGATGGCGGCAAACAGGCCTTAGAGACAGTTCAGCGTCTTCTGCCGGTGCTGTGCCAGGACCACGGTTTAACTCCTGACCAGGTCGTAGCTATCGCTTCGAACGGTGGTGGCAAACAAGCACTGGAAACCGTCCAACGTCTGTTGCCGGTGCTGTGCCAAGACCACGGCCTTACACCGGATCAGGTCGTGGCCATTGCATCACACGATGGCGGTAAACAGGCCCTTGAGACAGTGCAGCGCCTGCTGCCGGTCCTGTGTCAAGACCACGGGCTGACGCCGGATCAAGTAGTCGCAATCGCCAGCAACATTGGGGGCAAGCAGGCTCTGGAAACGGTGCAGCGTTTATTACCAGTGCTGTGTCAGGATCATGGCCTGACCCCTGACCAGGTTGTGGCTATCGCCAGCAACGGTGGCGGTAAACAAGCTCTGGAAACGGTTCAACGCTTACTGCCGGTTTTATGCCAGGATCACGGCCTGACACCGGACCAAGTGGTTGCAATCGCAAGCCACGATGGGGGTAAACAAGCCCTCGAAACCGTGCAACGCCTTCTGCCGGTCCTGTGCCAAGATCACGGTTTAACCCCGGATCAGGTGGTAGCGATTGCTAGTAACATTGGTGGCAAACAGGCGCTCGAAACTGTCCAGCGCCTGCTGCCGGTTCTGTGTCAGGATCATGGCTTAACCCCGGACCAGGTTGTCGCGATTGCCAGCAACAATGGCGGCAAACAGGCTTTAGAGACAGTCCAACGCCTGCTTCCGGTTCTTTGTCAGGATCATGGCTTAACACCGGATCAAGTAGTGGCGATTGCGAGCAACAATGGTGGCAAACAGGCGTTAGAAACCGTTCAGCGCCTGTTACCAGTTTTATGTCAAGATCATGGCCTGACCCCGGATCAGGTTGTTGCCATTGCATCGAACATTGGTGGTAAACAGGCTCTGGAAACCGTTCAGCGTTTACTGCCGGTGCTGTGCCAGGACCACGGTTTAACGCCAGACCAGGTGGTGGCGATTGCGTCTAACATTGGTGGTAAACAAGCCCTGGAAACTGTACAGCGCCTGTTACCTGTTTTATGCCAGGATCATGGTCTGACCCCAGATCAGGTTGTTGCGATCGCCAGCCACGATGGCGGGAAACAGGCATTAGAAACCGTCCAACGTCTGTTGCCGGTGTTATGCCAAGACCACGGTCTGACCCCTGACCAGGTGGTTGCGATTGCGAGCAACATTGGCGGTAAGCAAGCGCTGGAGACAGTGCAGCGCTTATTACCAGTTCTGTGTCAGGATCATGGTCTGACCCCGGATCAGGTCGTTGCCATCGCGTCGAACGGTGGCGGGAAACAGGCGCTGGAAACGGTGCAGCGTTTACTGCCGGTGCTGTGTCAGGATCATGGTTTAACTCCAGATCAGGTTGTCGCTATTGCTTCTAACAATGGTGGCAAACAGGCATTAGAAACGGTTCAGCGTCTGCTTCCTGTATTATGCCAGGATCACGGC'
p61
aS'CTGACGCCGGATCAAGTAGTAGCAATCGCTAGTCACGATGGTGGTAAACAGGCGCTGGAAACCGTACAGCGTCTGCTGCCGGTATTATGCCAGGACCACGGGCTCACACCGGATCAGGTAGTGGCGATCGCGTCACACGATGGCGGCAAACAGGCCTTAGAGACAGTTCAGCGTCTTCTGCCGGTGCTGTGCCAGGACCACGGTTTAACTCCTGACCAGGTCGTAGCTATCGCTTCGAACGGTGGTGGCAAACAAGCACTGGAAACCGTCCAACGTCTGTTGCCGGTGCTGTGCCAAGACCACGGCCTTACACCGGATCAGGTCGTGGCCATTGCATCACACGATGGCGGTAAACAGGCCCTGGAGACAGTGCAGCGCCTGCTGCCGGTCCTGTGTCAAGACCACGGGCTGACGCCGGACCAAGTAGTCGCAATCGCCTCAAACATTGGGGGCAAACAGGCTCTGGAAACGGTGCAGCGTTTATTACCAGTGCTGTGCCAGGATCATGGCCTGACCCCTGACCAGGTTGTGGCTATCGCCAGCAACGGTGGCGGTAAACAAGCGCTGGAAACGGTTCAACGCTTACTGCCGGTTTTATGCCAGGATCATGGCCTGACACCGGACCAAGTGGTTGCAATCGCAAGCCACGATGGGGGTAAACAAGCACTCGAAACCGTGCAACGCCTGCTGCCGGTCCTGTGCCAGGATCACGGTTTAACCCCGGATCAGGTGGTAGCGATTGCTAGTAACATTGGTGGCAAGCAGGCGCTCGAAACTGTCCAGCGCCTGCTGCCGGTTCTGTGCCAGGATCATGGCTTAACCCCGGATCAGGTTGTCGCGATTGCCAGCAACAATGGCGGCAAGCAGGCTTTAGAGACAGTCCAACGCCTGCTTCCGGTTCTCTGTCAGGATCATGGCTTAACACCGGATCAAGTAGTGGCGATTGCGAGCAACAATGGTGGCAAACAGGCGTTAGAAACCGTTCAGCGCCTGTTACCAGTTTTATGTCAAGATCATGGCCTGACCCCGGATCAGGTTGTTGCCATTGCATCGAACATTGGTGGTAAACAGGCTCTGGAAACCGTTCAGCGTTTACTGCCGGTGCTGTGCCAGGACCACGGTTTAACGCCAGACCAGGTGGTGGCGATTGCGTCTAACATTGGTGGTAAACAAGCCCTGGAAACTGTACAGCGCCTGTTACCTGTCTTATGCCAGGATCATGGTCTGACTCCAGACCAGGTTGTTGCGATCGCCAGCCACGATGGCGGGAAACAGGCATTAGAAACCGTCCAGCGTCTGTTGCCGGTGTTATGCCAAGACCACGGTCTGACCCCTGACCAGGTGGTTGCGATCGCGAGCAACATTGGCGGTAAGCAAGCGCTGGAGACAGTGCAGCGCTTATTACCAGTTCTGTGTCAAGATCATGGTCTGACCCCGGATCAGGTGGTTGCGATCGCGTCGAACGGTGGCGGGAAGCAGGCGCTGGAAACGGTGCAACGTTTACTGCCGGTGCTGTGTCAGGATCATGGGTTAACTCCAGATCAGGTTGTCGCTATTGCATCTAACAATGGTGGCAAACAGGCATTAGAAACGGTTCAGCGTCTGCTCCCTGTATTATGCCAGGATCATGGC'
p62
aS'CTGACGCCGGATCAAGTGGTAGCAATCGCTAGTCACGATGGTGGTAAACAGGCGCTGGAAACCGTACAGCGTCTGCTGCCGGTATTATGTCAGGACCACGGGCTCACACCGGATCAAGTAGTGGCAATCGCGTCACACGATGGCGGCAAACAGGCCTTAGAGACAGTTCAGCGTCTTCTGCCGGTACTGTGCCAGGACCACGGTTTAACTCCTGACCAGGTCGTAGCTATCGCTTCGAACGGTGGTGGCAAACAGGCACTGGAAACCGTCCAACGTCTGTTGCCGGTGCTGTGCCAAGACCACGGTTTGACACCGGATCAGGTCGTGGCCATTGCATCACACGATGGCGGTAAGCAGGCCCTGGAGACAGTGCAGCGCCTGCTGCCGGTCCTGTGTCAAGACCACGGGCTGACGCCGGATCAAGTAGTCGCAATCGCCTCAAACATTGGGGGCAAACAGGCTCTGGAAACGGTGCAGCGTTTATTACCAGTGCTGTGTCAGGATCATGGCCTGACCCCTGACCAGGTTGTGGCTATCGCCAGCAACGGTGGCGGTAAGCAAGCGCTGGAAACGGTTCAGCGCTTACTGCCGGTTTTATGCCAGGATCATGGCCTGACACCGGACCAAGTGGTTGCAATCGCAAGCCACGATGGGGGTAAACAAGCACTCGAAACCGTGCAACGCCTGCTGCCGGTCCTGTGCCAGGATCACGGTTTAACCCCGGATCAAGTGGTCGCGATTGCTAGTAACATTGGTGGCAAACAGGCGCTCGAAACTGTCCAGCGCCTGCTGCCGGTTCTGTGCCAGGATCATGGCTTAACCCCGGACCAGGTTGTCGCCATTGCCAGCAACAATGGCGGCAAACAGGCTTTAGAGACAGTACAACGCCTGCTTCCGGTTCTCTGTCAGGATCATGGCTTAACACCGGATCAAGTAGTGGCGATTGCGAGCAACAATGGTGGCAAACAGGCGTTAGAAACCGTTCAGCGCCTGTTACCAGTTTTATGCCAAGATCATGGCCTGACCCCGGATCAGGTTGTTGCGATTGCATCGAACATTGGTGGTAAACAGGCTCTGGAAACCGTCCAGCGTTTACTGCCGGTGCTGTGCCAGGACCACGGGTTAACGCCAGACCAGGTGGTGGCGATTGCGTCTAACATTGGTGGTAAACAAGCCCTGGAAACTGTACAGCGCCTGTTACCTGTCTTATGCCAGGATCATGGTCTGACCCCAGATCAGGTTGTTGCGATCGCCAGCCACGATGGCGGGAAACAGGCATTAGAAACCGTCCAGCGTCTGTTGCCGGTGTTATGTCAAGACCACGGTCTGACCCCTGACCAGGTGGTGGCGATTGCGAGCAACATTGGCGGTAAGCAAGCCCTGGAGACAGTGCAGCGCTTATTACCAGTTCTGTGTCAAGATCATGGTCTGACCCCAGATCAGGTGGTTGCCATCGCGTCGAACGGTGGCGGGAAACAGGCGCTGGAAACGGTGCAGCGTTTACTGCCGGTGCTGTGTCAGGATCATGGTTTAACTCCAGATCAGGTTGTCGCTATTGCATCTAACAATGGTGGCAAACAGGCATTAGAAACGGTTCAGCGTCTGCTCCCTGTATTATGCCAGGATCATGGC'
p63
aS'CTGACGCCGGATCAAGTGGTAGCAATCGCTAGTCACGATGGTGGTAAACAGGCGCTGGAAACCGTACAGCGTCTGCTGCCGGTATTATGCCAGGACCACGGGCTCACACCGGATCAGGTAGTGGCAATCGCGTCACACGATGGCGGCAAACAGGCCTTAGAGACAGTTCAGCGTCTTCTGCCGGTGCTGTGCCAGGACCACGGTTTAACTCCTGACCAGGTCGTAGCTATCGCTTCGAACGGTGGTGGCAAACAAGCACTGGAAACTGTCCAACGTCTGTTGCCGGTGCTGTGCCAAGACCACGGCCTTACACCGGATCAGGTCGTGGCCATTGCGTCACACGATGGCGGTAAGCAGGCCCTGGAGACAGTGCAGCGCCTGCTCCCTGTCCTGTGTCAGGACCACGGGCTGACGCCGGATCAAGTAGTCGCAATCGCCTCAAACATTGGGGGCAAGCAGGCTCTGGAAACGGTGCAGCGTTTATTACCAGTGCTGTGTCAGGATCATGGCCTGACCCCTGACCAGGTTGTGGCTATCGCCAGCAACGGTGGCGGTAAACAAGCGCTGGAAACGGTTCAACGCTTACTGCCGGTTTTATGCCAGGATCATGGCCTGACACCGGACCAAGTGGTTGCAATCGCAAGCCACGATGGCGGTAAACAAGCACTCGAAACCGTGCAACGCCTGCTGCCGGTCCTGTGCCAGGATCACGGTTTAACCCCGGATCAGGTGGTAGCCATTGCTAGTAACATTGGTGGCAAACAGGCGCTCGAAACTGTCCAGCGCCTGCTGCCTGTTCTGTGCCAGGATCATGGCTTAACCCCGGACCAGGTTGTCGCGATTGCCAGCAACAATGGCGGCAAACAGGCTTTAGAGACAGTCCAACGCCTGCTTCCGGTTCTCTGTCAGGATCATGGCTTAACACCGGATCAAGTAGTGGCGATTGCGAGCAACAATGGTGGCAAACAGGCGTTAGAAACCGTTCAGCGCCTGTTACCAGTGTTATGTCAAGATCATGGCCTGACCCCGGATCAGGTTGTTGCCATTGCATCGAACATTGGTGGTAAACAGGCTCTGGAAACCGTTCAGCGTTTACTGCCGGTGCTGTGCCAGGACCACGGTTTAACGCCAGACCAGGTGGTGGCGATTGCGTCTAACATTGGTGGTAAACAAGCCCTGGAAACTGTACAACGCCTGTTACCTGTCTTATGCCAGGATCATGGTCTGACTCCAGATCAGGTTGTTGCGATCGCCAGCCACGATGGCGGGAAACAGGCATTAGAAACCGTCCAGCGTCTGTTGCCGGTGTTATGCCAAGACCACGGTCTGACCCCTGACCAGGTGGTTGCGATTGCGAGCAACATTGGCGGTAAGCAAGCGCTGGAGACAGTGCAGCGCTTATTACCAGTTCTGTGTCAGGATCATGGTCTGACCCCGGATCAGGTGGTTGCCATTGCGTCGAACGGTGGGGGGAAACAGGCGCTGGAAACGGTGCAGCGTTTACTGCCGGTACTGTGTCAGGATCATGGTTTAACTCCAGATCAGGTCGTCGCTATTGCATCTAACAATGGTGGCAAACAGGCATTAGAAACGGTCCAACGTCTGCTCCCTGTATTATGCCAGGATCATGGC'
p64
aS'CTGACGCCGGATCAAGTGGTAGCTATCGCTAGTCACGATGGTGGTAAACAGGCGCTTGAAACCGTACAGCGTCTGCTCCCGGTATTATGCCAGGACCACGGGCTCACACCGGATCAGGTAGTGGCAATCGCGTCACACGATGGCGGCAAGCAGGCCTTAGAGACAGTTCAACGTCTTCTGCCGGTGCTGTGCCAGGACCACGGTTTAACTCCTGACCAGGTCGTAGCTATCGCTTCGAACGGTGGTGGCAAACAGGCCCTGGAAACCGTCCAGCGTCTGTTGCCGGTGCTGTGCCAAGACCACGGCCTTACACCGGATCAGGTCGTGGCCATTGCATCACACGATGGCGGTAAGCAGGCCCTGGAGACAGTGCAGCGCCTGCTGCCGGTCCTGTGTCAAGACCACGGGCTGACGCCGGATCAAGTAGTCGCAATCGCCTCAAACATTGGGGGCAAGCAGGCTCTGGAAACGGTGCAGCGTTTATTACCAGTGCTGTGTCAGGATCATGGCCTGACCCCTGACCAGGTTGTGGCTATCGCCAGCAACGGTGGCGGTAAACAAGCGCTGGAAACGGTTCAACGTTTACTGCCGGTTTTATGCCAGGATCATGGCCTGACACCGGACCAAGTGGTTGCAATCGCAAGCCACGATGGGGGTAAACAAGCACTCGAAACCGTGCAACGCCTGCTGCCGGTCCTGTGCCAGGATCACGGTTTAACCCCGGATCAGGTGGTAGCCATTGCTAGTAACATTGGTGGCAAACAGGCGCTCGAAACTGTCCAGCGCCTGCTGCCGGTTCTGTGCCAGGATCATGGCTTAACGCCGGACCAGGTTGTCGCGATTGCCAGCAACAATGGCGGCAAACAGGCTTTAGAGACAGTCCAACGCCTGCTTCCGGTTCTTTGTCAGGATCATGGCTTAACACCGGATCAAGTAGTGGCGATTGCGAGCAACAATGGTGGCAAACAGGCGTTAGAAACCGTGCAGCGCCTGTTACCAGTTTTATGTCAAGATCATGGCCTGACCCCGGATCAGGTTGTTGCCATTGCATCGAACATTGGTGGTAAACAGGCTCTGGAAACCGTTCAGCGTTTACTGCCGGTGCTGTGCCAGGACCACGGTTTAACGCCAGACCAGGTGGTGGCGATTGCGTCTAACATTGGTGGTAAACAAGCCCTGGAAACTGTACAGCGCCTGTTACCTGTCTTATGCCAGGATCATGGTCTGACCCCAGATCAGGTTGTTGCGATCGCCAGCCACGATGGCGGGAAACAGGCATTAGAAACCGTCCAGCGTCTGTTGCCGGTGTTATGTCAAGACCACGGTCTGACCCCTGACCAGGTGGTGGCGATTGCGAGCAACATTGGCGGTAAGCAAGCCCTGGAGACAGTGCAGCGCTTATTACCAGTTCTTTGTCAAGATCATGGTCTGACCCCAGATCAGGTGGTTGCCATCGCGTCGAACGGTGGCGGGAAACAGGCGCTGGAAACGGTGCAGCGTTTACTGCCAGTGCTGTGTCAGGATCATGGTTTAACTCCAGATCAGGTTGTGGCTATTGCATCTAACAATGGTGGCAAACAGGCATTAGAAACGGTTCAGCGTCTGCTCCCTGTATTATGCCAGGATCATGGC'
p65
aS'CTGACGCCGGATCAAGTGGTAGCAATCGCTAGTCACGATGGTGGTAAACAGGCGCTGGAAACCGTACAGCGTCTGCTGCCGGTATTATGCCAGGACCACGGGCTCACACCGGATCAGGTAGTGGCAATCGCGTCACACGATGGCGGCAAACAGGCCTTAGAGACAGTTCAGCGTCTTCTGCCGGTGCTGTGCCAGGACCACGGTTTAACTCCTGACCAGGTCGTAGCTATCGCCTCGAACGGTGGTGGCAAACAAGCACTGGAAACTGTCCAACGTCTGTTGCCGGTGCTGTGCCAAGACCACGGCCTTACACCGGATCAGGTCGTGGCCATTGCGTCACACGATGGCGGTAAGCAGGCCCTGGAGACAGTGCAGCGCCTGCTGCCGGTCCTGTGTCAGGACCACGGGCTGACGCCGGATCAAGTAGTCGCAATCGCCTCAAACATTGGGGGCAAACAGGCTCTGGAAACGGTGCAGCGTTTATTACCAGTGCTGTGTCAGGATCACGGCCTGACCCCTGACCAGGTTGTGGCGATCGCCAGCAACGGTGGCGGTAAGCAAGCGCTGGAAACGGTTCAACGCTTACTGCCGGTTTTATGCCAGGATCATGGCCTGACACCGGACCAAGTGGTTGCAATCGCAAGCCACGATGGGGGTAAGCAAGCACTCGAAACCGTGCAACGCTTACTGCCGGTCCTGTGCCAGGATCACGGTTTAACCCCGGATCAAGTGGTAGCCATTGCAAGTAACATTGGTGGCAAACAGGCGCTCGAAACTGTCCAGCGCTTACTGCCGGTTCTGTGTCAGGATCATGGCTTAACCCCGGACCAGGTTGTCGCGATTGCCAGCAACAATGGCGGCAAACAGGCTTTAGAGACAGTGCAACGCCTGCTTCCGGTTCTCTGTCAGGATCATGGCTTAACACCGGATCAAGTAGTGGCGATTGCGAGCAACAATGGTGGCAAACAGGCGTTAGAAACCGTTCAGCGCCTGTTACCAGTTTTATGTCAAGATCATGGCCTGACCCCGGATCAGGTTGTTGCCATTGCATCGAACATTGGTGGTAAACAGGCTCTGGAAACCGTTCAGCGTTTACTGCCGGTGCTGTGCCAGGACCACGGTTTAACGCCAGACCAGGTGGTGGCGATTGCGTCTAACATTGGTGGTAAACAAGCCCTGGAAACTGTACAGCGCCTGTTACCTGTCTTATGCCAGGATCATGGTCTGACTCCAGATCAGGTTGTTGCGATCGCCAGCCACGATGGCGGGAAACAGGCATTAGAAACCGTGCAGCGTCTGTTGCCGGTGTTATGCCAAGACCACGGTCTGACCCCTGACCAGGTGGTTGCGATTGCGAGCAACATTGGCGGTAAGCAAGCGCTGGAGACAGTGCAGCGCTTATTACCAGTTCTGTGTCAGGATCATGGTCTGACCCCGGATCAGGTGGTTGCCATCGCGTCGAACGGTGGCGGGAAACAAGCGCTGGAAACGGTGCAGCGTTTACTGCCGGTGCTGTGCCAGGATCATGGTTTAACTCCAGATCAGGTTGTCGCTATTGCTTCTAACAATGGTGGCAAACAGGCATTAGAAACGGTTCAGCGTCTGCTCCCTGTATTATGCCAGGATCATGGC'
p66
aS'CTGACGCCGGATCAAGTAGTAGCAATCGCTAGTCACGATGGTGGTAAACAGGCGCTGGAAACCGTACAGCGTCTGCTGCCGGTATTATGCCAGGACCACGGGCTCACACCGGATCAGGTAGTGGCAATCGCGTCACACGATGGCGGCAAACAGGCCTTAGAGACAGTTCAGCGTCTTCTGCCGGTGCTGTGCCAGGACCACGGTTTAACTCCTGACCAGGTCGTAGCTATCGCTTCGAACGGTGGTGGCAAACAAGCACTGGAAACCGTCCAACGTCTGTTGCCGGTGCTGTGCCAAGACCACGGCCTTACACCGGATCAGGTTGTGGCCATTGCATCACACGATGGCGGTAAACAGGCCCTGGAGACAGTGCAGCGCCTGCTGCCGGTCCTGTGTCAAGACCACGGGCTGACGCCGGACCAAGTAGTCGCAATCGCCTCAAACATTGGGGGCAAACAGGCTCTGGAAACGGTGCAGCGTTTATTACCAGTGCTGTGCCAGGATCATGGCCTGACCCCTGACCAGGTTGTGGCTATCGCCAGCAACGGTGGCGGTAAACAAGCGCTGGAAACGGTTCAACGCTTACTGCCGGTTTTATGCCAGGATCATGGCCTGACACCGGACCAAGTGGTTGCAATCGCAAGCCACGATGGGGGTAAACAAGCACTCGAAACCGTGCAACGCCTGCTGCCGGTCCTGTGCCAGGATCACGGTTTAACCCCGGATCAGGTGGTAGCGATTGCTAGTAACATTGGTGGCAAGCAGGCGCTCGAAACTGTCCAGCGCCTGCTGCCGGTTCTGTGCCAGGATCATGGCTTAACCCCGGATCAGGTTGTCGCGATTGCCAGCAACAATGGCGGCAAGCAGGCTTTAGAGACAGTCCAACGCCTGCTTCCGGTTCTCTGTCAGGATCATGGCTTAACACCGGATCAAGTAGTGGCGATTGCGAGCAACAATGGTGGCAAACAGGCGTTAGAAACCGTTCAGCGCCTGTTACCAGTTTTATGTCAAGATCATGGCCTGACCCCGGATCAGGTTGTTGCCATTGCATCGAACATTGGTGGTAAACAGGCTCTGGAAACCGTTCAGCGTTTACTGCCGGTGCTGTGCCAGGACCACGGTTTAACGCCAGACCAGGTGGTGGCGATTGCGTCTAACATTGGTGGTAAACAAGCCCTGGAAACTGTACAGCGCCTGTTACCTGTCTTATGCCAGGATCATGGTCTGACTCCAGACCAGGTTGTTGCGATCGCCAGCCACGATGGCGGGAAACAGGCATTAGAAACCGTCCAGCGTCTGTTGCCGGTGTTATGTCAAGACCACGGTCTGACCCCTGACCAGGTGGTGGCGATTGCGAGCAACATTGGCGGTAAGCAAGCCCTGGAGACAGTGCAGCGCTTATTACCAGTTCTGTGTCAAGATCATGGTCTGACCCCAGATCAGGTGGTTGCCATCGCGTCGAACGGTGGCGGGAAACAGGCGCTGGAAACGGTGCAGCGTTTACTGCCGGTGCTGTGTCAGGATCATGGTTTAACTCCAGATCAGGTTGTCGCTATTGCATCTAACAATGGTGGCAAACAGGCATTAGAAACGGTTCAGCGTCTGCTCCCTGTATTATGCCAGGATCATGGC'
p67
aS'CTGACGCCGGATCAAGTGGTAGCAATCGCTAGTCACGATGGTGGTAAACAGGCGCTGGAAACCGTACAGCGTCTGCTGCCGGTATTATGCCAGGACCACGGGCTTACACCGGATCAGGTAGTGGCAATCGCGTCACACGATGGCGGTAAACAGGCCTTAGAGACAGTTCAGCGTCTTCTGCCGGTACTGTGCCAGGACCACGGTTTAACTCCTGACCAGGTCGTAGCTATCGCTTCGAACGGTGGTGGCAAGCAAGCACTGGAAACCGTCCAACGTCTGTTGCCGGTGCTGTGCCAAGACCACGGCCTTACACCGGATCAAGTCGTGGCCATTGCATCACACGATGGCGGTAAGCAGGCCCTGGAGACAGTGCAGCGCCTGCTGCCGGTCCTGTGTCAAGACCACGGGCTGACCCCGGATCAAGTTGTCGCAATCGCCTCAAACATTGGGGGCAAACAGGCTTTAGAAACGGTGCAGCGTTTATTACCAGTGCTGTGTCAGGATCATGGCCTGACCCCTGACCAGGTTGTGGCTATCGCCAGCAACGGTGGCGGTAAACAAGCGCTGGAAACGGTTCAACGCTTACTGCCGGTTTTATGCCAGGATCATGGCCTGACCCCGGACCAAGTGGTTGCAATCGCAAGCCACGATGGGGGTAAACAGGCACTCGAAACCGTGCAACGCCTGCTGCCGGTCCTGTGCCAGGATCACGGTTTAACCCCGGATCAGGTGGTAGCGATTGCTAGTAACATTGGTGGCAAACAGGCGCTCGAAACTGTCCAGCGCCTGCTGCCGGTTCTGTGCCAGGATCACGGCTTAACCCCGGATCAGGTTGTCGCGATTGCCAGCAACAATGGCGGCAAACAGGCTTTAGAGACAGTGCAACGCCTGCTTCCGGTTCTCTGTCAGGATCATGGCTTAACACCGGATCAGGTAGTGGCGATTGCGAGCAACAATGGTGGCAAACAGGCGTTAGAAACCGTTCAGCGCCTGTTACCAGTTTTATGTCAAGATCATGGCCTGACCCCGGATCAAGTTGTTGCCATTGCATCGAACATTGGTGGTAAACAGGCTCTGGAAACCGTTCAGCGTTTACTGCCGGTGCTGTGCCAGGACCACGGTTTAACGCCAGACCAGGTGGTGGCGATTGCGTCTAACATTGGTGGTAAACAAGCCCTGGAAACTGTACAGCGCCTGTTACCTGTCTTATGCCAGGATCATGGTCTGACACCAGATCAGGTAGTTGCGATCGCCAGCCACGATGGCGGTAAACAGGCATTAGAAACCGTCCAGCGTCTGTTGCCGGTGTTATGCCAGGACCACGGTCTGACCCCTGACCAAGTGGTTGCGATTGCGAGCAACATTGGCGGTAAGCAAGCGCTGGAGACAGTGCAGCGCTTATTACCAGTTCTGTGTCAAGATCATGGTCTGACCCCGGATCAGGTGGTTGCCATCGCGTCGAACGGTGGCGGGAAACAGGCGCTGGAAACGGTGCAGCGTTTACTGCCGGTGCTGTGTCAGGATCATGGTTTAACTCCAGATCAGGTTGTCGCTATTGCTTCTAACAATGGTGGCAAACAGGCATTAGAAACGGTTCAGCGTCTGCTTCCTGTATTATGCCAGGATCATGGC'
p68
aS'CTGACGCCGGATCAAGTGGTAGCCATCGCTAGTCACGATGGTGGTAAACAGGCACTGGAAACCGTACAGCGTCTGCTGCCGGTACTTTGCCAGGACCACGGGCTCACACCGGATCAGGTAGTGGCAATCGCGTCACACGATGGCGGCAAACAGGCCTTAGAGACAGTTCAGCGTCTTCTGCCGGTGCTGTGCCAGGACCACGGTTTAACTCCTGACCAAGTCGTAGCTATCGCTTCGAACGGTGGTGGCAAACAAGCACTGGAAACTGTCCAACGTCTGTTGCCGGTGCTGTGCCAAGACCACGGCCTTACACCGGATCAAGTCGTGGCCATTGCGTCACACGATGGCGGTAAGCAGGCCCTGGAGACAGTGCAGCGCCTGCTGCCGGTCCTGTGTCAGGACCACGGGCTGACGCCGGATCAAGTAGTCGCCATCGCCTCAAACATTGGGGGCAAACAGGCTCTGGAAACGGTGCAGCGTTTATTACCAGTGCTGTGTCAAGATCATGGCCTGACCCCTGACCAGGTTGTGGCTATCGCCAGCAACGGTGGCGGTAAACAAGCGCTGGAAACGGTTCAACGCTTACTGCCGGTTTTATGCCAGGATCATGGGCTGACACCGGACCAAGTGGTGGCAATCGCAAGCCACGATGGGGGTAAACAAGCCCTCGAAACCGTGCAACGCCTGCTGCCGGTCCTGTGCCAGGATCACGGTTTAACCCCGGATCAGGTGGTAGCCATTGCGAGTAACATTGGTGGCAAACAGGCGCTCGAAACTGTCCAGCGCCTGCTGCCGGTTCTGTGCCAGGATCATGGCTTAACCCCGGATCAGGTTGTCGCGATTGCCAGCAACAATGGCGGCAAACAGGCTTTAGAGACAGTGCAACGCCTGCTTCCGGTTCTCTGTCAGGATCATGGCTTAACACCGGATCAGGTCGTGGCGATTGCGAGCAACAATGGTGGCAAACAGGCGTTAGAAACCGTTCAGCGCCTGTTACCAGTTTTATGTCAAGATCATGGCCTGACCCCGGATCAGGTTGTTGCCATTGCATCGAACATTGGTGGTAAACAGGCTCTGGAAACCGTTCAGCGTTTACTGCCGGTCCTGTGCCAGGACCACGGTTTAACGCCAGACCAGGTGGTGGCGATTGCGTCTAACATTGGTGGTAAACAAGCCCTGGAAACTGTACAGCGCCTGTTACCTGTCTTATGCCAGGATCATGGTCTGACACCAGATCAGGTTGTTGCGATCGCCAGCCACGATGGCGGGAAACAGGCATTAGAAACCGTCCAGCGTCTGTTGCCGGTGTTATGCCAAGACCACGGTCTGACCCCTGACCAGGTGGTTGCGATTGCGAGCAACATTGGCGGTAAGCAAGCCCTGGAGACAGTGCAGCGCTTATTACCAGTTCTGTGTCAGGATCACGGTCTGACCCCGGATCAGGTCGTTGCCATCGCGTCGAACGGTGGCGGGAAACAGGCGCTGGAAACGGTGCAGCGTTTACTCCCGGTGCTGTGTCAGGATCATGGTTTAACTCCAGATCAGGTTGTGGCTATTGCATCTAACAATGGTGGCAAACAGGCATTAGAAACGGTTCAGCGTCTGCTCCCTGTATTATGCCAGGATCATGGC'
p69
aS'CTGACGCCGGATCAAGTGGTAGCAATCGCTAGTCACGATGGTGGTAAACAGGCACTGGAAACCGTACAGCGTCTGCTGCCGGTACTTTGCCAGGACCACGGGCTCACACCGGATCAGGTAGTGGCAATCGCGTCACACGATGGCGGTAAACAGGCCTTAGAGACAGTTCAGCGTCTTCTGCCGGTACTGTGCCAGGACCACGGTCTGACTCCTGACCAGGTCGTAGCTATCGCTTCGAACGGTGGTGGCAAGCAAGCACTGGAAACCGTCCAACGTCTGTTGCCGGTGCTGTGCCAAGACCACGGCCTTACACCGGATCAGGTCGTGGCCATTGCATCACACGATGGCGGTAAGCAGGCCCTGGAGACAGTGCAGCGCCTGCTGCCGGTCCTGTGTCAAGACCACGGGCTGACGCCGGATCAAGTAGTCGCAATCGCCTCAAACATTGGGGGCAAACAGGCTCTGGAAACGGTGCAGCGTTTATTACCAGTGCTGTGTCAGGATCATGGCCTGACCCCGGACCAGGTTGTGGCTATCGCCAGCAACGGTGGCGGTAAGCAAGCGCTGGAAACGGTTCAACGCTTACTGCCGGTTTTATGCCAGGATCATGGCCTGACACCGGACCAAGTGGTGGCAATCGCAAGCCACGATGGGGGTAAACAAGCCCTCGAAACCGTGCAACGCCTGCTGCCGGTCCTGTGCCAGGATCACGGTTTAACCCCGGATCAGGTGGTAGCCATTGCTAGTAACATTGGTGGCAAACAGGCGCTCGAAACTGTCCAGCGCCTGCTGCCGGTTCTGTGCCAGGATCATGGCTTAACCCCGGACCAGGTTGTCGCGATTGCCAGCAACAATGGCGGCAAACAGGCTTTAGAGACAGTCCAACGCCTGCTTCCGGTTCTTTGTCAGGATCATGGCTTAACACCGGATCAAGTAGTGGCGATTGCGAGCAACAATGGTGGCAAACAGGCGTTAGAAACCGTTCAGCGCCTGTTACCAGTTTTATGTCAAGATCATGGCCTGACCCCGGATCAGGTTGTTGCCATTGCATCGAACATTGGTGGTAAACAGGCTCTGGAAACCGTTCAGCGTTTACTGCCGGTGCTGTGTCAGGACCACGGTTTAACACCAGACCAGGTGGTGGCGATTGCGTCTAACATTGGTGGTAAACAAGCCCTGGAGACTGTACAGCGCCTGTTACCTGTCTTATGCCAGGATCATGGTCTGACCCCAGATCAGGTTGTTGCGATCGCCAGCCACGATGGCGGGAAACAGGCATTAGAAACCGTCCAGCGTCTGTTGCCGGTGTTATGCCAAGACCACGGTCTGACCCCTGACCAGGTGGTTGCGATTGCGAGCAACATTGGCGGTAAGCAAGCGCTGGAGACAGTGCAGCGCTTATTACCAGTTCTGTGCCAGGATCATGGTCTGACCCCGGATCAGGTGGTTGCCATCGCGTCGAACGGTGGCGGGAAACAGGCGCTGGAAACGGTGCAGCGTTTACTGCCGGTGCTGTGTCAGGATCATGGTTTAACTCCAGATCAGGTTGTCGCTATTGCATCTAACAATGGTGGCAAACAGGCATTAGAAACGGTTCAGCGTCTGCTCCCTGTATTATGCCAGGATCATGGC'
p70
aS'CTGACGCCGGATCAAGTGGTAGCAATCGCTAGTCACGATGGTGGTAAACAGGCGCTGGAAACCGTACAGCGTCTGCTGCCGGTATTATGCCAGGACCACGGGCTCACACCGGATCAGGTAGTAGCAATCGCGTCACACGATGGCGGCAAACAGGCCTTAGAGACAGTTCAGCGTCTTCTGCCGGTACTGTGCCAGGACCACGGTTTAACGCCTGACCAGGTCGTAGCCATCGCTTCGAACGGTGGTGGCAAACAGGCACTGGAAACCGTCCAACGTCTGTTGCCGGTGCTGTGCCAAGACCACGGCCTTACACCGGATCAGGTCGTGGCCATTGCATCACACGATGGCGGTAAACAGGCCCTTGAAACAGTGCAGCGCCTGCTGCCGGTCCTGTGTCAAGATCACGGGCTGACGCCGGATCAAGTAGTCGCCATCGCCTCAAACATTGGGGGCAAACAGGCTCTGGAAACGGTGCAACGTTTATTACCAGTGCTGTGTCAGGATCATGGCCTGACCCCTGACCAGGTTGTGGCTATCGCCAGCAACGGTGGCGGTAAACAAGCGCTGGAAACGGTTCAACGCTTACTGCCGGTTTTATGCCAGGATCATGGGCTGACACCGGACCAAGTGGTGGCTATCGCAAGCCACGATGGGGGTAAACAAGCCCTCGAAACCGTGCAACGCCTGCTGCCGGTCCTGTGCCAGGATCACGGTTTAACCCCGGATCAGGTGGTAGCCATTGCTAGTAACATTGGTGGCAAACAGGCGCTCGAAACTGTCCAGCGCCTGCTGCCGGTTCTGTGCCAGGATCATGGCTTAACCCCGGATCAGGTTGTCGCGATTGCCAGCAACAATGGCGGCAAGCAGGCTTTAGAGACAGTCCAACGCCTGCTTCCGGTTCTCTGTCAGGATCATGGCTTAACACCGGATCAAGTAGTGGCGATTGCGAGCAACAATGGTGGCAAACAGGCGTTAGAAACCGTTCAGCGCCTGTTACCAGTTTTATGTCAAGATCATGGCCTGACCCCGGATCAGGTTGTTGCCATTGCATCGAACATTGGTGGTAAACAGGCTCTGGAAACCGTTCAGCGTTTACTGCCGGTGCTGTGCCAGGACCACGGTTTAACGCCAGACCAGGTGGTGGCGATTGCGTCTAACATTGGTGGTAAACAAGCCCTGGAAACTGTACAGCGCCTGTTACCTGTCTTATGCCAGGATCATGGTCTGACTCCAGATCAGGTTGTTGCGATCGCCAGCCACGATGGCGGGAAACAGGCATTAGAAACCGTCCAGCGTCTGTTGCCGGTGTTATGCCAAGACCACGGTCTGACCCCTGACCAGGTGGTTGCGATTGCGAGCAACATTGGCGGTAAGCAAGCGCTGGAGACAGTGCAGCGCTTATTACCAGTTCTGTGTCAAGATCATGGTCTGACCCCGGATCAGGTGGTTGCCATCGCGTCGAACGGTGGCGGGAAACAGGCGCTGGAAACGGTGCAGCGTTTACTGCCGGTGCTGTGTCAGGATCATGGTTTAACTCCAGATCAGGTTGTCGCTATTGCATCTAACAATGGTGGCAAACAGGCATTAGAAACGGTTCAGCGTCTGCTCCCTGTATTATGCCAGGATCATGGC'
p71
aS'CTGACGCCGGATCAAGTGGTAGCAATCGCTAGTCACGATGGTGGTAAACAGGCGCTGGAAACCGTACAGCGTCTGCTGCCGGTATTATGCCAGGACCACGGGCTCACACCGGATCAGGTAGTAGCAATCGCGTCACACGATGGCGGCAAACAGGCCTTAGAGACAGTTCAGCGTCTTCTGCCGGTACTGTGCCAGGACCACGGTTTAACGCCTGACCAGGTCGTAGCCATCGCTTCGAACGGTGGTGGCAAACAGGCACTGGAAACCGTCCAACGTCTGTTGCCGGTGCTGTGCCAAGACCACGGCCTTACACCGGATCAGGTCGTGGCCATTGCATCACACGATGGCGGTAAACAGGCCCTTGAAACAGTGCAGCGCCTGCTGCCGGTCCTGTGTCAAGATCACGGGCTGACGCCGGATCAAGTAGTCGCCATCGCCTCAAACATTGGGGGCAAACAGGCTCTGGAAACGGTGCAACGTTTATTACCAGTGCTGTGTCAGGATCATGGCCTGACCCCTGACCAGGTTGTGGCTATCGCCAGCAACGGTGGCGGTAAACAAGCGCTGGAAACGGTTCAACGCTTACTGCCGGTTTTATGCCAGGATCATGGCCTGACCCCGGACCAAGTGGTTGCAATCGCAAGCCACGATGGGGGTAAACAGGCACTCGAAACCGTGCAACGCCTGCTGCCGGTCCTGTGCCAGGATCACGGTTTAACCCCGGATCAGGTGGTAGCGATTGCTAGTAACATTGGTGGCAAACAGGCGCTCGAAACTGTCCAGCGCCTGCTGCCGGTTCTGTGCCAGGATCACGGCTTAACCCCGGATCAGGTTGTCGCGATTGCCAGCAACAATGGCGGCAAACAGGCTTTAGAGACAGTGCAACGCCTGCTTCCGGTTCTCTGTCAGGATCATGGCTTAACACCGGATCAGGTAGTGGCGATTGCGAGCAACAATGGTGGCAAACAGGCGTTAGAAACCGTTCAGCGCCTGTTACCAGTTTTATGTCAAGATCATGGCCTGACCCCGGATCAAGTTGTTGCCATTGCATCGAACATTGGTGGTAAACAGGCTCTGGAAACCGTTCAGCGTTTACTGCCGGTGCTGTGTCAGGACCACGGTTTAACGCCAGACCAGGTGGTGGCGATTGCGTCTAACATTGGTGGTAAACAAGCCCTGGAAACTGTACAGCGCCTGTTACCTGTCTTATGCCAGGATCATGGTCTGACTCCAGATCAGGTTGTTGCGATCGCCAGCCACGATGGCGGGAAACAGGCATTAGAAACCGTGCAGCGTCTGTTGCCGGTGTTATGCCAAGACCACGGTCTGACCCCTGACCAGGTGGTTGCGATTGCGAGCAACATTGGCGGTAAGCAAGCGCTGGAGACAGTGCAGCGCTTATTACCAGTTCTGTGCCAGGATCATGGTCTGACCCCGGATCAGGTGGTTGCCATCGCGTCGAACGGTGGCGGGAAGCAAGCGCTGGAAACGGTGCAACGTTTACTGCCGGTGCTGTGTCAGGATCATGGTTTAACTCCAGATCAGGTTGTCGCTATTGCATCTAACAATGGTGGCAAACAGGCATTAGAAACGGTTCAGCGTCTGCTCCCTGTATTATGCCAGGATCATGGC'
p72
aS'CTGACGCCGGATCAAGTGGTAGCAATCGCTAGTCACGATGGTGGTAAACAGGCACTGGAAACCGTACAGCGTCTGCTGCCGGTACTTTGCCAGGACCACGGGCTCACACCGGATCAGGTAGTGGCAATCGCGTCACACGATGGCGGTAAACAGGCCTTAGAGACAGTTCAGCGTCTTCTGCCGGTACTGTGCCAGGACCACGGTCTGACTCCTGACCAGGTCGTAGCTATCGCTTCGAACGGTGGTGGCAAGCAAGCACTGGAAACCGTCCAACGTCTGTTGCCGGTGCTGTGCCAAGACCACGGCCTTACACCGGATCAGGTCGTGGCCATTGCATCACACGATGGCGGTAAGCAGGCCCTGGAGACAGTGCAGCGCCTGCTGCCGGTCCTGTGTCAAGACCACGGGCTGACGCCGGATCAAGTAGTCGCAATCGCCTCAAACATTGGGGGCAAACAGGCTCTGGAAACGGTGCAGCGTTTATTACCAGTGCTGTGTCAGGATCATGGCCTGACCCCGGACCAGGTTGTGGCTATCGCCAGCAACGGTGGCGGTAAGCAAGCGCTGGAAACGGTTCAACGCTTACTGCCGGTTTTATGCCAGGATCATGGCCTGACACCGGACCAAGTGGTGGCAATCGCAAGCCACGATGGGGGTAAACAAGCCCTCGAAACCGTGCAACGCCTGCTGCCGGTCCTGTGCCAGGATCACGGTTTAACCCCGGATCAGGTGGTAGCCATTGCTAGTAACATTGGTGGCAAACAGGCGCTCGAAACTGTCCAGCGCCTGCTGCCGGTTCTGTGCCAGGATCATGGCTTAACCCCGGACCAGGTTGTCGCGATTGCCAGCAACAATGGCGGCAAACAGGCTTTAGAGACAGTCCAACGCCTGCTTCCGGTTCTTTGTCAGGATCATGGCTTAACACCGGATCAAGTAGTGGCGATTGCGAGCAACAATGGTGGCAAACAGGCGTTAGAAACCGTTCAGCGCCTGTTACCAGTTTTATGTCAAGATCATGGCCTGACCCCGGATCAGGTTGTTGCCATTGCATCGAACATTGGTGGTAAACAGGCTCTGGAAACCGTTCAGCGTTTACTGCCGGTGCTGTGTCAGGACCACGGTTTAACACCAGACCAGGTGGTGGCGATTGCGTCTAACATTGGTGGTAAACAAGCCCTGGAAACTGTACAGCGCCTGTTACCTGTCTTATGCCAGGATCATGGTCTGACCCCAGATCAGGTTGTTGCGATCGCCAGCCACGATGGCGGGAAACAGGCATTAGAAACCGTCCAGCGTCTGTTGCCGGTGTTATGCCAAGACCACGGTCTGACCCCTGACCAGGTGGTTGCGATTGCGAGCAACATTGGCGGTAAGCAAGCGCTGGAGACAGTGCAGCGCTTATTACCAGTTCTGTGCCAGGATCATGGTCTGACCCCGGATCAGGTGGTTGCCATCGCGTCGAACGGTGGCGGGAAACAGGCGCTGGAAACGGTGCAGCGTTTACTGCCGGTGCTGTGTCAGGATCATGGTTTAACTCCAGATCAGGTTGTTGCTATTGCATCTAACAATGGTGGCAAACAGGCATTAGAAACGGTTCAGCGTCTGCTCCCTGTATTATGCCAGGATCATGGC'
p73
aS'CTGACGCCGGATCAAGTGGTAGCAATCGCTAGTCACGATGGTGGTAAACAGGCACTGGAAACCGTACAGCGTCTGCTGCCGGTACTTTGCCAGGACCACGGGCTCACACCGGATCAGGTAGTGGCAATCGCGTCACACGATGGCGGTAAACAGGCCTTAGAGACAGTTCAGCGTCTTCTGCCGGTGCTGTGCCAGGACCACGGTTTAACTCCTGACCAGGTCGTAGCGATCGCTTCGAACGGTGGTGGCAAACAAGCACTGGAAACTGTCCAACGTCTGTTGCCGGTGCTGTGCCAAGACCACGGCCTTACACCGGATCAGGTCGTGGCCATTGCGTCACACGATGGCGGTAAGCAGGCCCTGGAGACAGTGCAGCGCCTGCTGCCGGTCCTGTGCCAAGACCACGGGCTGACGCCGGATCAAGTGGTCGCTATCGCCTCAAACATTGGGGGCAAACAGGCTCTGGAAACGGTGCAGCGTTTATTACCAGTGCTCTGTCAAGATCATGGCCTGACCCCTGACCAGGTTGTGGCTATCGCCAGCAACGGTGGCGGTAAACAAGCGCTGGAAACGGTTCAACGCTTACTGCCGGTTTTATGCCAGGATCATGGCCTGACACCGGACCAAGTTGTTGCAATCGCAAGCCACGATGGGGGTAAACAAGCCCTCGAAACCGTGCAACGCCTGCTGCCGGTCCTGTGCCAGGATCACGGTTTAACCCCGGATCAGGTGGTAGCGATTGCCAGTAACATTGGTGGCAAACAGGCGCTCGAAACTGTCCAGCGCCTGCTGCCGGTTCTGTGTCAGGATCATGGCTTAACCCCGGACCAGGTTGTGGCGATTGCAAGCAACAATGGCGGCAAACAGGCTTTAGAGACAGTGCAACGCCTGCTTCCGGTTCTCTGTCAGGATCATGGCTTAACACCGGATCAGGTCGTGGCGATTGCGAGCAACAATGGTGGCAAACAGGCGTTAGAAACCGTTCAGCGCCTGTTACCAGTTTTATGTCAAGATCATGGCCTGACCCCGGATCAGGTTGTTGCCATTGCATCGAACATTGGTGGTAAACAGGCTCTGGAAACCGTTCAGCGTTTACTGCCGGTGCTGTGCCAGGACCACGGTTTAACGCCAGACCAGGTGGTGGCGATTGCGTCTAACATTGGTGGTAAACAAGCCCTGGAAACTGTACAGCGCCTGTTACCTGTATTATGCCAGGATCATGGTCTGACACCAGATCAGGTAGTTGCGATCGCCAGCCACGATGGCGGGAAACAGGCATTAGAAACCGTCCAGCGTCTGTTGCCGGTGTTATGCCAGGACCACGGTCTGACCCCTGACCAAGTGGTTGCGATCGCGAGCAACATTGGCGGTAAGCAAGCGCTGGAGACAGTGCAGCGCTTATTACCAGTTCTGTGTCAGGATCATGGTCTGACCCCGGATCAAGTGGTTGCCATCGCGTCGAACGGTGGCGGGAAACAGGCGCTGGAAACGGTGCAGCGTTTACTGCCGGTGCTGTGTCAGGATCATGGTTTAACTCCAGATCAGGTAGTCGCTATTGCATCTAACAATGGTGGCAAACAGGCATTAGAAACGGTTCAGCGTCTGCTCCCTGTATTATGCCAGGATCATGGC'
p74
aS'CTGACGCCGGATCAAGTGGTAGCAATCGCTAGTCACGATGGTGGTAAACAGGCACTGGAAACCGTACAGCGTCTGCTGCCGGTACTTTGCCAGGACCACGGGCTCACACCGGATCAGGTAGTGGCAATCGCGTCACACGATGGCGGTAAACAGGCCTTAGAGACAGTTCAGCGTCTTCTGCCGGTGCTGTGCCAGGACCACGGTTTAACTCCTGACCAGGTCGTAGCTATCGCTTCGAACGGTGGTGGCAAACAAGCACTGGAAACTGTCCAACGTCTGTTGCCGGTGCTGTGCCAAGACCACGGCCTTACACCGGATCAGGTCGTGGCCATTGCGTCACACGATGGCGGTAAGCAGGCCCTGGAGACAGTGCAGCGCCTGCTGCCGGTCCTGTGTCAGGACCACGGGCTGACGCCGGATCAAGTAGTCGCCATCGCCTCAAACATTGGGGGCAAGCAGGCTCTGGAAACGGTGCAGCGTTTATTACCAGTGCTGTGTCAAGATCATGGCCTGACCCCTGACCAGGTTGTGGCTATCGCCAGCAACGGTGGCGGTAAACAAGCGCTGGAAACGGTTCAACGCTTACTGCCGGTTTTATGCCAGGATCATGGCCTGACACCGGACCAAGTGGTTGCAATCGCAAGCCACGATGGCGGTAAACAAGCACTCGAAACCGTGCAACGCCTGCTGCCGGTCCTGTGTCAGGATCACGGTTTAACCCCGGATCAAGTGGTAGCGATTGCTAGTAACATTGGTGGCAAACAGGCGCTCGAAACTGTCCAGCGCCTGCTGCCGGTTCTGTGTCAGGATCATGGCTTAACCCCGGACCAGGTTGTGGCGATTGCAAGCAACAATGGCGGCAAACAGGCGTTAGAGACAGTGCAACGCCTGCTTCCGGTTCTCTGTCAGGATCATGGCTTAACACCGGATCAAGTAGTGGCGATTGCGAGCAACAATGGTGGCAAACAGGCGTTAGAAACCGTTCAACGCCTGTTACCAGTTTTATGTCAAGATCATGGCCTGACCCCGGATCAGGTTGTTGCCATTGCATCGAACATTGGTGGTAAACAGGCTCTGGAAACCGTTCAGCGTTTACTGCCGGTGCTGTGCCAGGACCACGGTTTAACGCCAGACCAGGTGGTGGCGATTGCGTCTAACATTGGTGGTAAACAGGCCCTGGAGACTGTACAGCGCCTGTTACCTGTCTTATGCCAGGATCATGGTCTGACTCCAGATCAGGTTGTTGCGATCGCCAGCCACGATGGCGGGAAACAGGCATTAGAAACCGTCCAGCGTCTGTTGCCGGTGTTATGCCAAGACCACGGTCTGACCCCTGACCAAGTGGTTGCGATTGCAAGCAACATTGGCGGTAAGCAAGCGCTGGAGACAGTGCAGCGCTTATTACCAGTTCTGTGTCAAGATCATGGTCTGACCCCGGATCAGGTGGTTGCCATCGCGTCGAACGGTGGCGGCAAACAGGCGCTGGAAACGGTGCAGCGTTTACTGCCGGTGCTGTGTCAGGATCATGGTTTAACTCCAGATCAGGTTGTGGCTATTGCATCTAACAATGGTGGCAAACAGGCATTAGAAACGGTTCAGCGTCTGCTCCCTGTATTATGCCAGGATCACGGC'
p75
aS'CTGACGCCGGATCAAGTGGTAGCTATCGCTAGTCACGATGGTGGTAAACAGGCGCTTGAAACCGTACAGCGTCTGCTGCCGGTACTCTGCCAGGACCACGGGCTCACACCGGATCAGGTAGTGGCAATCGCGTCACACGATGGCGGCAAACAGGCCTTAGAGACAGTTCAGCGTCTTCTGCCGGTGCTGTGCCAGGACCACGGTTTAACTCCTGACCAGGTCGTAGCTATCGCTTCGAACGGTGGTGGCAAACAAGCACTGGAAACCGTCCAACGTCTGTTGCCGGTGCTGTGCCAAGACCACGGCCTTACACCGGATCAGGTCGTGGCGATTGCATCACACGATGGCGGTAAACAGGCCCTTGAGACAGTGCAGCGCCTGCTGCCGGTCCTGTGTCAAGACCACGGGCTGACGCCGGATCAAGTAGTCGCAATCGCCTCAAACATTGGGGGCAAGCAGGCTCTGGAAACGGTGCAGCGTTTATTACCAGTGCTGTGTCAGGATCATGGCCTGACCCCTGACCAGGTTGTGGCTATCGCCAGCAACGGTGGCGGTAAACAAGCTCTGGAAACGGTTCAACGCTTACTGCCGGTTTTATGCCAGGATCACGGCCTGACACCGGACCAAGTGGTTGCAATCGCAAGCCACGATGGGGGTAAACAAGCCCTCGAAACCGTGCAACGCCTTCTGCCGGTCCTGTGCCAAGATCACGGTTTAACCCCGGATCAGGTGGTAGCGATTGCTAGTAACATTGGTGGCAAACAAGCGCTCGAAACTGTCCAGCGCCTGCTGCCGGTTCTGTGTCAGGATCATGGCTTAACCCCGGACCAGGTTGTCGCGATTGCCAGCAACAATGGCGGCAAACAGGCTTTAGAGACAGTCCAACGCCTGCTTCCGGTTCTTTGTCAGGATCATGGCTTAACACCGGATCAAGTAGTGGCGATTGCGAGCAACAATGGTGGCAAACAGGCGTTAGAAACCGTTCAGCGCCTGTTACCAGTTTTATGTCAAGATCATGGCCTGACCCCGGATCAGGTTGTTGCCATTGCATCGAACATTGGTGGTAAACAGGCTCTGGAAACCGTTCAGCGTTTACTGCCGGTGCTGTGCCAGGACCACGGTTTAACGCCAGACCAGGTGGTGGCGATTGCGTCTAACATTGGTGGTAAACAAGCCCTGGAAACTGTACAGCGCCTGTTACCTGTCTTATGCCAGGATCATGGTCTGACTCCAGATCAGGTTGTTGCGATCGCCAGCCACGATGGCGGGAAACAGGCATTAGAAACCGTGCAGCGTCTGTTGCCGGTGTTATGCCAAGACCACGGTCTGACCCCTGACCAGGTGGTTGCGATTGCGAGCAACATTGGCGGTAAGCAAGCGCTGGAGACAGTGCAGCGCTTATTACCAGTTCTGTGTCAGGATCATGGTCTGACCCCGGATCAGGTGGTTGCCATCGCGTCGAACGGTGGCGGGAAACAGGCGCTGGAAACGGTGCAGCGTTTACTGCCGGTGCTGTGTCAGGATCATGGTTTAACTCCAGATCAGGTTGTCGCTATTGCATCTAACAATGGTGGCAAACAGGCATTAGAAACGGTTCAGCGTCTGCTCCCTGTATTATGCCAGGATCATGGC'
p76
aS'CTGACGCCGGATCAAGTGGTAGCAATCGCTAGTCACGATGGTGGTAAACAGGCGCTGGAAACCGTACAGCGTCTGCTGCCGGTATTATGCCAGGACCACGGGCTCACACCGGATCAGGTAGTGGCAATCGCGTCACACGATGGCGGCAAACAGGCCTTAGAGACAGTTCAGCGTCTTCTTCCGGTGCTGTGCCAGGACCACGGTTTAACTCCTGACCAGGTCGTAGCTATCGCTTCGAACGGTGGTGGCAAACAAGCACTGGAAACTGTCCAACGTCTGTTGCCGGTGCTGTGCCAAGACCACGGCCTTACACCGGATCAGGTCGTGGCCATTGCGTCACACGATGGCGGTAAGCAGGCCCTGGAGACAGTGCAGCGCCTGCTGCCGGTCCTGTGTCAGGACCACGGGCTGACGCCGGATCAAGTAGTCGCAATCGCCTCAAACATTGGGGGCAAGCAGGCTCTGGAAACGGTGCAGCGTTTATTACCAGTGCTGTGTCAGGATCATGGCCTGACCCCAGACCAGGTTGTGGCTATCGCGAGCAACGGTGGCGGTAAACAAGCGCTGGAAACGGTTCAACGCTTACTGCCGGTTTTATGCCAGGATCATGGCCTGACCCCGGACCAAGTGGTTGCAATCGCAAGCCACGATGGGGGTAAACAAGCACTCGAAACCGTGCAACGCCTGCTTCCGGTCCTGTGCCAGGATCACGGTTTAACCCCGGATCAGGTGGTAGCCATTGCTAGTAACATTGGTGGCAAACAGGCGCTCGAAACTGTCCAACGCCTGCTGCCGGTTCTGTGCCAGGATCACGGCTTAACCCCGGACCAGGTTGTCGCGATTGCCAGCAACAATGGCGGCAAACAGGCTTTAGAGACAGTGCAACGCCTGCTTCCGGTTCTCTGTCAGGATCATGGCTTAACACCGGATCAGGTAGTGGCGATTGCCAGCAACAATGGTGGCAAACAGGCGTTAGAAACCGTTCAGCGCCTGTTACCAGTTTTATGTCAAGATCATGGCCTGACCCCGGATCAAGTTGTTGCCATTGCATCGAACATTGGTGGTAAACAGGCTCTGGAAACCGTTCAGCGTTTACTGCCTGTGCTGTGCCAGGACCACGGTTTAACGCCAGACCAGGTGGTGGCGATTGCGTCCAACATTGGTGGTAAACAAGCCCTGGAAACTGTACAGCGCCTGTTACCTGTCTTATGCCAGGATCATGGTCTGACTCCAGATCAGGTTGTTGCGATCGCCAGCCACGATGGCGGGAAACAGGCATTAGAAACCGTCCAGCGTCTGTTGCCGGTGTTATGCCAGGACCACGGTCTGACCCCTGACCAAGTGGTTGCGATTGCGAGCAACATTGGCGGTAAGCAAGCGCTGGAGACAGTGCAGCGCTTATTACCAGTTCTGTGTCAAGATCATGGTCTGACCCCGGATCAGGTGGTTGCCATCGCGTCGAACGGTGGCGGGAAACAGGCGCTGGAAACGGTGCAGCGTTTACTGCCGGTGCTGTGTCAGGATCATGGTTTAACTCCAGATCAGGTTGTCGCTATTGCATCTAACAATGGTGGCAAACAGGCATTAGAAACGGTTCAGCGTCTGCTCCCTGTATTATGCCAGGATCATGGC'
p77
aS'CTGACGCCGGATCAAGTGGTAGCAATCGCTAGTCACGATGGTGGTAAACAGGCGCTGGAAACCGTACAGCGTCTGCTGCCGGTATTATGCCAGGACCACGGGCTCACACCGGATCAGGTAGTGGCAATCGCGTCACACGATGGCGGCAAACAGGCCTTAGAGACAGTTCAGCGTCTTCTGCCGGTGCTGTGCCAGGACCACGGTTTAACTCCTGACCAGGTCGTAGCTATCGCTTCGAACGGTGGTGGCAAACAAGCACTGGAAACTGTCCAACGTCTGTTGCCGGTGCTGTGCCAAGACCACGGCCTTACACCGGATCAGGTCGTGGCCATTGCGTCACACGATGGCGGTAAGCAGGCCCTGGAGACAGTGCAGCGCCTGCTGCCGGTCCTGTGTCAGGACCACGGGCTGACGCCGGATCAAGTAGTCGCAATCGCCTCAAACATTGGGGGCAAACAGGCTCTGGAAACGGTGCAGCGTTTATTACCAGTGCTGTGTCAGGATCACGGCCTGACCCCTGACCAGGTTGTGGCGATCGCCAGCAACGGTGGCGGTAAGCAAGCGCTGGAAACGGTTCAGCGCTTACTGCCGGTTTTATGCCAGGATCATGGCCTGACCCCGGACCAAGTGGTTGCAATCGCAAGCCACGATGGGGGTAAACAGGCACTCGAAACCGTGCAACGCCTGCTGCCGGTCCTGTGCCAAGATCACGGTTTAACCCCGGATCAGGTGGTAGCGATTGCTAGTAACATTGGTGGCAAACAGGCGCTCGAAACTGTCCAGCGCCTGCTGCCGGTTCTGTGCCAGGATCACGGCTTAACCCCGGATCAGGTTGTCGCGATTGCCAGCAACAATGGCGGCAAACAGGCTTTAGAGACAGTGCAACGCCTGCTTCCGGTTCTCTGTCAGGATCATGGCTTAACACCGGATCAGGTAGTGGCGATTGCGAGCAACAATGGTGGCAAACAGGCGTTAGAAACCGTTCAGCGCCTGTTACCAGTTTTATGTCAAGATCATGGCCTGACCCCGGATCAGGTTGTTGCCATTGCATCGAACATTGGTGGTAAACAGGCTCTGGAAACCGTTCAGCGTTTACTGCCGGTGCTGTGCCAGGACCACGGTTTAACGCCAGACCAGGTGGTTGCGATTGCGTCTAACATTGGTGGTAAACAAGCCCTGGAAACTGTACAGCGCCTGTTACCTGTCTTATGCCAGGATCATGGTCTGACACCAGATCAGGTAGTTGCGATCGCCAGCCACGATGGCGGGAAACAGGCATTAGAAACCGTCCAGCGTCTGTTGCCGGTGTTATGCCAAGACCACGGTCTGACCCCTGACCAGGTGGTTGCGATTGCGAGCAACATTGGCGGTAAGCAAGCGCTGGAGACAGTGCAGCGCTTATTACCAGTTCTGTGTCAGGATCATGGTCTGACCCCGGATCAGGTGGTTGCCATCGCGTCGAACGGTGGCGGGAAACAGGCGCTGGAAACGGTGCAGCGTTTACTGCCGGTGCTGTGTCAGGATCATGGTCTGACTCCAGATCAGGTCGTCGCTATTGCATCTAACAATGGTGGCAAACAGGCATTAGAAACGGTGCAGCGTCTGCTCCCTGTATTATGCCAGGATCATGGC'
p78
aS'CTGACGCCGGATCAAGTGGTAGCAATCGCTAGTCACGATGGTGGTAAACAGGCGCTGGAAACCGTACAGCGTCTGCTGCCGGTATTATGCCAGGACCACGGGCTCACACCAGATCAGGTAGTGGCAATCGCGTCACACGATGGCGGCAAACAGGCCTTAGAGACAGTTCAGCGTCTTCTGCCGGTGCTGTGCCAGGACCACGGTTTAACTCCTGACCAGGTCGTAGCTATCGCTTCGAACGGTGGTGGCAAACAAGCACTGGAAACCGTCCAACGTCTGTTGCCGGTGCTGTGCCAAGACCACGGCCTTACACCGGATCAGGTCGTGGCCATTGCATCACACGATGGCGGTAAGCAAGCCCTGGAGACAGTGCAGCGCCTGCTGCCGGTCCTGTGTCAAGACCACGGGCTGACGCCGGATCAAGTAGTCGCAATCGCCTCAAACATTGGGGGCAAACAGGCTCTGGAAACGGTGCAGCGTTTATTACCAGTGCTGTGTCAGGATCATGGCCTGACCCCTGACCAGGTTGTGGCTATCGCCAGCAACGGTGGCGGTAAACAAGCGCTGGAAACGGTTCAACGCTTACTGCCGGTTTTATGCCAGGATCATGGCCTGACCCCGGACCAAGTGGTTGCAATCGCAAGCCACGATGGGGGTAAACAGGCACTCGAAACCGTGCAACGCCTGCTGCCGGTCCTGTGCCAGGATCACGGTTTGACCCCGGATCAGGTGGTAGCGATTGCTAGTAACATTGGTGGCAAACAGGCGCTCGAAACTGTCCAGCGCCTGCTGCCGGTTCTGTGCCAGGATCACGGCTTAACCCCGGATCAGGTTGTCGCGATTGCCAGCAACAATGGCGGCAAACAGGCTTTAGAGACAGTGCAACGCCTGCTTCCGGTTCTCTGTCAGGATCATGGCTTAACACCGGATCAGGTAGTGGCGATTGCGAGCAACAATGGTGGCAAACAGGCGTTAGAAACCGTTCAGCGCCTGTTACCAGTTTTATGTCAAGATCATGGCCTGACCCCGGATCAAGTTGTTGCCATTGCATCGAACATTGGTGGTAAACAGGCTCTGGAAACCGTTCAGCGCTTACTGCCGGTGCTGTGCCAGGACCACGGTTTAACGCCAGACCAGGTGGTGGCGATTGCGTCTAACATTGGTGGTAAACAAGCCCTGGAAACTGTACAGCGCCTGTTACCTGTCTTATGCCAGGATCATGGTCTGACACCAGATCAGGTAGTTGCGATCGCCAGCCACGATGGCGGGAAACAGGCATTAGAAACCGTCCAGCGTCTGTTGCCGGTGTTATGCCAGGACCACGGTCTGACCCCTGACCAAGTGGTTGCGATTGCGAGCAACATTGGCGGTAAGCAAGCGCTGGAGACAGTGCAGCGCTTATTACCAGTTCTGTGTCAAGATCATGGTCTGACCCCAGATCAGGTGGTTGCCATCGCGTCGAACGGTGGCGGGAAACAGGCGCTGGAAACGGTGCAGCGTTTACTGCCGGTGCTGTGTCAGGATCATGGTTTAACTCCAGATCAGGTTGTCGCTATTGCATCTAACAATGGTGGCAAACAGGCATTAGAAACGGTTCAGCGTCTGCTCCCTGTATTATGCCAGGATCATGGC'
p79
aS'CTGACGCCGGATCAAGTAGTAGCAATCGCTAGTCACGATGGTGGTAAACAGGCGCTGGAAACCGTACAGCGTCTGCTGCCGGTATTATGCCAGGACCACGGGCTCACACCGGATCAGGTAGTGGCAATCGCGTCACACGATGGCGGCAAACAGGCCTTAGAGACAGTTCAGCGTCTTCTGCCGGTGCTGTGCCAGGACCACGGTTTAACTCCTGACCAGGTCGTAGCTATCGCTTCGAACGGTGGTGGCAAACAAGCACTGGAAACCGTCCAACGTCTGTTGCCGGTGCTGTGCCAAGACCACGGCCTTACACCGGATCAGGTCGTGGCCATTGCATCACACGATGGCGGTAAACAGGCCCTGGAGACAGTGCAGCGCCTGCTGCCGGTCCTGTGTCAAGACCACGGGCTGACGCCGGACCAAGTAGTCGCAATCGCCTCAAACATTGGGGGCAAACAGGCTCTGGAAACGGTGCAGCGTTTATTACCAGTGCTGTGCCAGGATCATGGCCTGACCCCTGACCAGGTTGTGGCTATCGCCAGCAACGGTGGGGGTAAACAAGCGCTGGAAACGGTTCAACGCTTACTGCCGGTTTTATGCCAGGATCATGGCCTGACACCGGACCAAGTGGTTGCAATCGCAAGCCACGATGGGGGTAAACAAGCACTCGAAACCGTGCAACGCCTGCTGCCGGTCCTGTGCCAGGATCACGGTTTAACCCCGGATCAGGTGGTAGCGATTGCTAGTAACATTGGTGGCAAGCAGGCGCTCGAAACTGTCCAGCGCCTGCTGCCGGTTCTGTGCCAGGATCATGGCTTAACCCCGGACCAGGTTGTCGCGATTGCCAGCAACAATGGCGGCAAACAGGCTTTAGAGACAGTCCAACGCCTGCTTCCGGTTCTTTGTCAGGATCATGGCTTAACACCGGATCAAGTAGTGGCGATTGCGAGCAACAATGGTGGCAAACAGGCGTTAGAAACCGTTCAGCGCCTGTTACCAGTTTTATGTCAAGATCATGGCCTGACCCCGGATCAGGTTGTTGCCATTGCATCGAACATTGGTGGTAAACAGGCTCTGGAAACCGTTCAGCGTTTACTGCCGGTGCTGTGTCAGGACCACGGTTTAACACCAGACCAGGTGGTGGCGATTGCGTCTAACATTGGTGGTAAACAAGCCCTGGAAACTGTACAGCGCCTGTTACCTGTCTTATGCCAGGATCATGGTCTGACCCCAGATCAGGTTGTTGCGATCGCCAGCCACGATGGCGGGAAACAGGCATTAGAAACCGTCCAGCGTCTGTTGCCGGTGTTATGCCAAGACCACGGTCTGACCCCTGACCAGGTGGTTGCGATTGCGAGCAACATTGGCGGTAAGCAAGCGCTGGAGACAGTGCAGCGCTTATTACCAGTTCTGTGCCAGGATCATGGTCTGACCCCGGATCAGGTGGTTGCCATCGCGTCGAACGGTGGCGGGAAACAGGCGCTGGAAACGGTGCAGCGTTTACTGCCGGTGCTGTGTCAGGATCATGGTTTAACTCCAGATCAGGTTGTGGCTATTGCATCTAACAATGGTGGCAAACAGGCATTAGAAACGGTTCAGCGTCTGCTCCCTGTATTATGCCAGGATCATGGC'
p80
aS'CTGACCCCGGATCAAGTGGTAGCAATCGCTAGTCACGATGGTGGTAAACAGGCACTGGAAACCGTACAGCGTCTGCTGCCGGTACTTTGCCAGGACCACGGGCTCACACCGGATCAGGTCGTGGCAATCGCGTCACACGATGGCGGCAAACAGGCCTTAGAGACAGTTCAGCGTCTTCTGCCGGTACTGTGCCAGGACCACGGGTTAACTCCTGACCAGGTCGTAGCCATCGCTTCGAACGGTGGTGGCAAACAAGCACTGGAAACCGTCCAACGTCTGTTGCCGGTGCTGTGCCAAGACCACGGCCTTACACCGGATCAGGTCGTGGCCATTGCATCACACGATGGCGGTAAACAGGCCCTTGAGACAGTGCAGCGCCTGCTGCCGGTCCTGTGTCAAGACCACGGGCTGACGCCGGATCAAGTAGTCGCAATCGCCTCAAACATTGGGGGCAAGCAGGCTCTGGAAACGGTGCAGCGTTTATTACCAGTGCTGTGTCAAGATCATGGCCTGACCCCTGACCAGGTTGTGGCTATCGCCAGCAACGGTGGCGGTAAACAAGCGCTGGAAACGGTTCAGCGCTTACTGCCGGTTTTATGCCAGGATCATGGGCTGACACCGGACCAAGTGGTTGCAATCGCAAGCCACGATGGGGGTAAGCAAGCACTCGAAACCGTGCAACGCCTGCTGCCGGTCCTGTGCCAGGATCACGGTTTAACCCCGGATCAAGTGGTAGCCATTGCAAGTAACATTGGTGGCAAACAGGCGCTCGAAACTGTCCAGCGCTTACTGCCGGTTCTGTGTCAGGATCATGGCTTAACCCCGGACCAGGTTGTCGCGATTGCCAGCAACAATGGCGGCAAACAGGCTTTAGAGACAGTGCAACGCCTGCTTCCGGTTCTCTGTCAGGATCATGGCTTAACACCGGATCAGGTAGTGGCGATTGCGAGCAACAATGGTGGCAAACAGGCGTTAGAAACCGTTCAGCGCCTGTTACCAGTTTTATGTCAAGATCATGGCCTGACCCCGGATCAAGTTGTTGCCATTGCATCGAACATTGGTGGTAAACAGGCTCTGGAAACCGTTCAGCGTTTACTGCCTGTGCTGTGCCAGGACCACGGTTTAACGCCAGACCAGGTGGTGGCGATTGCGTCCAACATTGGTGGTAAACAAGCCCTGGAAACTGTACAGCGCCTGTTACCTGTCTTATGCCAGGATCATGGTCTGACTCCAGATCAGGTTGTTGCGATCGCCAGCCACGATGGCGGGAAACAGGCATTAGAAACCGTCCAGCGTCTGTTGCCGGTGTTATGCCAAGACCACGGTCTGACCCCTGACCAGGTGGTTGCGATTGCGAGCAACATTGGCGGTAAGCAAGCCCTGGAGACAGTGCAGCGCTTATTACCAGTTCTGTGTCAGGATCACGGTCTGACCCCGGATCAGGTCGTTGCCATCGCGTCGAACGGTGGCGGGAAACAGGCGCTGGAAACGGTGCAGCGTTTACTGCCGGTGCTGTGTCAGGATCATGGTTTAACTCCAGATCAGGTTGTCGCTATTGCATCTAACAATGGTGGCAAACAGGCATTAGAAACGGTTCAACGTCTGCTCCCTGTATTATGCCAGGATCATGGC'
p81
aS'CTGACGCCGGATCAAGTAGTAGCAATCGCTAGTCACGATGGTGGTAAACAGGCGCTGGAAACCGTACAGCGTCTGCTGCCGGTATTATGCCAGGACCACGGGCTCACACCGGATCAGGTAGTGGCAATCGCGTCACACGATGGCGGCAAACAGGCCTTAGAGACAGTTCAGCGTCTTCTGCCGGTGCTGTGCCAGGACCACGGTTTAACTCCTGACCAGGTCGTAGCTATCGCTTCGAACGGTGGTGGCAAACAAGCACTGGAAACCGTCCAACGTCTGTTGCCGGTGCTGTGCCAAGACCACGGCCTTACACCGGATCAGGTCGTGGCCATTGCATCACACGATGGCGGTAAACAGGCCCTGGAGACAGTGCAGCGCCTGCTGCCGGTCCTGTGTCAAGACCACGGGCTGACGCCGGACCAAGTAGTCGCAATCGCCTCAAACATTGGGGGCAAACAGGCTCTGGAAACGGTGCAGCGTTTATTACCAGTGCTGTGCCAGGATCATGGCCTGACCCCTGACCAGGTTGTGGCTATCGCCTCGAACGGTGGCGGTAAACAAGCGCTGGAAACGGTTCAACGCTTACTGCCGGTTTTATGCCAGGATCATGGCCTGACACCGGACCAAGTGGTTGCAATCGCAAGCCACGATGGGGGTAAACAAGCACTCGAAACCGTGCAACGCCTGCTGCCGGTCCTGTGCCAGGATCACGGTTTAACCCCGGATCAGGTGGTAGCGATTGCTAGTAACATTGGTGGCAAGCAGGCGCTCGAAACTGTCCAGCGCCTGCTGCCGGTACTGTGTCAGGATCATGGCTTAACCCCGGACCAGGTTGTCGCGATTGCCAGCAACAATGGCGGCAAACAGGCTTTAGAGACAGTGCAACGCCTGCTTCCGGTTCTCTGTCAGGATCATGGCTTAACACCGGATCAAGTAGTGGCGATTGCGAGCAACAATGGTGGCAAACAGGCGTTAGAAACCGTTCAACGCCTGTTACCAGTTTTATGTCAAGATCATGGCCTGACCCCGGATCAGGTTGTTGCCATTGCATCGAACATTGGTGGTAAACAGGCTCTGGAAACCGTTCAGCGTTTACTGCCGGTGCTGTGCCAGGACCACGGTTTAACGCCAGACCAGGTGGTGGCGATTGCGTCTAACATTGGTGGTAAACAAGCCCTGGAAACTGTACAGCGCCTGTTACCTGTCTTATGCCAGGATCATGGTCTGACTCCAGATCAGGTTGTTGCGATCGCCAGCCACGATGGCGGGAAACAGGCATTAGAAACCGTCCAGCGTCTGTTGCCGGTGTTATGCCAGGACCACGGTCTGACCCCTGACCAAGTGGTTGCGATTGCGAGCAACATTGGCGGTAAGCAAGCGCTGGAGACAGTGCAGCGCTTATTACCAGTTCTGTGTCAAGATCATGGTCTGACCCCGGATCAGGTGGTTGCCATCGCGTCGAACGGTGGCGGGAAACAGGCGCTGGAAACGGTGCAGCGTTTACTGCCGGTGCTGTGTCAGGATCATGGTTTAACTCCAGATCAGGTTGTGGCTATTGCATCTAACAATGGTGGCAAACAGGCATTAGAAACGGTTCAGCGTCTGCTCCCTGTATTATGCCAGGATCATGGC'
p82
aS'CTGACGCCGGATCAAGTGGTAGCAATCGCTAGTCACGATGGTGGTAAACAGGCACTGGAAACCGTACAGCGTCTGCTGCCGGTACTTTGCCAGGACCACGGGCTCACACCGGATCAGGTAGTGGCTATCGCGTCACACGATGGCGGTAAACAGGCCTTAGAGACAGTTCAGCGTCTTCTGCCGGTACTGTGCCAGGACCACGGTTTAACTCCTGACCAGGTCGTAGCTATCGCTTCGAACGGTGGTGGCAAACAAGCACTGGAAACCGTCCAACGTCTGTTGCCGGTGCTGTGCCAAGACCACGGCCTTACCCCGGATCAGGTCGTGGCCATTGCATCACACGATGGCGGTAAGCAGGCCCTGGAGACAGTGCAGCGCCTGCTGCCGGTCCTGTGTCAAGACCACGGGCTGACGCCGGATCAAGTAGTCGCAATCGCCTCAAACATTGGTGGCAAACAGGCTCTGGAAACGGTGCAGCGTTTATTACCAGTGCTGTGTCAGGATCATGGCCTGACCCCTGACCAGGTTGTGGCTATCGCCAGCAACGGTGGCGGTAAACAAGCGCTGGAAACGGTTCAACGCTTACTGCCGGTTTTATGCCAGGATCATGGCCTGACACCGGACCAAGTAGTTGCAATCGCAAGCCACGATGGCGGTAAACAAGCACTCGAAACCGTGCAACGCCTGCTGCCGGTCCTGTGCCAGGATCACGGTTTAACCCCGGATCAGGTGGTAGCGATTGCTAGTAACATTGGTGGCAAACAAGCGCTCGAAACTGTCCAGCGCCTGCTGCCGGTTCTGTGTCAGGATCATGGCTTAACCCCGGACCAGGTTGTCGCGATTGCCAGCAACAATGGCGGCAAACAGGCTTTAGAGACAGTCCAACGCCTGCTTCCGGTTCTTTGTCAGGATCATGGCTTAACACCGGATCAAGTAGTGGCGATTGCGAGCAACAATGGTGGCAAACAGGCGTTAGAAACCGTTCAGCGCCTGTTACCAGTTTTATGTCAAGATCATGGCCTGACCCCGGATCAGGTTGTTGCCATTGCATCGAACATTGGTGGTAAACAGGCTCTGGAAACCGTTCAGCGTTTACTGCCGGTGCTGTGCCAGGACCACGGTTTAACGCCAGACCAGGTGGTGGCGATTGCGTCTAACATTGGTGGTAAACAAGCCCTGGAAACTGTACAGCGCCTGTTACCTGTCTTATGCCAGGATCATGGTCTGACTCCAGATCAGGTTGTTGCGATCGCCAGCCACGATGGCGGGAAACAGGCATTAGAAACCGTGCAGCGTCTGTTGCCGGTGTTATGCCAAGACCACGGTCTGACCCCTGACCAGGTGGTTGCGATTGCGAGCAACATTGGCGGTAAGCAAGCGCTGGAGACAGTGCAGCGCTTATTACCAGTTCTGTGTCAGGATCATGGTCTGACCCCGGATCAGGTGGTTGCCATCGCGTCGAACGGTGGCGGGAAACAGGCGCTGGAAACGGTGCAGCGTTTACTGCCGGTGCTGTGCCAGGATCATGGTTTAACTCCAGATCAGGTTGTCGCTATTGCTTCTAACAATGGTGGCAAACAGGCATTAGAAACGGTTCAGCGTCTGCTCCCTGTATTATGCCAGGATCATGGC'
p83
aS'CTGACGCCGGATCAAGTGGTAGCAATCGCTAGTCACGATGGTGGTAAACAGGCGCTTGAAACCGTACAGCGTCTGCTGCCGGTACTCTGCCAGGACCACGGGCTCACACCGGATCAGGTAGTGGCAATCGCGTCACACGATGGCGGCAAACAGGCCTTAGAGACAGTTCAGCGTCTTCTGCCGGTGCTGTGCCAGGACCACGGTTTAACTCCTGACCAGGTCGTAGCTATCGCTTCGAACGGTGGTGGCAAACAAGCACTGGAAACCGTCCAACGTCTGTTGCCGGTGCTGTGCCAAGACCACGGCCTTACCCCGGATCAGGTCGTGGCCATTGCATCACACGATGGCGGTAAGCAGGCCCTGGAGACAGTGCAGCGCCTGCTGCCGGTCCTGTGTCAAGACCACGGGCTGACGCCGGATCAAGTAGTCGCAATCGCCTCAAACATTGGGGGCAAACAGGCTCTGGAAACGGTGCAGCGTTTATTACCAGTGCTGTGTCAGGATCATGGCCTGACCCCTGACCAGGTTGTGGCTATCGCCAGCAACGGTGGCGGTAAACAAGCGCTGGAAACGGTTCAACGCTTACTGCCGGTTTTATGCCAGGATCATGGCCTGACACCGGACCAAGTAGTTGCAATCGCAAGCCACGATGGCGGTAAACAAGCACTCGAAACCGTGCAACGCCTGCTGCCGGTCCTGTGCCAGGATCACGGTTTAACCCCGGATCAAGTGGTAGCGATTGCTAGTAACATTGGTGGCAAACAGGCGCTCGAAACTGTCCAGCGCCTGCTGCCGGTTCTGTGCCAAGATCATGGCTTAACCCCGGACCAGGTTGTCGCCATTGCCAGCAACAATGGCGGCAAACAGGCTTTAGAGACAGTCCAACGCCTGCTTCCGGTTCTCTGTCAGGATCATGGCTTAACACCGGATCAAGTAGTGGCGATTGCGAGCAACAATGGTGGCAAGCAGGCGTTAGAAACCGTTCAGCGCCTGTTACCAGTTTTATGTCAAGATCATGGCCTGACCCCGGATCAGGTTGTTGCCATTGCATCGAACATTGGTGGTAAACAGGCTCTGGAAACCGTTCAGCGTTTACTGCCGGTGCTGTGTCAGGACCACGGTTTAACACCAGACCAGGTGGTGGCGATTGCGTCTAACATTGGTGGTAAACAAGCCCTGGAAACTGTACAGCGCCTGTTACCTGTCTTATGCCAGGATCATGGTCTGACCCCAGATCAGGTTGTTGCGATCGCCAGCCACGATGGCGGGAAACAGGCATTAGAAACCGTCCAGCGTCTGTTGCCGGTGTTATGCCAAGACCACGGTCTGACCCCTGACCAGGTGGTTGCGATTGCGAGCAACATTGGCGGTAAGCAAGCGCTGGAGACAGTGCAGCGCTTATTACCAGTTCTGTGCCAGGATCATGGTCTGACCCCGGATCAGGTGGTTGCCATCGCGTCGAACGGTGGCGGGAAACAGGCGCTGGAAACGGTGCAGCGTTTACTGCCGGTGCTGTGTCAAGATCATGGTTTAACTCCAGATCAGGTTGTGGCCATTGCATCTAACAATGGTGGCAAACAGGCCTTAGAAACGGTTCAGCGTCTGCTCCCTGTATTATGCCAGGATCATGGT'
p84
aS'CTGACGCCGGATCAAGTGGTAGCAATCGCTAGTCACGATGGTGGTAAACAGGCACTGGAAACCGTACAGCGTCTGCTGCCGGTACTTTGCCAGGACCACGGGCTCACACCGGATCAGGTAGTCGCAATCGCGTCACACGATGGCGGTAAACAGGCCTTAGAGACAGTTCAGCGTCTTCTGCCAGTACTGTGCCAGGACCACGGTTTAACTCCTGACCAGGTCGTAGCTATCGCTTCGAACGGTGGTGGCAAACAAGCACTGGAAACTGTCCAACGTCTGTTGCCGGTGCTGTGCCAAGACCACGGCCTTACACCGGATCAGGTCGTGGCCATTGCGTCACACGATGGCGGTAAGCAGGCCCTGGAGACAGTGCAGCGCCTGCTGCCGGTCCTGTGTCAAGACCACGGGCTGACGCCGGATCAAGTAGTCGCAATCGCCTCAAACATTGGGGGCAAACAGGCTTTAGAAACGGTGCAGCGTTTATTACCAGTGCTGTGTCAGGATCATGGCCTGACCCCTGACCAGGTTGTGGCTATCGCCAGCAACGGTGGCGGTAAACAAGCGCTGGAAACGGTTCAACGCTTACTGCCGGTTTTATGCCAGGATCATGGCCTGACACCGGACCAAGTGGTTGCAATCGCAAGCCACGATGGGGGCAAACAAGCACTCGAAACCGTGCAACGCCTGCTGCCGGTCCTGTGTCAGGATCACGGTTTAACCCCGGATCAGGTGGTAGCGATTGCTAGTAACATTGGTGGCAAACAGGCGCTCGAAACTGTCCAGCGCCTGCTGCCGGTTCTGTGCCAGGATCATGGCTTAACCCCGGACCAGGTTGTCGCGATTGCCAGCAACAATGGCGGCAAACAGGCTTTAGAGACAGTGCAACGCCTGCTTCCGGTGCTCTGTCAGGATCATGGCTTAACACCGGATCAGGTGGTGGCGATTGCGAGCAACAATGGTGGCAAACAGGCGTTAGAAACCGTTCAGCGCCTGTTACCAGTTCTGTGTCAAGATCATGGCCTGACCCCGGATCAGGTTGTTGCCATTGCATCGAACATTGGTGGTAAACAGGCTCTGGAAACCGTTCAGCGTTTACTGCCGGTGCTGTGCCAGGACCACGGGTTAACGCCAGACCAGGTGGTGGCGATTGCGTCTAACATTGGTGGTAAACAAGCCCTGGAAACTGTACAGCGCCTGTTACCTGTCTTATGCCAGGATCATGGTCTGACCCCAGATCAGGTTGTTGCGATCGCCAGCCACGATGGCGGGAAACAGGCATTAGAAACCGTCCAGCGTCTGTTGCCGGTGTTATGCCAAGACCACGGTCTGACCCCTGACCAGGTGGTTGCGATTGCGAGCAACATTGGCGGTAAGCAAGCGCTGGAGACAGTGCAGCGCTTATTACCAGTTCTGTGTCAGGATCATGGTCTGACCCCGGATCAGGTCGTTGCCATCGCGTCGAACGGTGGCGGGAAACAGGCGCTGGAAACGGTGCAGCGTTTACTGCCGGTGCTGTGTCAGGATCATGGTTTAACTCCAGATCAGGTTGTGGCCATTGCATCTAACAATGGTGGCAAACAGGCATTAGAAACGGTTCAGCGTCTGCTCCCTGTATTATGCCAGGATCATGGC'
p85
aS'CTGACGCCGGATCAAGTGGTAGCAATCGCTAGTCACGATGGTGGTAAACAGGCGCTGGAAACCGTACAGCGTCTGCTGCCGGTATTATGCCAGGACCACGGGCTCACACCGGATCAGGTAGTGGCAATCGCGTCACACGATGGCGGCAAACAGGCCTTAGAGACAGTTCAGCGTCTTCTGCCGGTGCTGTGCCAGGACCACGGTTTAACTCCTGACCAGGTCGTAGCTATCGCTTCGAACGGTGGTGGCAAACAAGCACTGGAAACCGTCCAACGTCTGTTGCCGGTGCTGTGCCAAGACCACGGCCTTACACCGGATCAGGTCGTGGCCATTGCGTCACACGATGGCGGTAAGCAGGCCCTGGAGACAGTGCAGCGCCTGCTGCCGGTCCTGTGCCAGGACCACGGGCTGACGCCGGATCAAGTGGTCGCTATCGCCTCAAACATTGGGGGCAAACAGGCTCTGGAAACGGTGCAGCGTTTATTACCAGTGCTGTGTCAGGATCATGGCCTGACCCCTGACCAGGTTGTGGCTATCGCCAGCAACGGTGGCGGTAAACAAGCGCTGGAAACGGTTCAGCGCTTACTGCCGGTTTTATGCCAGGATCATGGCCTGACCCCGGACCAAGTGGTTGCAATCGCAAGCCACGATGGGGGTAAACAAGCACTCGAAACCGTGCAACGCCTGCTGCCGGTCCTGTGCCAGGATCACGGTTTAACCCCGGATCAGGTGGTAGCCATTGCTAGTAACATTGGTGGCAAACAGGCGCTCGAAACTGTCCAGCGCCTGCTGCCGGTTCTGTGCCAGGATCACGGCTTAACCCCGGACCAGGTTGTCGCGATTGCAAGCAACAATGGCGGCAAACAGGCTTTAGAGACAGTGCAACGCCTGCTTCCGGTTCTCTGTCAGGATCATGGCTTAACACCGGATCAGGTAGTGGCGATTGCCAGCAACAATGGTGGCAAACAGGCGTTAGAAACCGTTCAGCGCCTGTTACCAGTTTTATGTCAAGATCATGGCCTGACCCCGGATCAAGTTGTTGCCATTGCATCGAACATTGGTGGTAAACAGGCTCTGGAAACCGTTCAGCGTTTACTGCCTGTGCTGTGCCAGGACCACGGTTTAACGCCAGACCAGGTGGTGGCGATTGCGTCCAACATTGGTGGTAAACAAGCCCTGGAAACTGTACAGCGCCTGTTACCTGTCTTATGCCAGGATCATGGTCTGACTCCAGATCAGGTTGTTGCGATCGCCAGCCACGATGGCGGGAAACAGGCATTAGAAACCGTCCAGCGTCTGTTGCCGGTGTTATGCCAGGACCACGGTCTGACCCCTGACCAAGTGGTGGCGATTGCGAGCAACATTGGCGGTAAGCAAGCCCTGGAGACAGTGCAGCGCTTATTACCAGTTCTGTGTCAGGATCATGGTCTGACCCCGGATCAGGTGGTTGCCATCGCGTCGAACGGTGGCGGGAAACAGGCGCTGGAAACGGTGCAGCGTTTACTGCCGGTGCTGTGTCAAGATCATGGTTTAACTCCAGATCAGGTTGTGGCCATTGCATCTAACAATGGTGGCAAACAGGCCTTAGAAACGGTTCAGCGTCTGCTCCCTGTATTATGCCAGGATCATGGC'
p86
aS'CTGACGCCGGATCAAGTGGTAGCCATCGCTAGTCACGATGGTGGTAAACAGGCGCTGGAAACCGTACAGCGTCTGCTGCCGGTACTCTGCCAGGACCACGGGCTCACACCGGATCAGGTCGTGGCAATCGCGTCACACGATGGCGGCAAACAGGCCTTAGAGACAGTTCAGCGTCTTCTGCCAGTGCTGTGCCAGGACCACGGTTTAACTCCTGACCAGGTCGTAGCTATCGCTTCGAACGGTGGTGGCAAACAGGCACTGGAAACTGTCCAACGTCTGTTGCCGGTGCTGTGCCAAGACCACGGCCTTACCCCGGATCAGGTCGTGGCCATTGCATCACACGATGGCGGTAAACAGGCCCTGGAGACAGTGCAGCGCCTGCTGCCGGTCCTGTGTCAGGACCACGGGCTGACGCCGGATCAAGTAGTCGCCATCGCCTCAAACATTGGGGGCAAACAGGCTCTGGAAACGGTGCAGCGTTTATTACCAGTGCTGTGTCAGGATCATGGCCTGACCCCTGACCAGGTTGTGGCTATCGCCAGCAACGGTGGCGGTAAACAAGCTCTGGAAACGGTTCAACGCTTACTGCCGGTTTTATGCCAGGATCACGGCCTGACACCGGACCAAGTGGTTGCAATCGCAAGCCACGATGGGGGTAAACAAGCCCTCGAAACCGTGCAACGCCTTCTGCCGGTCCTGTGCCAAGATCACGGTTTAACCCCGGATCAGGTGGTAGCGATTGCTAGTAACATTGGTGGCAAACAGGCGCTCGAAACTGTCCAGCGCCTGCTGCCGGTTCTGTGTCAGGATCATGGCTTAACCCCGGACCAGGTTGTCGCGATTGCCAGCAACAATGGCGGCAAACAGGCTTTAGAGACAGTCCAACGCCTGCTTCCGGTTCTTTGTCAGGATCATGGCTTAACACCGGATCAAGTCGTGGCGATTGCGAGCAACAATGGTGGCAAACAGGCGTTAGAAACCGTTCAGCGCCTGTTACCAGTTTTATGTCAAGATCATGGCCTGACCCCGGATCAGGTTGTTGCCATTGCATCGAACATTGGTGGTAAACAGGCTCTGGAAACCGTTCAGCGTTTACTGCCGGTGCTGTGCCAGGACCACGGTTTAACGCCAGACCAGGTGGTGGCGATTGCGTCTAACATTGGTGGTAAACAAGCCCTGGAAACTGTACAGCGCCTGTTACCTGTCTTATGCCAGGATCATGGTCTGACACCAGATCAGGTAGTTGCGATCGCCAGCCACGATGGCGGGAAACAGGCATTAGAAACCGTCCAGCGTCTGTTGCCGGTGTTATGCCAGGACCACGGTCTGACCCCTGACCAAGTGGTGGCGATTGCGAGCAACATTGGCGGTAAGCAAGCGCTGGAGACAGTGCAGCGCCTCTTACCAGTTCTGTGTCAAGATCATGGTCTGACCCCGGATCAGGTGGTTGCCATCGCGTCGAACGGTGGCGGGAAGCAAGCGCTGGAAACGGTGCAACGTTTACTGCCGGTGCTGTGTCAGGATCATGGTTTAACTCCAGATCAGGTTGTCGCTATTGCATCTAACAATGGTGGCAAACAGGCATTAGAAACGGTTCAGCGTCTGCTCCCTGTATTATGCCAGGATCATGGC'
p87
aS'CTGACGCCGGATCAAGTGGTAGCAATCGCTAGTCACGATGGTGGTAAACAGGCGCTGGAAACCGTACAGCGTCTGCTGCCGGTATTATGCCAGGACCACGGGCTCACACCGGATCAGGTAGTGGCAATCGCGTCACACGATGGCGGTAAACAGGCCTTAGAGACAGTTCAGCGTCTTCTGCCGGTACTGTGCCAGGACCACGGTTTAACTCCTGACCAGGTCGTAGCTATCGCTTCGAACGGTGGTGGCAAGCAAGCACTGGAAACCGTCCAACGTCTGTTGCCGGTGCTGTGCCAAGACCACGGCCTTACACCGGATCAAGTCGTGGCCATTGCATCACACGATGGCGGTAAGCAGGCCCTGGAGACAGTGCAGCGCCTGCTGCCGGTCCTGTGTCAAGACCACGGGCTGACCCCGGATCAAGTTGTCGCAATCGCCTCAAACATTGGGGGCAAACAGGCTTTAGAAACGGTGCAGCGTTTATTACCAGTGCTGTGTCAGGATCATGGCCTGACCCCTGACCAGGTTGTGGCTATCGCCAGCAACGGTGGCGGTAAACAAGCGCTGGAAACGGTTCAACGCTTACTGCCGGTTTTATGCCAGGATCATGGCCTGACCCCGGACCAAGTGGTTGCAATCGCAAGCCACGATGGGGGTAAACAGGCACTCGAAACCGTGCAACGCCTGCTGCCGGTCCTGTGCCAGGATCACGGTTTAACCCCGGATCAGGTGGTAGCGATTGCTAGTAACATTGGTGGCAAACAGGCGCTCGAAACTGTCCAGCGCCTGCTGCCGGTTCTGTGCCAGGATCACGGCTTAACCCCGGATCAGGTTGTCGCGATTGCCAGCAACAATGGCGGCAAACAGGCTTTAGAGACAGTGCAACGCCTGCTTCCGGTTCTCTGTCAGGATCATGGCTTAACACCGGATCAAGTAGTGGCGATTGCGAGCAACAATGGTGGCAAACAGGCGTTAGAAACCGTTCAGCGCCTGTTACCAGTTTTATGTCAAGATCATGGCCTGACCCCGGATCAAGTTGTTGCCATTGCATCGAACATTGGTGGTAAACAGGCTCTGGAAACCGTTCAGCGTTTACTGCCGGTGCTGTGCCAGGACCACGGGTTAACGCCAGACCAGGTGGTGGCGATTGCGTCTAACATTGGTGGTAAACAAGCCCTGGAAACTGTACAGCGCCTGTTACCTGTCTTATGCCAGGATCATGGTCTGACCCCAGATCAGGTTGTTGCGATCGCCAGCCACGATGGCGGGAAACAGGCATTAGAAACCGTCCAGCGTCTGTTGCCGGTGTTATGCCAAGACCACGGTCTGACCCCTGACCAGGTGGTTGCGATTGCGAGCAACATTGGCGGTAAGCAAGCGCTGGAGACAGTGCAGCGCTTATTACCAGTTCTGTGTCAGGATCATGGTCTGACCCCGGATCAGGTCGTTGCCATCGCGTCGAACGGTGGCGGGAAACAGGCGCTGGAAACGGTGCAGCGTTTACTGCCGGTGCTGTGTCAGGATCATGGTTTAACTCCAGATCAGGTCGTCGCTATTGCATCTAACAATGGTGGCAAACAGGCATTAGAAACGGTTCAGCGTCTGCTCCCGGTCTTATGCCAGGATCATGGC'
p88
aS'CTGACGCCGGATCAAGTGGTAGCAATCGCTAGTCACGATGGTGGTAAACAGGCACTGGAAACCGTACAGCGTCTGCTGCCGGTACTTTGCCAGGACCACGGGCTCACACCGGATCAGGTAGTGGCTATCGCGTCACACGATGGCGGTAAACAGGCCTTAGAGACAGTTCAGCGTCTTCTGCCGGTACTGTGCCAGGACCACGGTTTAACTCCTGACCAGGTCGTAGCTATCGCTTCGAACGGTGGTGGCAAGCAAGCACTGGAAACCGTCCAACGTCTGTTGCCGGTGCTGTGCCAAGACCACGGCCTTACACCGGATCAGGTCGTGGCCATTGCATCACACGATGGCGGTAAGCAGGCCCTGGAGACAGTGCAGCGCCTGCTGCCGGTCCTGTGTCAAGACCACGGGCTGACGCCGGATCAAGTAGTCGCAATCGCCTCAAACATTGGGGGGAAACAGGCTCTGGAAACGGTGCAGCGTTTATTACCAGTGCTGTGTCAGGATCATGGCCTGACCCCTGACCAGGTTGTGGCTATCGCCAGCAACGGTGGCGGTAAACAAGCGCTGGAAACGGTTCAACGCTTACTGCCGGTTTTATGCCAGGATCATGGCCTGACCCCGGACCAAGTGGTTGCAATCGCAAGCCACGATGGGGGTAAACAGGCACTCGAAACCGTGCAACGCCTGCTGCCAGTCCTGTGCCAGGATCACGGTTTAACCCCGGATCAGGTGGTAGCGATTGCTAGTAACATTGGTGGCAAACAGGCGCTCGAAACTGTCCAGCGCCTGCTGCCGGTTCTGTGCCAGGATCACGGCTTAACCCCGGATCAGGTTGTCGCGATTGCCAGCAACAATGGCGGCAAACAGGCTTTAGAGACAGTGCAACGCCTGCTTCCGGTTCTCTGTCAGGATCATGGCTTAACACCGGATCAGGTAGTGGCGATTGCGAGCAACAATGGTGGCAAACAGGCGTTAGAAACCGTTCAGCGCCTGTTACCAGTTTTATGTCAAGATCATGGCCTGACCCCGGATCAAGTTGTTGCCATTGCATCGAACATTGGTGGTAAACAGGCTCTGGAAACCGTTCAGCGTTTACTGCCGGTGCTGTGCCAGGACCACGGTTTAACGCCAGACCAGGTGGTGGCGATTGCGTCTAACATTGGTGGTAAACAAGCCCTGGAAACTGTACAGCGCCTGTTACCTGTCTTATGCCAGGATCATGGTCTGACACCAGATCAGGTAGTTGCGATCGCCAGCCACGATGGCGGGAAACAGGCATTAGAAACCGTCCAGCGTCTGTTGCCGGTGTTATGCCAGGATCACGGTCTGACCCCTGACCAAGTGGTTGCGATTGCGAGCAACATTGGCGGTAAGCAAGCGCTGGAGACAGTGCAGCGCTTATTACCAGTTCTGTGTCAAGATCATGGTCTGACCCCGGATCAGGTGGTTGCCATCGCGTCGAACGGTGGCGGGAAACAGGCGCTGGAAACGGTGCAGCGTTTACTGCCGGTGCTGTGTCAGGATCATGGTTTAACTCCAGATCAGGTTGTCGCTATTGCTTCTAACAATGGTGGCAAACAGGCATTAGAAACGGTTCAGCGTCTGCTTCCTGTATTATGCCAGGATCATGGC'
p89
aS'CTGACCCCGGATCAAGTGGTAGCAATCGCTAGTCACGATGGTGGTAAACAGGCGCTTGAAACCGTACAGCGTCTGCTGCCGGTATTATGCCAGGACCACGGGCTCACACCGGATCAGGTAGTGGCAATCGCGTCACACGATGGCGGCAAGCAGGCCTTAGAGACAGTTCAGCGTCTTCTGCCGGTGCTGTGCCAGGACCACGGTTTAACTCCTGACCAGGTCGTAGCTATCGCTTCGAACGGTGGTGGCAAGCAAGCACTGGAAACCGTCCAACGTCTGTTGCCGGTGCTGTGCCAAGACCACGGCCTTACACCGGATCAGGTCGTGGCCATTGCTTCACACGATGGCGGGAAGCAGGCCCTGGAGACAGTGCAGCGCCTGCTGCCGGTCCTGTGTCAAGACCACGGGCTGACGCCGGATCAAGTAGTCGCAATCGCCTCAAACATTGGGGGCAAACAGGCTCTGGAAACGGTGCAGCGTTTATTACCAGTGCTGTGTCAGGATCATGGCCTGACCCCTGACCAGGTTGTGGCTATCGCCAGCAACGGTGGCGGTAAACAAGCGCTGGAAACGGTTCAACGCTTACTGCCGGTTTTATGCCAGGATCATGGCCTGACCCCGGACCAAGTGGTTGCAATCGCAAGCCACGATGGGGGTAAACAGGCACTCGAAACCGTGCAACGCCTGCTGCCGGTCCTGTGCCAGGATCACGGTTTAACCCCAGATCAGGTGGTAGCGATTGCTAGTAACATTGGTGGCAAACAGGCGCTCGAAACTGTCCAGCGCCTGCTGCCGGTTCTGTGCCAGGATCACGGCTTAACCCCGGACCAGGTTGTCGCGATTGCCAGCAACAATGGCGGCAAACAGGCTTTAGAGACAGTGCAACGCCTGCTTCCGGTTCTCTGTCAGGATCATGGCTTAACACCGGATCAGGTAGTGGCGATTGCGAGCAACAATGGTGGCAAACAGGCGTTAGAAACCGTTCAGCGCCTGTTACCAGTTTTATGTCAAGATCATGGCCTGACCCCGGATCAAGTTGTTGCCATTGCATCGAACATTGGTGGTAAACAGGCTCTGGAAACCGTTCAGCGTTTACTGCCGGTGCTGTGCCAGGACCACGGTTTAACGCCAGACCAGGTGGTGGCGATTGCGTCTAACATTGGTGGTAAACAAGCCCTGGAAACTGTACAGCGCCTGTTACCTGTCTTATGCCAGGATCATGGTCTGACTCCAGATCAGGTTGTTGCGATCGCCAGCCACGATGGCGGGAAACAGGCATTAGAAACCGTGCAGCGTCTGTTGCCGGTGTTATGCCAAGACCACGGTCTGACCCCTGACCAGGTGGTTGCGATTGCGAGCAACATTGGCGGTAAGCAAGCGCTGGAGACAGTGCAGCGCTTATTACCAGTTCTGTGTCAGGATCATGGTCTGACCCCGGATCAGGTGGTTGCCATCGCGTCGAACGGTGGCGGGAAACAAGCGCTGGAAACGGTGCAGCGTTTACTGCCGGTGCTGTGTCAGGATCATGGGTTAACTCCAGATCAGGTTGTCGCTATTGCATCTAACAATGGTGGCAAACAGGCATTAGAAACGGTTCAGCGTCTGCTCCCTGTATTATGCCAGGATCATGGC'
p90
aS'CTGACGCCGGATCAAGTGGTAGCAATCGCTAGTCACGATGGTGGTAAACAGGCGCTGGAAACCGTACAGCGTCTGCTGCCGGTATTATGCCAGGACCACGGGCTCACACCGGATCAGGTGGTGGCAATCGCGTCACACGATGGCGGTAAACAGGCCTTAGAGACAGTTCAGCGTCTTCTGCCGGTACTGTGCCAGGACCACGGTTTAACTCCTGACCAGGTCGTAGCTATCGCTTCGAACGGTGGTGGCAAGCAAGCACTGGAAACCGTCCAACGTCTGTTGCCGGTGCTGTGCCAAGACCACGGCCTTACACCGGATCAGGTCGTGGCCATTGCATCACACGATGGCGGTAAGCAGGCCCTGGAGACAGTGCAGCGCCTGCTGCCGGTCTTATGTCAAGACCACGGGCTGACGCCGGATCAAGTAGTCGCAATCGCCTCAAACATTGGGGGCAAACAGGCTCTGGAAACGGTGCAGCGTTTATTACCAGTGCTGTGTCAGGATCATGGCCTGACCCCTGACCAGGTTGTGGCTATCGCCAGCAACGGTGGCGGTAAACAAGCGCTGGAAACGGTTCAACGCTTACTGCCGGTTTTATGCCAGGATCATGGGCTGACACCGGACCAAGTGGTTGCAATCGCAAGCCACGATGGGGGTAAGCAAGCACTCGAAACCGTGCAACGCCTGCTGCCGGTCCTGTGCCAGGATCACGGTTTAACCCCGGATCAAGTGGTAGCCATTGCAAGTAACATTGGTGGCAAACAGGCGCTCGAAACTGTCCAGCGCTTACTGCCAGTTCTGTGTCAGGATCATGGCTTAACCCCGGACCAGGTTGTCGCGATTGCCAGCAACAATGGCGGCAAACAGGCTTTAGAGACAGTGCAACGCCTGCTTCCGGTTCTCTGTCAGGATCATGGCTTAACACCGGATCAAGTAGTGGCGATTGCGAGCAACAATGGTGGCAAACAGGCGTTAGAAACCGTTCAACGCCTGTTACCAGTTTTATGTCAAGATCATGGCCTGACCCCGGATCAGGTTGTTGCCATTGCATCGAACATTGGTGGTAAACAGGCTTTGGAAACCGTTCAGCGTTTACTGCCGGTGCTGTGCCAGGACCACGGGTTAACGCCAGACCAGGTGGTGGCGATTGCGTCTAACATTGGTGGTAAACAAGCCCTGGAAACTGTACAGCGCCTGTTACCTGTCTTATGCCAGGATCATGGTCTGACCCCAGATCAGGTTGTTGCGATCGCCAGCCACGATGGCGGGAAACAGGCATTAGAAACCGTCCAGCGTCTGTTGCCGGTGTTATGCCAAGACCACGGTCTGACCCCTGACCAGGTGGTTGCGATTGCGAGCAACATTGGCGGTAAGCAAGCGCTGGAGACAGTGCAGCGCTTATTACCAGTTCTGTGTCAGGATCATGGTCTGACCCCGGATCAGGTCGTTGCCATCGCGTCGAACGGTGGCGGGAAACAGGCGCTGGAAACGGTGCAGCGTTTACTGCCGGTGCTGTGTCAGGATCATGGTTTAACTCCAGATCAGGTTGTCGCTATTGCATCTAACAATGGTGGCAAACAGGCATTAGAAACGGTTCAGCGTCTGCTCCCTGTATTATGCCAGGATCATGGC'
p91
aS'CTGACGCCGGATCAAGTGGTAGCAATCGCTAGTCACGATGGTGGCAAACAGGCGCTGGAAACCGTACAGCGTCTGCTGCCGGTATTATGCCAGGACCACGGGCTCACACCGGATCAGGTAGTGGCAATCGCGTCACACGATGGCGGCAAACAGGCCTTAGAGACAGTTCAGCGTCTTCTGCCGGTGCTGTGCCAGGACCACGGTTTAACTCCTGACCAGGTCGTAGCTATCGCTTCGAACGGTGGTGGCAAACAAGCACTGGAAACTGTCCAACGTCTGTTGCCGGTGCTGTGCCAAGACCACGGCCTTACACCGGATCAGGTCGTGGCCATTGCGTCACACGATGGCGGTAAGCAGGCCCTGGAGACAGTGCAGCGCCTGCTGCCGGTCCTGTGTCAGGACCACGGGCTGACGCCGGATCAAGTAGTCGCAATCGCCTCAAACATTGGGGGCAAGCAGGCTCTGGAAACGGTGCAGCGTTTATTACCAGTGCTGTGTCAGGATCATGGCCTGACCCCAGACCAGGTTGTGGCTATCGCGAGCAACGGTGGCGGTAAACAAGCGCTGGAAACGGTTCAACGCTTACTGCCGGTTTTATGCCAGGATCATGGCCTGACCCCGGACCAAGTGGTTGCAATCGCAAGCCACGATGGGGGTAAACAAGCACTCGAAACCGTGCAACGCCTGCTTCCGGTCCTGTGCCAGGATCACGGTTTAACCCCGGATCAGGTGGTAGCCATTGCTAGTAACATTGGTGGCAAACAGGCGCTCGAAACTGTCCAACGCCTGCTGCCGGTTCTGTGCCAGGATCACGGCTTAACCCCGGACCAGGTTGTCGCGATTGCCAGCAACAATGGCGGCAAACAGGCTTTAGAGACAGTGCAACGCCTGCTTCCGGTTCTCTGTCAGGATCATGGCTTAACACCGGATCAGGTAGTGGCGATTGCCAGCAACAATGGTGGCAAACAGGCGTTAGAAACCGTTCAGCGCCTGTTACCAGTTTTATGTCAAGATCATGGCCTGACCCCGGATCAAGTTGTTGCCATTGCATCGAACATTGGTGGTAAACAGGCTCTGGAAACCGTTCAGCGTTTACTGCCGGTGCTGTGCCAGGACCACGGTTTAACGCCAGACCAGGTGGTGGCGATTGCGTCTAACATTGGTGGTAAACAAGCCCTGGAAACTGTACAGCGCCTGTTACCTGTCTTATGCCAGGATCATGGTCTGACTCCAGACCAGGTCGTTGCGATCGCCAGCCACGATGGCGGGAAACAGGCATTAGAAACCGTCCAGCGTCTGTTGCCGGTGTTATGCCAAGACCACGGTCTGACCCCTGACCAGGTGGTTGCGATTGCGAGCAACATTGGCGGTAAGCAAGCGCTGGAGACAGTGCAGCGCTTATTACCAGTTCTGTGTCAGGATCACGGTCTGACCCCGGATCAGGTCGTTGCCATCGCGTCGAACGGTGGCGGGAAACAGGCGCTGGAAACGGTGCAGCGTTTACTGCCGGTGCTGTGCCAGGATCATGGTTTAACTCCAGATCAGGTTGTCGCTATTGCATCTAACAATGGCGGCAAACAGGCATTAGAAACGGTTCAGCGTCTGCTCCCTGTATTATGCCAGGATCATGGC'
p92
aS'CTGACGCCGGATCAAGTGGTAGCAATCGCTAGTCACGATGGTGGTAAACAGGCACTGGAAACCGTACAGCGTCTGCTGCCGGTACTTTGCCAGGACCACGGGCTCACACCGGATCAGGTAGTGGCTATCGCTTCACACGATGGCGGTAAACAGGCCTTAGAGACAGTTCAGCGTCTTCTGCCGGTACTGTGCCAGGACCACGGTTTAACTCCTGACCAGGTCGTAGCTATCGCTTCGAACGGTGGTGGCAAGCAAGCACTGGAAACCGTCCAACGTCTGTTGCCGGTGCTGTGCCAAGACCACGGCCTTACACCGGATCAGGTCGTGGCCATTGCATCACACGATGGCGGTAAGCAGGCCCTGGAGACAGTGCAGCGCCTGCTGCCGGTCCTGTGTCAAGACCACGGGCTGACGCCGGATCAAGTAGTCGCAATCGCCTCAAACATTGGGGGCAAACAGGCTCTGGAAACGGTGCAGCGTTTATTACCAGTGCTGTGTCAGGATCATGGCCTGACCCCTGACCAGGTTGTGGCTATCGCCAGCAACGGTGGCGGTAAACAAGCGCTGGAAACGGTTCAACGCTTACTGCCGGTTTTATGCCAGGATCATGGCCTGACCCCGGACCAAGTGGTTGCAATCGCAAGCCACGATGGGGGTAAACAGGCACTCGAAACCGTGCAACGCCTGCTGCCGGTCCTGTGCCAAGATCACGGTTTAACCCCGGATCAAGTGGTAGCGATTGCTAGTAACATTGGTGGCAAACAGGCGCTCGAAACTGTCCAGCGCCTGCTGCCGGTTCTGTGCCAGGATCACGGCTTAACCCCGGATCAGGTTGTCGCGATTGCCAGCAACAATGGCGGCAAACAGGCTTTAGAGACAGTGCAACGCCTGCTTCCGGTTCTCTGTCAGGATCATGGCTTAACACCGGATCAGGTAGTGGCGATTGCGAGCAACAATGGTGGCAAACAGGCGTTAGAAACCGTTCAGCGCCTGTTACCAGTTTTATGTCAAGATCATGGCCTGACCCCGGATCAGGTTGTTGCCATTGCATCGAACATTGGTGGTAAACAGGCTCTGGAAACCGTTCAGCGTTTACTGCCGGTGCTGTGCCAGGACCACGGTTTAACGCCAGACCAGGTGGTGGCGATTGCGTCTAACATTGGTGGTAAACAAGCCCTGGAAACTGTACAGCGCCTGTTACCTGTCTTATGCCAGGATCATGGTCTGACACCAGATCAGGTAGTTGCGATCGCCAGCCACGATGGCGGGAAACAGGCATTAGAAACCGTCCAGCGTCTGTTGCCGGTGTTATGCCAAGACCACGGTCTGACCCCTGACCAGGTGGTTGCGATTGCGAGCAACATTGGCGGTAAGCAAGCGCTGGAGACAGTGCAGCGCTTATTACCAGTTCTGTGTCAGGATCATGGTCTGACCCCGGATCAGGTGGTTGCCATCGCGTCGAACGGTGGCGGGAAACAGGCGCTGGAAACGGTGCAGCGTTTACTGCCGGTGCTGTGTCAAGATCATGGTTTGACTCCAGATCAGGTTGTCGCTATTGCATCTAACAATGGTGGCAAACAGGCATTAGAAACGGTTCAGCGTCTGCTCCCTGTATTATGCCAGGATCATGGC'
p93
aS'CTGACGCCGGATCAGGTGGTAGCAATCGCTAGTCACGATGGTGGTAAACAGGCACTGGAAACCGTACAGCGTCTGCTGCCGGTACTTTGCCAGGACCACGGGCTCACACCGGATCAGGTAGTGGCAATCGCGTCACACGATGGCGGTAAACAGGCCTTAGAGACAGTTCAGCGTCTTCTGCCGGTACTGTGCCAGGACCACGGTCTGACTCCTGACCAGGTCGTAGCTATCGCTTCGAACGGTGGTGGCAAGCAAGCACTGGAAACCGTCCAACGTCTGTTGCCGGTGCTGTGCCAAGACCACGGCCTTACACCGGATCAAGTCGTGGCCATTGCGTCACACGATGGCGGTAAGCAGGCCCTGGAGACAGTGCAGCGCCTGCTGCCGGTCCTGTGTCAGGACCACGGGCTGACGCCGGATCAAGTAGTCGCCATCGCCTCAAACATTGGGGGCAAACAGGCTCTGGAAACGGTGCAGCGTTTATTACCAGTGCTGTGTCAAGATCATGGCCTGACCCCTGACCAGGTTGTGGCTATCGCCAGCAACGGTGGCGGTAAACAAGCGCTGGAAACGGTACAACGCTTACTGCCGGTTTTATGCCAGGATCATGGGCTGACACCGGACCAAGTGGTGGCAATCGCAAGCCACGATGGGGGTAAACAAGCCCTCGAAACCGTGCAACGCCTGCTGCCGGTCCTGTGCCAGGATCACGGTTTAACCCCGGATCAGGTGGTAGCCATTGCGAGTAACATTGGTGGCAAACAGGCGCTCGAAACTGTCCAGCGCCTGCTGCCGGTTCTGTGCCAGGATCATGGCTTAACCCCGGATCAAGTTGTCGCGATTGCCAGCAACAATGGCGGCAAACAGGCTTTAGAGACAGTGCAACGCCTGCTTCCGGTTCTCTGTCAGGATCATGGCTTAACACCGGATCAAGTAGTGGCGATTGCGAGCAACAATGGTGGCAAACAGGCGTTAGAAACCGTTCAGCGCCTGTTACCAGTTTTATGTCAAGATCATGGCCTGACCCCGGATCAGGTTGTTGCCATTGCATCGAACATTGGTGGTAAACAGGCTCTGGAAACCGTTCAGCGTTTACTGCCGGTGCTGTGCCAGGACCACGGTTTAACGCCAGACCAGGTGGTGGCGATTGCGTCTAACATTGGTGGTAAACAAGCCCTGGAAACTGTACAGCGCCTGTTACCTGTCTTATGCCAGGATCATGGTCTGACTCCAGATCAGGTTGTTGCGATCGCCAGCCACGATGGCGGGAAACAGGCATTAGAAACCGTGCAGCGTCTGTTGCCGGTGTTATGCCAAGACCACGGTCTGACCCCTGACCAGGTGGTTGCGATTGCGAGCAACATTGGCGGTAAGCAAGCGCTGGAGACAGTGCAGCGCTTATTACCAGTTCTGTGTCAGGATCATGGTCTGACCCCGGATCAGGTCGTTGCCATCGCGTCGAACGGTGGCGGGAAACAGGCGCTGGAAACGGTGCAGCGTTTACTGCCGGTGCTGTGTCAGGATCATGGTTTAACTCCAGATCAGGTCGTCGCTATTGCATCTAACAATGGTGGCAAACAGGCATTAGAAACGGTTCAGCGTCTGCTCCCGGTCTTATGCCAGGATCATGGC'
p94
aS'CTGACGCCGGATCAAGTGGTAGCAATCGCTAGTCACGATGGTGGTAAACAGGCGCTGGAAACCGTACAGCGTCTGCTGCCGGTATTATGCCAGGACCACGGGCTCACACCGGATCAGGTAGTGGCAATCGCGTCACACGATGGCGGCAAACAGGCCTTAGAGACAGTTCAGCGTCTTCTGCCGGTGCTGTGCCAGGACCACGGTTTAACTCCTGACCAGGTCGTAGCTATCGCTTCGAACGGTGGTGGCAAACAAGCACTGGAAACTGTCCAACGTCTGTTGCCGGTGCTGTGCCAAGACCACGGCCTTACACCGGATCAGGTCGTGGCCATTGCGTCACACGATGGCGGTAAGCAGGCCCTGGAGACAGTGCAGCGCCTGCTGCCGGTCCTGTGTCAAGACCACGGGCTGACGCCGGATCAAGTAGTCGCAATCGCCTCAAACATTGGGGGCAAACAGGCTCTGGAAACGGTGCAGCGTTTATTACCAGTGCTGTGTCAGGATCACGGCCTGACCCCTGACCAGGTTGTGGCGATCGCCAGCAACGGTGGCGGTAAGCAAGCGCTGGAAACGGTTCAACGCTTACTGCCGGTTTTATGCCAGGATCATGGCCTGACACCGGACCAAGTGGTTGCAATCGCAAGCCACGATGGGGGTAAGCAAGCACTCGAAACCGTGCAACGCTTACTGCCGGTCCTGTGCCAGGATCACGGTTTAACCCCGGATCAAGTGGTAGCCATTGCAAGTAACATTGGTGGCAAACAGGCGCTCGAAACTGTCCAGCGCTTACTGCCGGTTCTGTGTCAGGATCATGGCTTAACCCCGGACCAGGTTGTCGCGATTGCCAGCAACAATGGCGGCAAACAGGCTTTAGAGACAGTGCAACGCCTGCTTCCGGTTCTCTGTCAGGATCATGGCTTAACACCGGATCAAGTAGTGGCGATTGCGAGCAACAATGGGGGCAAACAGGCGTTAGAAACCGTTCAGCGCCTGTTACCAGTTTTATGTCAAGATCATGGCCTGACCCCGGATCAGGTTGTTGCCATTGCATCGAACATTGGTGGTAAACAGGCTCTGGAAACCGTTCAGCGTTTACTGCCGGTGCTGTGCCAGGACCACGGTTTAACGCCAGACCAGGTGGTGGCGATTGCGTCTAACATTGGTGGTAAACAAGCCTTGGAAACTGTACAGCGCCTGTTACCTGTCTTATGCCAGGATCATGGTCTGACTCCAGACCAGGTCGTTGCGATCGCCAGCCACGATGGCGGGAAACAGGCATTAGAAACTGTCCAGCGTCTGTTGCCGGTGTTATGCCAAGACCACGGTCTGACCCCTGACCAGGTGGTTGCGATTGCGAGCAACATTGGCGGTAAGCAAGCGCTGGAGACAGTGCAGCGCTTATTACCAGTTCTGTGTCAGGATCATGGTCTGACCCCGGATCAGGTGGTTGCCATCGCGTCGAACGGTGGCGGGAAACAGGCGCTGGAAACGGTGCAGCGTTTACTGCCGGTGCTGTGTCAGGATCATGGTTTAACTCCAGATCAGGTTGTCGCTATTGCTTCTAACAATGGTGGCAAACAGGCATTAGAAACGGTTCAGCGTCTGCTCCCTGTCTTATGCCAGGATCATGGC'
p95
aS'CTGACGCCGGATCAAGTGGTAGCAATCGCTAGTCACGATGGTGGTAAACAGGCGCTTGAAACCGTACAGCGTCTGCTGCCGGTATTATGCCAGGACCACGGGCTCACACCGGATCAGGTAGTGGCAATCGCGTCACACGATGGCGGCAAGCAGGCCTTAGAGACAGTTCAGCGTCTTCTGCCGGTGCTGTGCCAGGACCACGGTTTAACTCCTGACCAGGTCGTAGCTATCGCTTCGAACGGTGGTGGCAAGCAAGCACTGGAAACCGTCCAACGTCTGTTGCCGGTGCTGTGCCAAGACCACGGCCTTACACCGGATCAGGTCGTGGCCATTGCTTCACACGATGGCGGGAAGCAGGCCCTGGAGACAGTGCAGCGCCTGCTGCCGGTCCTGTGTCAAGACCACGGGCTGACGCCGGATCAAGTAGTCGCAATCGCCTCAAACATTGGGGGCAAACAGGCTCTGGAAACGGTGCAGCGTTTATTACCAGTGCTGTGTCAGGATCATGGCCTGACCCCTGACCAGGTTGTGGCTATCGCCAGCAACGGTGGCGGTAAACAAGCGCTGGAAACGGTTCAACGCTTACTGCCGGTTTTATGCCAGGATCATGGCCTGACCCCGGACCAAGTGGTTGCAATCGCAAGCCACGATGGGGGTAAACAGGCCCTCGAAACCGTGCAACGCCTGCTGCCGGTCCTGTGCCAGGATCACGGTTTAACCCCAGATCAGGTGGTAGCGATTGCTAGTAACATTGGTGGCAAACAGGCGCTCGAAACTGTCCAGCGCCTGCTGCCGGTTCTGTGCCAGGATCACGGCTTAACCCCGGACCAGGTTGTCGCGATTGCAAGCAACAATGGCGGCAAACAGGCTTTAGAGACAGTCCAACGCCTGCTTCCGGTTCTCTGTCAGGATCATGGCTTAACACCGGATCAGGTCGTGGCGATTGCGAGCAACAATGGTGGCAAACAGGCGTTAGAAACCGTTCAGCGCCTGTTACCAGTTTTATGTCAAGATCATGGCCTGACCCCGGATCAGGTTGTTGCCATTGCATCGAACATTGGTGGTAAACAGGCTCTGGAAACCGTTCAGCGTTTACTGCCGGTGCTGTGCCAGGACCACGGTTTAACGCCAGACCAGGTGGTGGCGATTGCGTCTAACATTGGTGGTAAACAAGCCCTGGAAACTGTACAACGCCTGTTACCTGTCTTATGCCAGGATCATGGTCTGACTCCAGATCAGGTTGTTGCGATCGCCAGCCACGATGGCGGGAAACAGGCATTAGAAACCGTCCAGCGTCTGTTGCCGGTGTTATGCCAAGACCACGGTCTGACCCCTGACCAGGTGGTTGCGATTGCGAGCAACATTGGCGGTAAGCAAGCGCTGGAGACAGTGCAGCGCTTATTACCAGTTCTGTGTCAAGATCATGGTCTGACCCCGGATCAGGTGGTTGCCATCGCGTCGAACGGTGGCGGGAAACAGGCGCTGGAAACGGTGCAGCGTTTACTGCCGGTACTGTGTCAGGATCATGGTTTAACTCCAGATCAGGTCGTCGCTATTGCATCTAACAATGGTGGCAAACAGGCATTAGAAACGGTTCAGCGTCTGCTCCCTGTATTATGCCAGGATCATGGC'
p96
aS'CTGACGCCGGATCAAGTGGTAGCAATCGCTAGTCACGATGGTGGTAAACAGGCGCTGGAAACCGTACAGCGTCTGCTGCCGGTATTATGTCAGGACCACGGGCTCACACCGGATCAAGTAGTGGCAATCGCGTCACACGATGGCGGCAAACAGGCCTTAGAGACAGTTCAGCGTCTTCTGCCGGTACTGTGCCAGGACCACGGTTTAACTCCTGACCAGGTCGTAGCTATCGCTTCGAACGGTGGTGGCAAACAGGCACTGGAAACCGTCCAACGTCTGTTGCCGGTGCTGTGCCAAGACCACGGTCTTACACCGGATCAGGTCGTGGCCATTGCATCACACGATGGCGGTAAGCAGGCCCTGGAGACAGTGCAGCGCCTGCTGCCGGTCCTGTGTCAAGACCACGGGCTGACGCCGGATCAAGTAGTCGCAATCGCCTCAAACATTGGGGGCAAACAGGCTCTGGAAACGGTGCAGCGTTTATTACCAGTGCTGTGTCAGGATCATGGCCTGACCCCTGACCAGGTTGTGGCTATCGCCAGCAACGGTGGCGGTAAGCAAGCGCTGGAAACGGTTCAGCGCTTACTGCCGGTTTTATGCCAGGATCATGGCCTGACACCGGACCAAGTGGTTGCAATCGCAAGCCACGATGGGGGTAAACAAGCACTCGAAACCGTGCAACGTCTGCTGCCGGTCCTGTGCCAGGATCACGGTTTAACCCCGGATCAGGTGGTAGCCATTGCTAGTAACATTGGTGGCAAACAGGCGCTCGAAACTGTCCAGCGCCTGCTGCCGGTTCTGTGCCAGGATCACGGCTTAACCCCGGACCAGGTTGTCGCGATTGCCAGCAACAATGGCGGCAAACAGGCTTTAGAGACAGTGCAACGCCTGCTTCCGGTTCTCTGTCAGGATCATGGCTTAACACCGGATCAGGTAGTGGCGATTGCGTCGAACAATGGTGGCAAACAGGCGTTAGAAACCGTTCAGCGCCTGTTACCAGTTTTATGTCAAGATCATGGCCTGACCCCGGATCAAGTTGTTGCCATTGCATCGAACATTGGTGGTAAACAGGCTCTGGAAACCGTTCAGCGTTTACTGCCGGTGCTGTGCCAGGACCACGGTTTAACGCCAGACCAGGTGGTGGCGATTGCGTCTAACATTGGTGGTAAACAAGCCCTGGAAACTGTACAGCGCCTGTTACCTGTCTTATGCCAGGATCATGGTCTGACTCCAGACCAGGTCGTTGCGATCGCCAGCCACGATGGCGGGAAACAGGCATTAGAAACCGTCCAGCGTCTGTTGCCGGTGTTATGCCAAGACCACGGTCTGACCCCTGACCAGGTGGTTGCGATTGCGAGCAACATTGGCGGTAAGCAAGCGCTGGAGACAGTGCAGCGCTTATTACCAGTTCTGTGTCAAGATCATGGTCTGACCCCGGACCAGGTGGTTGCTATCGCGTCGAACGGTGGCGGGAAGCAGGCGCTGGAAACGGTGCAACGTTTACTGCCGGTGCTGTGTCAGGATCATGGTTTAACTCCAGATCAGGTTGTCGCTATTGCATCTAACAATGGTGGCAAACAGGCATTAGAAACGGTTCAGCGTCTGCTCCCTGTATTATGCCAGGATCACGGC'
p97
aS'CTGACGCCGGATCAAGTGGTAGCAATCGCTAGTCACGATGGTGGTAAACAGGCACTGGAAACCGTACAGCGTCTGCTGCCGGTACTTTGCCAGGACCACGGGCTCACACCGGATCAGGTAGTGGCTATCGCGTCACACGATGGCGGTAAACAGGCCTTAGAGACAGTTCAGCGTCTTCTGCCGGTACTGTGCCAGGACCACGGTTTAACTCCTGACCAGGTCGTAGCTATCGCTTCGAACGGTGGTGGCAAGCAAGCACTGGAAACCGTCCAACGTCTGTTGCCGGTGCTGTGCCAAGACCACGGCCTTACACCGGATCAGGTCGTGGCCATTGCATCACACGATGGCGGTAAGCAGGCCCTGGAGACAGTGCAGCGCCTGCTGCCGGTCCTGTGTCAAGACCACGGGCTGACGCCGGATCAAGTAGTCGCAATCGCCTCAAACATTGGGGGGAAACAGGCTCTGGAAACGGTGCAGCGTTTATTACCAGTGCTGTGTCAGGATCATGGCCTGACCCCTGACCAGGTTGTGGCTATCGCCAGCAACGGTGGCGGTAAACAAGCGCTGGAAACGGTTCAACGCTTACTGCCGGTTTTATGCCAGGATCATGGCCTGACCCCGGACCAAGTGGTTGCAATCGCAAGCCACGATGGGGGTAAACAAGCACTCGAAACCGTGCAACGCCTGCTGCCGGTCTTGTGCCAGGATCACGGTTTAACCCCGGATCAGGTGGTAGCGATTGCTAGTAACATTGGTGGCAAGCAGGCGCTCGAAACTGTCCAGCGCCTGCTGCCGGTACTGTGTCAGGATCATGGCTTAACCCCGGACCAGGTTGTCGCGATTGCCAGCAACAATGGCGGCAAACAGGCTTTAGAGACAGTGCAACGCCTGCTTCCGGTTCTCTGTCAGGATCATGGCTTAACACCGGATCAGGTCGTGGCGATTGCGAGCAACAATGGTGGCAAACAGGCGTTAGAAACCGTTCAGCGCCTGTTACCAGTTTTATGTCAAGATCATGGCCTGACCCCGGATCAGGTTGTTGCCATTGCATCGAACATTGGTGGTAAACAGGCTCTGGAAACCGTTCAGCGTTTACTGCCGGTGCTGTGCCAGGACCACGGTTTAACGCCAGACCAGGTGGTGGCGATTGCGTCTAACATTGGTGGTAAACAAGCCTTAGAAACTGTACAGCGCCTGTTACCTGTCTTATGCCAGGATCATGGTCTGACACCAGATCAGGTAGTTGCGATCGCCAGCCACGATGGCGGGAAACAGGCATTAGAAACCGTCCAGCGTCTGTTGCCGGTGTTATGCCAGGACCACGGTCTGACCCCTGACCAAGTGGTTGCGATTGCGAGCAACATTGGCGGTAAGCAAGCGCTGGAGACAGTGCAGCGCTTATTACCAGTTCTGTGTCAAGATCATGGTCTGACCCCGGATCAGGTGGTTGCCATCGCGTCGAACGGTGGCGGGAAACAGGCGCTGGAAACGGTGCAGCGTTTACTGCCGGTGCTGTGTCAGGATCATGGTTTAACTCCAGATCAGGTTGTCGCTATTGCTTCTAACAATGGTGGCAAACAGGCATTAGAAACGGTTCAGCGTCTGCTTCCTGTATTATGCCAGGATCATGGC'
p98
aS'CTGACGCCGGATCAAGTGGTAGCAATCGCTAGTCACGATGGTGGTAAACAGGCACTGGAAACCGTACAGCGTCTGCTGCCGGTACTTTGCCAGGACCACGGGCTCACACCGGATCAGGTAGTGGCAATCGCGTCACACGATGGCGGTAAACAGGCCTTAGAGACAGTTCAGCGTCTTCTGCCGGTGCTGTGCCAGGACCACGGTTTAACTCCTGACCAGGTCGTAGCGATCGCTTCGAACGGTGGTGGCAAACAAGCACTGGAAACTGTCCAACGTCTGTTGCCGGTGCTGTGCCAAGACCACGGCCTTACACCGGATCAGGTCGTGGCCATTGCGTCACACGATGGCGGTAAGCAGGCCCTGGAGACAGTGCAGCGCCTGCTGCCGGTCCTGTGCCAAGACCACGGGCTGACGCCGGATCAAGTAGTCGCAATCGCCTCAAACATTGGGGGCAAACAGGCTCTGGAAACGGTGCAGCGTTTATTACCAGTGCTGTGCCAGGATCATGGCCTGACCCCTGACCAGGTTGTGGCTATCGCCAGCAACGGTGGCGGTAAACAAGCGCTGGAAACGGTTCAACGCTTACTGCCGGTTTTATGCCAGGATCATGGCCTGACACCGGACCAAGTGGTTGCAATCGCAAGCCACGATGGGGGTAAACAAGCACTCGAAACCGTGCAACGCCTGCTGCCGGTCCTGTGCCAGGATCACGGTTTAACCCCGGATCAGGTGGTAGCGATTGCTAGTAACATTGGTGGCAAGCAGGCGCTCGAAACTGTCCAGCGCCTGCTGCCGGTACTGTGTCAGGATCATGGCTTAACCCCGGACCAGGTTGTCGCGATTGCCAGCAACAATGGCGGCAAACAGGCTTTAGAGACAGTGCAACGCCTGCTTCCGGTTCTCTGTCAGGATCATGGCTTAACACCGGATCAGGTCGTGGCGATTGCGAGCAACAATGGTGGCAAACAGGCGTTAGAAACCGTTCAGCGCCTGTTACCAGTTTTATGTCAAGATCATGGCCTGACCCCGGATCAGGTTGTTGCCATTGCATCGAACATTGGTGGTAAACAGGCTCTGGAAACCGTTCAGCGTTTACTGCCGGTGCTGTGCCAGGACCACGGTTTAACGCCAGACCAGGTGGTGGCGATTGCGTCTAACATTGGTGGTAAACAAGCCTTAGAAACTGTACAACGCCTGTTACCTGTCTTATGCCAGGATCATGGTCTGACACCAGATCAGGTAGTTGCGATCGCCAGCCACGATGGCGGGAAACAGGCATTAGAAACCGTCCAGCGTCTGTTGCCGGTGTTATGCCAGGACCACGGTCTGACCCCTGACCAAGTGGTTGCGATTGCGAGCAACATTGGCGGTAAGCAAGCGCTGGAGACAGTGCAGCGCTTATTACCAGTTCTGTGTCAAGATCATGGTCTGACCCCGGATCAGGTGGTTGCCATCGCGTCGAACGGTGGCGGGAAACAGGCGCTGGAAACGGTGCAGCGTTTACTGCCGGTGCTGTGTCAGGATCATGGTTTAACTCCAGATCAGGTTGTCGCTATTGCTTCTAACAATGGTGGCAAACAGGCATTAGAAACGGTTCAGCGTCTGCTTCCTGTATTATGCCAGGATCATGGC'
p99
aS'CTGACGCCGGATCAGGTGGTCGCAATCGCTAGTCACGATGGTGGGAAACAGGCGCTGGAAACCGTACAGCGTCTGCTGCCGGTACTCTGCCAGGACCACGGGCTCACACCGGATCAGGTAGTGGCAATCGCGTCACACGATGGCGGCAAACAGGCCTTAGAGACAGTTCAGCGTCTTCTGCCGGTGCTGTGCCAGGACCACGGTTTAACTCCTGACCAAGTCGTAGCTATCGCTTCGAACGGTGGTGGCAAGCAAGCACTGGAAACCGTCCAACGTCTGTTGCCGGTGCTGTGTCAAGACCACGGCCTTACACCGGATCAGGTCGTGGCCATTGCGTCACACGATGGCGGTAAGCAGGCCCTGGAGACAGTGCAGCGCCTGCTGCCGGTCCTGTGTCAGGACCACGGGCTGACGCCGGATCAAGTAGTCGCAATCGCCTCAAACATTGGGGGCAAGCAGGCTCTGGAAACGGTGCAGCGTTTATTACCAGTGCTGTGTCAAGATCATGGCCTGACCCCTGACCAGGTTGTGGCTATCGCCAGCAACGGTGGCGGCAAACAAGCGCTGGAAACGGTTCAACGCTTACTGCCGGTTTTATGCCAGGATCATGGCCTGACACCGGACCAAGTGGTTGCAATCGCAAGCCACGATGGCGGTAAACAAGCACTCGAAACCGTGCAACGCCTGCTGCCGGTCCTGTGCCAGGATCACGGTTTAACCCCGGATCAAGTGGTAGCGATTGCTAGTAACATTGGTGGCAAACAGGCGCTCGAAACTGTCCAGCGCCTGCTGCCGGTTCTGTGTCAGGATCATGGCTTAACCCCGGACCAGGTTGTGGCGATTGCAAGCAACAATGGCGGCAAACAGGCGTTAGAGACAGTGCAACGCCTGCTTCCGGTTCTCTGTCAGGATCATGGCTTAACACCGGATCAAGTAGTGGCGATTGCGAGCAACAATGGTGGCAAACAGGCGTTAGAAACCGTTCAACGCCTGTTACCAGTTTTATGTCAAGATCATGGCCTGACCCCGGATCAGGTTGTTGCCATTGCATCGAACATTGGTGGTAAACAGGCTCTGGAAACCGTTCAGCGTTTACTGCCGGTGCTGTGCCAGGACCACGGGTTAACGCCAGACCAGGTGGTGGCGATTGCGTCTAACATTGGTGGTAAACAAGCCCTGGAAACTGTACAGCGCCTGTTACCTGTCTTATGCCAGGATCATGGTCTGACCCCAGATCAGGTTGTTGCGATCGCCAGCCACGATGGCGGGAAACAGGCATTAGAAACCGTCCAGCGTCTGTTGCCGGTGTTATGTCAAGACCACGGTCTGACCCCTGACCAGGTGGTGGCGATTGCGAGCAACATTGGCGGTAAGCAAGCCCTGGAGACAGTGCAGCGCTTATTACCAGTTCTGTGTCAAGATCATGGTCTGACCCCAGATCAGGTGGTTGCCATCGCGTCGAACGGTGGCGGGAAACAGGCGCTGGAAACGGTGCAGCGTTTACTGCCGGTGCTGTGTCAGGATCATGGTTTAACTCCAGATCAGGTTGTCGCTATTGCATCTAACAATGGTGGCAAACAGGCATTAGAAACGGTTCAGCGTCTGCTCCCTGTATTATGCCAGGATCATGGC'
p100
aS'CTGACGCCGGATCAAGTGGTAGCAATCGCTAGTCACGATGGTGGTAAACAGGCACTGGAAACCGTACAGCGTCTGCTGCCGGTACTTTGCCAGGACCACGGGCTCACACCGGATCAGGTAGTGGCTATCGCGTCACACGATGGCGGTAAACAGGCCTTAGAGACAGTTCAGCGTCTTCTGCCGGTACTGTGCCAGGACCACGGTTTAACTCCTGACCAGGTCGTAGCTATCGCTTCGAACGGTGGTGGCAAGCAAGCACTGGAAACCGTCCAACGTCTGTTGCCGGTGCTGTGCCAAGACCACGGCCTTACACCGGATCAGGTCGTGGCCATTGCATCACACGATGGCGGTAAGCAGGCCCTGGAGACAGTGCAGCGCCTGCTGCCGGTCCTGTGTCAAGACCACGGGCTGACGCCGGATCAAGTAGTCGCCATCGCCTCAAACATTGGGGGCAAACAGGCTCTGGAAACGGTGCAGCGTTTATTACCAGTGCTGTGTCAAGATCATGGCCTGACCCCAGACCAGGTTGTGGCTATCGCCAGCAACGGTGGCGGTAAACAAGCGCTGGAAACGGTTCAACGCTTACTGCCGGTTTTATGCCAGGATCATGGGCTGACACCGGACCAAGTGGTGGCAATCGCAAGCCACGATGGGGGTAAACAAGCCCTCGAAACCGTGCAACGCCTGCTGCCGGTCCTGTGCCAGGATCACGGTTTAACCCCGGATCAGGTGGTAGCCATTGCGAGTAACATTGGTGGCAAACAGGCGCTCGAAACTGTCCAGCGCCTGCTGCCGGTTCTGTGCCAGGATCATGGCTTAACCCCGGACCAGGTTGTCGCCATTGCCAGCAACAATGGCGGCAAACAGGCTTTAGAGACAGTCCAACGCCTGCTTCCGGTTCTCTGTCAGGATCATGGCTTAACACCGGATCAAGTAGTGGCGATTGCGAGCAACAATGGTGGCAAACAGGCGTTAGAAACCGTTCAGCGCCTGTTACCAGTTTTATGCCAAGATCATGGCCTGACCCCGGATCAGGTTGTTGCGATTGCATCGAACATTGGTGGTAAACAGGCTCTGGAAACCGTTCAGCGTTTACTGCCGGTGCTGTGCCAGGACCACGGTTTAACGCCAGACCAGGTGGTGGCGATTGCGTCTAACATTGGTGGTAAACAGGCCCTGGAGACTGTACAGCGCCTGTTACCTGTCTTATGCCAGGATCATGGTCTGACTCCAGATCAGGTTGTTGCGATCGCCAGCCACGATGGCGGGAAACAGGCATTAGAAACCGTCCAGCGTCTGTTGCCGGTGTTATGCCAAGACCACGGTCTGACCCCTGACCAGGTGGTTGCGATTGCGAGCAACATTGGCGGTAAGCAAGCGCTGGAGACAGTGCAGCGCTTATTACCAGTTCTGTGTCAGGATCATGGTCTGACCCCGGATCAGGTGGTTGCCATCGCGTCGAACGGTGGCGGGAAACAAGCGCTGGAAACGGTGCAGCGTTTACTGCCGGTACTGTGTCAGGATCATGGTTTAACTCCAGATCAGGTCGTCGCTATTGCATCTAACAATGGTGGCAAACAGGCATTAGAAACGGTTCAGCGTCTGCTCCCTGTATTATGCCAGGATCATGGC'
p101
aa.