(lp0
(lp1
S'CTGACGCCGGATCAGGTCGTGGCAATCGCGAGCCACGATGGCGGCAAACAGGCCTTAGAAACTGTGCAGCGTTTACTGCCGGTTCTGTGTCAGGATCATGGGTTAACCCCGGACCAGGTGGTAGCTATTGCAAGTCACGATGGTGGTAAACAAGCGCTGGAAACGGTCCAGCGTCTGTTACCAGTACTCTGCCAAGATCATGGCCTGACCCCGGATCAAGTCGTGGCGATTGCGTCTAACGGTGGGGGCAAACAGGCCTTAGAAACTGTGCAGCGTTTACTGCCGGTGTTATGCCAGGATCATGGTCTGACCCCGGATCAGGTTGTCGCGATTGCTTCACACGATGGTGGCAAACAGGCACTGGAAACCGTCCAACGCCTGCTGCCGGTTCTGTGTCAAGATCACGGTCTGACCCCGGATCAGGTCGTGGCCATCGCTTCTAACATTGGCGGTAAACAGGCATTAGAAACGGTCCAGCGTCTGCTGCCTGTCCTTTGCCAGGACCATGGTCTGACACCAGATCAAGTAGTCGCGATCGCGTCAAACGGTGGCGGTAAGCAAGCTCTGGAAACCGTACAGCGTCTGTTACCAGTTTTATGCCAAGATCACGGCCTCACTCCAGATCAGGTAGTTGCGATTGCCAGCCACGATGGTGGGAAGCAGGCGTTAGAAACCGTTCAACGCTTACTTCCGGTGTTATGTCAGGATCATGGCCTGACCCCGGACCAGGTAGTAGCAATCGCATCGAACATTGGCGGCAAACAAGCGCTGGAAACAGTACAGCGCCTGCTCCCGGTGCTGTGCCAGGACCACGGCCTGACGCCGGATCAAGTTGTGGCAATCGCAAGCAACAATGGTGGTAAGCAAGCCTTAGAAACAGTGCAGCGCCTCTTACCAGTGCTGTGCCAGGATCACGGCTTAACACCGGATCAAGTCGTGGCCATCGCAAGCAACAATGGCGGGAAACAGGCGCTGGAGACCGTGCAGCGCCTGTTACCTGTTCTGTGTCAGGATCATGGTTTAACCCCGGATCAGGTGGTTGCTATTGCCTCGAACATTGGCGGTAAACAGGCACTGGAAACAGTTCAGCGCCTTTTACCAGTCCTGTGCCAGGACCATGGTCTGACTCCTGACCAGGTGGTGGCCATTGCTTCTAACATTGGGGGCAAGCAGGCCCTGGAGACCGTGCAACGCTTACTGCCGGTGTTATGCCAGGACCACGGTTTAACCCCGGATCAGGTGGTAGCGATTGCCTCGCACGATGGTGGTAAACAAGCTCTGGAAACCGTGCAACGTTTACTGCCGGTACTGTGTCAGGATCATGGCCTGACCCCAGATCAAGTAGTTGCTATTGCGAGCAACATTGGCGGTAAACAGGCATTAGAGACCGTTCAGCGCCTGTTACCTGTCCTGTGCCAGGATCACGGTTTAACACCTGACCAGGTTGTTGCGATCGCCAGCAACGGTGGTGGCAAACAGGCGCTGGAAACGGTTCAGCGTTTACTGCCGGTTTTATGCCAAGACCATGGCCTTACACCGGACCAAGTTGTTGCCATCGCGTCAAACAATGGCGGGAAACAGGCTCTCGAAACAGTACAGCGTCTGCTGCCGGTATTATGTCAGGATCACGGGCTGACTCCTGACCAGGTGGTTGCGATTGCGAGCAACGGTGGTGGCAAGCAGGCGCTGGAGACTGTTCAGCGTCTGCTGCCGGTGCTGTGTCAGGACCACGGT'
p2
aS'CTGACGCCGGATCAGGTCGTGGCAATCGCGAGCCACGATGGCGGCAAACAGGCCTTAGAGACTGTGCAGCGTTTACTGCCAGTTCTGTGTCAAGATCATGGGTTAACCCCGGACCAGGTGGTAGCTATTGCAAGTCACGATGGTGGTAAACAAGCGCTGGAAACGGTCCAGCGTCTGTTACCAGTACTCTGCCAAGATCATGGCCTGACCCCGGATCAAGTTGTGGCCATTGCGTCTAACGGTGGGGGCAAACAGGCCTTAGAAACTGTGCAGCGTTTACTGCCGGTGTTATGCCAGGATCATGGTCTGACCCCGGATCAGGTTGTCGCGATTGCTTCACACGATGGTGGCAAACAGGCACTGGAAACCGTCCAACGCCTGCTGCCGGTTCTGTGTCAAGATCACGGTCTGACCCCGGATCAGGTCGTGGCCATCGCTTCTAACATTGGCGGTAAACAGGCATTAGAAACGGTCCAGCGTCTGCTGCCTGTCCTTTGCCAGGACCATGGTCTGACACCAGATCAAGTAGTCGCGATCGCGTCAAACGGTGGCGGTAAGCAAGCTCTGGAAACCGTACAGCGTCTGTTACCAGTTTTATGCCAAGATCACGGCCTGACTCCAGACCAGGTAGTTGCGATTGCCAGCCACGATGGTGGGAAGCAGGCGTTAGAAACCGTTCAACGCTTACTTCCGGTGTTATGTCAGGATCATGGCCTGACCCCGGACCAGGTAGTAGCAATCGCATCGAACATTGGCGGCAAACAAGCGCTGGAAACAGTACAGCGCCTGCTCCCGGTGCTGTGCCAGGACCATGGCCTGACGCCGGATCAGGTTGTGGCAATCGCAAGCAACAATGGTGGTAAACAAGCCTTAGAAACAGTGCAGCGCCTCTTACCAGTGCTGTGCCAGGATCACGGCTTAACACCGGATCAAGTCGTGGCCATCGCAAGCAACAATGGCGGGAAACAGGCGCTGGAGACCGTGCAACGCCTGTTACCTGTTCTGTGTCAGGATCATGGTTTAACCCCGGATCAGGTGGTTGCTATTGCCTCTAACATTGGCGGTAAACAGGCACTGGAAACAGTTCAGCGCCTTTTACCAGTCCTGTGCCAGGACCATGGTTTAACTCCTGACCAGGTGGTGGCCATTGCTTCTAACATTGGGGGCAAGCAGGCCCTGGAGACCGTGCAACGCTTACTGCCGGTGTTATGCCAAGACCACGGTTTAACCCCGGATCAGGTGGTAGCGATTGCCTCGCACGATGGTGGTAAACAAGCTCTGGAAACCGTGCAACGTTTACTGCCGGTACTGTGTCAGGATCATGGCCTGACCCCAGATCAAGTAGTTGCTATTGCGAGCAACATTGGCGGTAAACAGGCATTAGAGACCGTTCAGCGCCTGTTACCTGTCCTGTGCCAGGATCACGGTTTAACACCTGACCAAGTTGTCGCGATCGCCAGCAACGGTGGTGGCAAACAGGCGCTGGAAACGGTTCAGCGTTTACTGCCGGTTTTATGCCAAGACCACGGCCTTACACCGGACCAAGTTGTTGCCATCGCGTCAAACAATGGCGGGAAACAGGCTCTCGAAACAGTACAGCGTCTGCTGCCGGTATTATGTCAGGATCACGGGCTGACTCCTGACCAGGTGGTTGCGATTGCGAGCAACGGTGGTGGCAAGCAGGCGCTGGAGACAGTTCAGCGTCTGCTGCCGGTGCTGTGTCAGGACCACGGT'
p3
aS'CTGACGCCGGATCAGGTCGTGGCAATCGCGAGCCACGATGGCGGCAAACAGGCCTTAGAAACTGTGCAACGTTTACTGCCGGTTCTGTGTCAGGATCATGGGTTAACCCCGGACCAGGTGGTAGCTATTGCAAGTCACGATGGTGGTAAACAAGCGCTGGAAACGGTCCAGCGTCTGTTACCAGTACTCTGCCAAGATCATGGCCTGACCCCGGATCAAGTTGTGGCCATTGCGTCTAACGGTGGGGGCAAACAGGCCTTAGAAACTGTCCAGCGTTTACTGCCGGTGTTATGCCAGGATCATGGTCTGACCCCGGATCAGGTTGTCGCGATTGCTTCACACGATGGTGGCAAACAGGCACTGGAAACCGTCCAACGCCTGCTGCCGGTTCTGTGTCAAGACCACGGTCTGACGCCGGACCAGGTCGTGGCCATCGCTTCGAACATTGGCGGTAAACAGGCATTAGAAACGGTCCAGCGCCTGCTGCCTGTCTTATGCCAGGACCACGGTCTGACACCAGATCAAGTAGTCGCGATCGCGTCAAACGGTGGCGGTAAACAAGCTCTGGAAACAGTACAGCGTCTGTTACCAGTTTTATGCCAAGATCACGGCCTCACTCCAGATCAGGTAGTTGCGATCGCCAGCCACGATGGTGGGAAGCAGGCGTTAGAAACCGTTCAACGCTTACTTCCGGTGTTATGTCAGGATCATGGGCTGACCCCGGACCAGGTGGTCGCAATCGCATCGAACATTGGCGGCAAACAGGCGCTGGAAACAGTACAACGCCTGCTCCCGGTGCTGTGCCAGGACCATGGCCTGACGCCGGATCAGGTTGTGGCAATCGCAAGCAACAATGGTGGTAAACAAGCCTTAGAAACAGTGCAGCGCCTCTTACCAGTGCTGTGCCAGGATCACGGCTTAACACCGGATCAAGTGGTGGCCATCGCAAGTAACAATGGCGGGAAACAGGCGCTGGAGACCGTGCAGCGCCTGTTACCTGTTCTGTGTCAGGATCATGGTTTAACCCCGGATCAGGTGGTTGCTATTGCCTCTAACATTGGCGGTAAACAGGCACTGGAAACAGTTCAGCGCCTTTTACCAGTCCTGTGCCAGGACCATGGTTTAACTCCTGACCAGGTGGTGGCCATTGCTTCTAACATTGGGGGCAAGCAGGCCCTGGAGACCGTGCAACGCTTACTGCCGGTGTTATGCCAGGACCACGGTTTAACCCCGGATCAGGTGGTAGCGATTGCCTCGCACGATGGTGGTAAACAAGCTCTGGAAACCGTGCAGCGTTTACTGCCGGTACTGTGTCAGGATCATGGCCTGACCCCAGATCAAGTAGTTGCTATTGCGAGCAACATTGGCGGTAAGCAGGCATTAGAGACCGTTCAGCGCCTGTTACCTGTCCTGTGCCAGGATCACGGTTTAACACCTGACCAGGTTGTCGCGATCGCCAGCAACGGTGGTGGCAAACAGGCGCTGGAAACTGTTCAGCGTTTACTGCCGGTTTTATGCCAAGACCATGGCCTTACACCGGACCAAGTTGTTGCCATCGCGTCAAACAATGGCGGGAAACAGGCTCTCGAAACAGTACAGCGTCTGCTGCCGGTATTATGTCAGGATCACGGGCTGACTCCTGACCAGGTGGTTGCGATTGCGAGCAACGGTGGTGGCAAGCAGGCGCTGGAGACAGTTCAGCGTCTGCTGCCGGTGCTGTGTCAGGACCACGGT'
p4
aS'CTGACGCCGGATCAGGTCGTGGCAATCGCGAGCCACGATGGCGGCAAACAGGCCTTAGAGACTGTGCAGCGTTTACTGCCGGTTCTGTGTCAGGATCATGGGTTAACCCCGGACCAGGTGGTAGCTATTGCAAGTCACGATGGTGGTAAACAAGCGCTGGAAACGGTCCAGCGTCTGTTACCAGTCCTCTGCCAAGATCATGGCCTGACCCCGGATCAGGTTGTGGCCATTGCGAGCAACGGTGGGGGCAAACAGGCCTTAGAAACTGTGCAGCGTTTACTGCCGGTGTTATGCCAGGATCATGGTCTGACCCCGGATCAGGTTGTCGCGATTGCTTCACACGATGGGGGCAAACAGGCACTGGAAACCGTCCAACGCCTGCTGCCGGTTCTGTGTCAAGACCACGGTCTGACGCCGGATCAGGTCGTGGCCATCGCTTCGAACATTGGCGGTAAACAGGCATTAGAGACGGTCCAGCGTCTGCTGCCGGTCCTTTGCCAGGACCACGGGCTGACACCAGATCAGGTAGTCGCGATCGCGTCTAACGGTGGCGGTAAACAAGCTCTGGAAACCGTACAGCGTCTGTTACCAGTTTTATGCCAAGACCACGGCCTCACTCCAGATCAGGTAGTTGCGATCGCCAGCCACGATGGTGGGAAACAGGCGTTAGAAACCGTTCAACGCTTACTTCCGGTGTTATGTCAGGATCATGGCCTGACCCCGGACCAGGTGGTAGCAATCGCATCGAACATTGGCGGCAAACAAGCGCTGGAAACAGTACAGCGCCTGCTCCCGGTGCTGTGCCAGGACCATGGCCTGACGCCGGATCAGGTTGTGGCAATCGCATCTAACAATGGTGGTAAGCAAGCCTTAGAAACAGTGCAGCGCCTCTTACCAGTGCTGTGCCAGGATCACGGCTTAACACCGGATCAAGTCGTCGCCATCGCAAGCAACAATGGCGGTAAACAGGCGCTGGAGACCGTGCAGCGCCTGTTACCTGTTCTGTGTCAGGATCATGGTTTAACCCCGGATCAGGTGGTTGCTATTGCCTCTAACATTGGCGGTAAACAGGCACTGGAAACAGTTCAGCGCCTTTTACCAGTCCTGTGCCAGGACCATGGTTTAACTCCTGACCAGGTGGTGGCCATTGCTTCTAACATTGGGGGCAAGCAGGCCCTGGAAACCGTGCAACGCCTGCTGCCGGTGTTATGCCAAGACCACGGTTTAACCCCGGATCAGGTGGTAGCCATTGCCTCGCACGATGGTGGTAAACAAGCTCTGGAAACCGTGCAACGTTTACTGCCGGTACTGTGTCAGGATCATGGCCTGACCCCAGACCAAGTAGTTGCTATTGCGAGCAACATTGGCGGTAAACAGGCATTAGAGACCGTTCAGCGCCTGTTACCTGTCCTGTGCCAGGATCACGGTTTAACACCTGACCAAGTTGTCGCGATCGCCAGCAACGGTGGTGGCAAACAGGCGCTGGAAACGGTTCAACGTTTACTGCCGGTTTTATGCCAAGACCATGGCCTTACACCGGACCAAGTTGTTGCCATCGCGTCAAACAATGGCGGGAAACAGGCTCTTGAAACAGTACAGCGTCTGCTGCCGGTATTATGTCAGGATCACGGGCTGACTCCTGACCAGGTGGTTGCGATTGCGAGCAACGGTGGTGGCAAGCAGGCGCTGGAGACTGTTCAGCGTCTGCTGCCGGTGCTGTGTCAGGATCACGGT'
p5
aS'CTGACGCCGGATCAGGTCGTGGCAATCGCGAGCCACGATGGCGGCAAACAGGCCTTAGAAACTGTGCAACGTTTACTGCCGGTTCTGTGTCAGGATCATGGGTTAACCCCGGACCAGGTGGTAGCTATTGCAAGTCACGATGGTGGTAAACAAGCGCTGGAAACGGTCCAGCGTCTGTTACCAGTACTCTGCCAAGATCATGGCCTGACCCCGGATCAAGTTGTGGCCATTGCGTCTAACGGTGGGGGCAAACAGGCCTTAGAAACTGTCCAGCGTTTACTGCCGGTGTTATGCCAGGATCATGGTCTGACCCCGGATCAGGTTGTCGCGATTGCTTCACACGATGGTGGCAAACAGGCACTGGAAACCGTCCAACGCCTGCTGCCGGTTCTGTGTCAAGACCACGGTCTGACGCCGGATCAGGTCGTGGCCATCGCTTCGAACATTGGCGGTAAGCAGGCATTAGAAACGGTCCAGCGTCTGCTGCCGGTCCTTTGCCAGGACCACGGTCTGACACCAGATCAAGTGGTCGCGATCGCGTCTAACGGTGGCGGTAAACAAGCTCTGGAAACCGTACAGCGTCTGTTACCAGTTTTATGCCAAGATCACGGCCTCACTCCAGATCAGGTAGTTGCGATCGCCAGCCACGATGGTGGGAAGCAGGCGTTAGAAACCGTTCAACGCTTACTTCCGGTGTTATGTCAGGATCATGGCCTGACCCCAGACCAGGTCGTAGCAATCGCATCGAACATTGGCGGCAAACAGGCGCTGGAAACAGTACAACGCCTGCTCCCGGTGCTGTGCCAGGACCATGGCCTGACGCCGGATCAGGTTGTGGCAATCGCAAGCAACAATGGTGGTAAGCAAGCCTTAGAAACAGTGCAGCGCCTCTTACCAGTGCTGTGCCAGGATCACGGCTTAACACCGGATCAAGTTGTGGCCATTGCAAGCAACAATGGTGGGAAACAGGCGCTGGAGACCGTGCAGCGCCTGTTACCTGTTCTGTGTCAGGATCATGGTTTAACCCCGGATCAGGTGGTTGCTATTGCCTCTAACATTGGCGGTAAACAGGCACTGGAGACAGTTCAGCGCCTTTTACCAGTCCTGTGCCAGGACCATGGTTTAACTCCTGACCAGGTGGTGGCCATTGCTTCTAACATTGGGGGCAAGCAGGCCCTGGAGACCGTGCAACGCTTACTGCCGGTGTTATGCCAAGACCACGGTTTAACCCCGGATCAGGTGGTAGCGATTGCCTCGCACGATGGTGGTAAACAAGCTCTGGAAACCGTGCAACGTTTACTGCCGGTACTGTGTCAGGATCATGGCCTGACCCCAGATCAAGTAGTTGCTATTGCGAGCAACATTGGCGGTAAACAGGCATTAGAGACCGTTCAGCGCCTGTTACCTGTCCTGTGCCAGGATCACGGTTTAACACCTGACCAAGTTGTCGCGATCGCCAGCAACGGTGGTGGCAAACAGGCGCTGGAAACGGTTCAGCGTTTACTGCCGGTTTTATGCCAAGACCATGGCCTTACACCTGACCAAGTTGTTGCCATCGCGTCAAACAATGGCGGGAAACAGGCTCTCGAAACAGTACAGCGTCTGCTGCCGGTATTATGTCAGGATCACGGGCTGACTCCTGACCAGGTGGTTGCGATTGCGAGCAACGGTGGTGGCAAGCAGGCGCTGGAGACAGTTCAGCGTCTGCTGCCGGTGCTGTGTCAGGACCACGGT'
p6
aS'CTGACGCCGGATCAGGTCGTGGCAATCGCGAGCCACGATGGCGGCAAACAGGCCTTAGAGACTGTGCAGCGTTTACTGCCAGTTCTGTGTCAAGATCATGGGTTAACCCCGGACCAGGTGGTAGCTATTGCAAGTCACGATGGTGGTAAACAAGCGCTGGAAACGGTCCAGCGTCTGTTACCAGTACTCTGCCAAGATCATGGCCTGACCCCGGATCAAGTTGTGGCCATTGCGTCTAACGGTGGGGGCAAACAGGCCTTAGAAACTGTGCAGCGTTTACTGCCGGTGTTATGCCAGGATCATGGTCTGACCCCGGATCAGGTTGTCGCGATTGCTTCACACGATGGTGGCAAACAGGCACTGGAAACCGTCCAACGCCTGCTGCCGGTTCTGTGTCAAGACCACGGTCTGACGCCGGATCAGGTCGTGGCCATTGCTTCGAACATTGGCGGTAAACAGGCATTAGAAACGGTCCAGCGTCTGCTGCCGGTCCTTTGCCAGGACCACGGTCTGACACCAGATCAGGTAGTCGCGATCGCGTCTAACGGTGGCGGGAAACAAGCTCTGGAAACAGTACAGCGTCTGTTACCAGTTTTATGCCAAGATCACGGCCTCACTCCAGATCAGGTAGTTGCGATCGCCAGCCACGATGGTGGGAAGCAGGCGTTAGAAACCGTTCAACGCTTACTTCCTGTGTTATGTCAGGATCATGGCCTGACCCCGGACCAGGTGGTAGCAATCGCATCGAACATTGGCGGCAAACAGGCGCTGGAAACAGTACAACGCCTGCTCCCGGTGCTGTGCCAGGACCATGGCCTGACGCCGGATCAGGTTGTGGCAATCGCAAGCAACAATGGTGGTAAACAAGCCTTAGAAACAGTGCAGCGCCTCTTACCAGTGCTGTGCCAGGATCACGGCTTAACACCGGATCAAGTCGTGGCCATCGCAAGCAACAATGGCGGTAAACAAGCGCTGGAGACCGTGCAGCGCCTGTTACCTGTTCTGTGTCAGGATCATGGTTTAACCCCGGATCAGGTGGTTGCTATTGCCTCTAACATTGGCGGTAAACAGGCCCTGGAAACAGTTCAGCGCCTTTTACCAGTCCTGTGCCAGGACCATGGTTTAACTCCTGACCAGGTGGTGGCCATTGCTTCTAACATTGGGGGCAAGCAGGCCCTGGAGACCGTGCAACGCTTACTGCCGGTGTTATGCCAGGACCACGGTTTAACCCCGGATCAGGTGGTAGCGATTGCCTCGCACGATGGTGGTAAACAAGCTCTGGAAACCGTGCAACGTTTACTGCCGGTACTGTGTCAGGATCATGGCCTGACCCCAGATCAAGTAGTTGCTATTGCGAGCAACATTGGCGGTAAGCAGGCATTAGAGACCGTTCAGCGCCTGTTGCCTGTCCTGTGCCAGGATCACGGGTTAACACCTGACCAAGTTGTCGCGATCGCCAGCAACGGTGGTGGCAAACAGGCGCTGGAAACCGTTCAGCGTTTACTGCCGGTTTTATGCCAAGACCATGGCCTTACACCGGACCAAGTTGTTGCCATCGCGTCAAACAATGGCGGGAAACAGGCTCTTGAAACAGTACAGCGTCTGCTGCCGGTATTATGTCAGGATCACGGGCTGACTCCTGACCAGGTGGTTGCGATTGCGAGCAACGGTGGTGGCAAGCAGGCGCTGGAGACAGTTCAGCGTCTGCTGCCGGTGCTGTGTCAGGACCACGGT'
p7
aS'CTGACGCCGGATCAGGTCGTGGCAATCGCGAGCCACGATGGCGGCAAACAGGCCTTAGAAACTGTGCAGCGTTTACTGCCGGTTCTGTGTCAGGATCATGGGTTAACCCCGGACCAGGTGGTAGCTATTGCAAGTCACGATGGTGGTAAACAAGCGCTGGAGACGGTCCAGCGTCTGTTACCAGTCCTCTGCCAAGATCATGGCCTGACCCCGGATCAGGTTGTGGCCATTGCGAGCAACGGTGGGGGCAAACAGGCCTTAGAAACTGTGCAGCGTTTACTGCCGGTGTTATGCCAGGATCATGGTCTGACCCCGGATCAGGTTGTCGCGATTGCTTCACACGATGGGGGCAAACAGGCACTGGAAACCGTCCAACGCCTGCTGCCGGTTCTGTGTCAAGACCACGGTCTGACGCCGGATCAGGTCGTGGCCATCGCTTCGAACATTGGCGGTAAACAGGCATTAGAGACGGTCCAGCGTCTGCTGCCGGTCCTTTGCCAGGACCACGGGCTGACACCAGATCAGGTAGTCGCGATCGCGTCTAACGGTGGCGGTAAACAAGCTCTGGAAACCGTACAGCGTCTGTTACCAGTTTTATGCCAAGACCACGGCCTCACTCCAGATCAGGTAGTTGCGATCGCCAGCCACGATGGTGGGAAACAGGCGTTAGAAACCGTTCAACGCTTACTTCCGGTGTTATGTCAGGATCATGGCCTGACCCCGGACCAGGTGGTAGCAATCGCATCGAACATTGGCGGCAAACAAGCGCTGGAAACAGTACAGCGCCTGCTCCCGGTGCTGTGCCAGGACCATGGCCTGACGCCGGATCAGGTTGTGGCAATCGCATCTAACAATGGTGGTAAGCAAGCCTTAGAAACAGTGCAGCGCCTCTTACCAGTGCTGTGCCAGGATCACGGCTTAACACCGGATCAAGTCGTCGCCATCGCAAGCAACAATGGCGGTAAACAGGCGCTGGAGACCGTGCAGCGCCTGTTACCTGTTCTGTGTCAGGATCATGGTTTAACCCCGGATCAGGTGGTTGCTATTGCCTCTAACATTGGCGGTAAACAGGCACTGGAAACAGTTCAGCGCCTTTTACCAGTCCTGTGCCAGGACCATGGTTTAACTCCTGACCAGGTGGTGGCCATTGCTTCTAACATTGGGGGCAAGCAGGCCCTGGAAACCGTGCAACGCTTACTGCCGGTGTTATGCCAAGACCACGGTTTAACCCCGGATCAGGTGGTAGCCATTGCCTCGCACGATGGTGGTAAACAAGCTCTGGAAACCGTGCAACGTTTACTGCCGGTACTGTGTCAGGATCATGGCCTGACCCCAGACCAAGTAGTTGCTATTGCGAGCAACATTGGCGGTAAACAGGCATTAGAGACCGTTCAGCGCCTGTTACCTGTCCTGTGCCAGGATCACGGTTTAACACCTGACCAAGTTGTCGCGATCGCCAGCAACGGTGGTGGCAAACAGGCGCTGGAAACGGTTCAGCGTTTACTGCCGGTTTTATGCCAAGACCATGGCCTTACACCGGACCAAGTTGTTGCCATCGCGTCAAACAATGGCGGGAAACAGGCTCTCGAAACAGTACAGCGTCTGCTGCCGGTATTATGTCAGGATCACGGGCTGACTCCTGACCAGGTGGTTGCGATTGCGAGCAACGGTGGTGGCAAGCAGGCTCTGGAGACAGTTCAGCGTCTGCTGCCGGTGCTGTGTCAGGACCACGGT'
p8
aS'CTGACGCCGGATCAGGTCGTGGCAATCGCGAGCCACGATGGCGGCAAACAGGCCTTAGAAACTGTGCAGCGTTTACTGCCGGTTCTGTGTCAGGATCATGGGTTAACCCCGGACCAGGTGGTAGCTATTGCAAGTCACGATGGTGGTAAACAAGCGCTGGAAACGGTCCAGCGTCTGTTACCAGTACTCTGCCAAGATCATGGCCTGACCCCGGACCAGGTTGTGGCCATTGCGTCTAACGGTGGGGGCAAACAGGCCTTAGAAACTGTGCAGCGTTTACTGCCGGTGTTATGCCAGGATCACGGTCTGACCCCGGATCAGGTTGTCGCGATTGCTTCACACGATGGTGGCAAGCAGGCACTGGAAACCGTCCAACGCCTGCTGCCGGTTCTGTGTCAAGACCACGGTCTGACGCCGGATCAGGTCGTGGCCATCGCTTCGAACATTGGGGGTAAACAGGCATTAGAAACGGTCCAGCGTCTGCTGCCGGTCCTTTGCCAAGACCACGGTCTGACACCAGATCAGGTTGTCGCGATCGCGTCTAACGGTGGCGGTAAACAAGCTCTGGAAACCGTACAGCGTCTGTTACCAGTTTTATGCCAGGATCACGGCCTCACTCCAGATCAAGTAGTTGCGATCGCCAGCCACGATGGTGGGAAGCAGGCGTTAGAAACCGTTCAGCGCTTACTTCCGGTGTTATGTCAGGACCATGGCCTGACCCCAGACCAGGTGGTAGCAATCGCATCGAACATTGGCGGCAAACAAGCGCTGGAAACAGTACAGCGCCTGCTCCCGGTGCTGTGCCAGGACCATGGCCTGACGCCGGATCAGGTTGTGGCAATCGCAAGCAACAATGGTGGTAAACAAGCCTTAGAGACAGTGCAGCGCCTCTTACCTGTGCTGTGCCAGGATCACGGCTTAACACCGGATCAAGTCGTGGCCATCGCAAGCAACAATGGCGGTAAACAAGCGCTGGAGACCGTGCAGCGCCTGTTACCTGTTCTGTGTCAGGATCATGGTTTAACCCCGGATCAGGTGGTTGCTATTGCCTCTAACATTGGCGGTAAACAGGCACTGGAAACAGTTCAGCGCCTTTTACCAGTCCTGTGCCAGGACCATGGTTTAACTCCTGACCAGGTGGTGGCCATTGCTTCTAACATTGGGGGCAAGCAGGCCCTGGAGACCGTGCAACGCTTACTGCCGGTGTTATGCCAAGACCACGGTTTAACCCCGGATCAGGTGGTAGCGATTGCCTCGCACGATGGTGGTAAACAAGCTCTGGAAACCGTGCAACGTTTACTGCCGGTACTGTGTCAGGATCATGGCCTGACCCCAGATCAAGTAGTTGCTATTGCGAGCAACATTGGCGGTAAACAGGCATTAGAGACCGTTCAGCGCCTGTTACCTGTCCTGTGCCAGGATCACGGTTTAACACCTGACCAAGTTGTCGCGATCGCCAGCAACGGTGGTGGCAAACAGGCGCTGGAAACGGTTCAACGTTTACTGCCGGTTTTATGCCAAGACCATGGCCTTACACCGGACCAAGTTGTTGCCATCGCGTCAAACAATGGCGGGAAACAGGCTCTTGAAACAGTACAGCGTCTGCTGCCGGTATTATGTCAGGATCACGGGCTGACTCCTGACCAGGTGGTTGCGATTGCGAGCAACGGTGGTGGCAAGCAGGCGCTGGAGACTGTTCAGCGTCTGCTGCCGGTGCTGTGTCAGGATCACGGT'
p9
aS'CTGACGCCGGATCAGGTGGTGGCAATCGCGAGCCACGATGGCGGCAAACAGGCCTTAGAAACTGTGCAGCGTTTACTGCCGGTTCTGTGTCAGGATCATGGGTTAACCCCGGACCAGGTGGTAGCTATTGCAAGTCACGATGGTGGTAAACAAGCGCTGGAAACGGTCCAGCGTCTGTTACCAGTACTCTGCCAAGATCATGGCCTGACCCCGGATCAAGTTGTGGCCATTGCGTCTAACGGTGGGGGCAAACAGGCCTTAGAAACTGTGCAGCGTTTACTGCCGGTGTTATGCCAGGATCATGGTCTGACCCCGGATCAGGTAGTCGCGATTGCTTCACACGATGGTGGCAAACAGGCACTGGAAACCGTCCAACGCCTGCTGCCGGTTCTGTGTCAAGACCACGGTCTGACGCCGGATCAGGTCGTGGCCATCGCTTCGAACATTGGCGGTAAACAGGCATTAGAAACAGTCCAGCGTCTGCTGCCGGTCCTTTGCCAGGACCACGGTCTGACACCAGATCAGGTAGTCGCGATCGCGTCTAACGGTGGCGGTAAACAAGCTCTGGAAACCGTACAGCGTCTGTTACCAGTTTTATGCCAAGATCACGGCCTCACTCCAGATCAGGTTGTTGCGATTGCCAGCCACGATGGTGGGAAGCAGGCGTTAGAAACCGTTCAACGCTTACTTCCGGTGTTATGTCAGGATCACGGCCTGACCCCAGACCAGGTGGTAGCAATCGCATCGAACATTGGCGGCAAACAAGCGCTGGAAACAGTACAGCGCCTGCTCCCGGTGCTGTGCCAGGACCATGGCCTGACGCCGGATCAGGTTGTCGCAATCGCAAGCAACAATGGTGGTAAACAAGCCTTAGAAACAGTGCAGCGCCTCTTACCAGTGCTGTGCCAGGATCACGGCTTAACACCGGATCAAGTCGTGGCCATCGCAAGCAACAATGGCGGGAAACAGGCGCTGGAGACCGTGCAACGCCTGTTACCTGTTCTGTGTCAGGATCATGGTTTAACCCCGGATCAGGTGGTTGCTATTGCCTCTAACATTGGCGGTAAACAGGCACTGGAAACAGTTCAACGCCTTTTACCAGTCCTGTGCCAGGACCATGGTTTAACTCCTGACCAGGTGGTGGCCATTGCTTCTAACATTGGGGGCAAGCAGGCCCTGGAGACCGTGCAACGCTTACTGCCGGTGTTATGCCAAGACCACGGTTTAACCCCGGATCAGGTGGTAGCGATTGCCTCGCACGATGGTGGTAAACAAGCTCTGGAAACCGTGCAACGTTTACTGCCGGTACTGTGTCAGGATCATGGCCTGACCCCAGATCAAGTAGTTGCTATTGCGAGCAACATTGGCGGTAAACAGGCATTAGAGACCGTTCAGCGCCTGTTACCTGTCCTGTGCCAGGATCACGGGTTAACACCTGACCAAGTTGTCGCGATCGCCAGCAACGGTGGTGGCAAACAGGCGCTGGAAACGGTTCAGCGTTTACTGCCGGTTTTATGCCAAGACCATGGCCTTACACCGGACCAAGTTGTTGCCATCGCGTCAAACAATGGCGGGAAGCAGGCTCTTGAAACAGTTCAGCGTCTGCTGCCGGTATTATGTCAGGACCACGGGCTGACTCCTGACCAGGTGGTTGCGATTGCGAGCAACGGTGGTGGCAAGCAGGCGCTGGAGACAGTTCAGCGTCTGCTGCCGGTGCTGTGTCAGGACCACGGT'
p10
aS'CTGACGCCGGATCAGGTCGTGGCAATCGCGAGCCACGATGGCGGCAAACAGGCCTTAGAAACTGTGCAGCGTTTACTGCCGGTTCTGTGTCAGGATCATGGGTTAACCCCGGACCAGGTGGTAGCTATTGCAAGTCACGATGGTGGTAAACAAGCGCTTGAAACGGTCCAGCGTCTGTTACCAGTACTCTGCCAAGATCATGGCCTGACCCCGGATCAAGTTGTGGCCATTGCGTCTAACGGTGGGGGCAAACAGGCCTTAGAGACTGTGCAGCGTTTACTGCCGGTGTTATGCCAGGATCATGGTCTGACCCCGGATCAGGTTGTCGCGATTGCTTCACACGATGGTGGCAAACAGGCACTGGAAACCGTCCAACGCCTGCTGCCGGTTCTGTGCCAAGACCACGGTCTGACGCCGGATCAGGTCGTGGCAATCGCTTCGAACATTGGGGGTAAACAGGCATTAGAAACGGTCCAGCGTCTGCTGCCGGTCCTTTGCCAGGACCACGGTCTGACTCCAGATCAGGTAGTCGCGATCGCGTCTAACGGTGGCGGTAAGCAAGCTCTGGAAACCGTACAGCGTCTGTTACCAGTGTTATGCCAAGATCACGGCCTCACTCCAGATCAGGTAGTTGCGATCGCCAGCCACGATGGTGGGAAACAGGCGTTAGAAACCGTTCAACGCTTACTTCCGGTGTTATGTCAGGATCATGGCCTGACCCCGGACCAGGTGGTAGCAATCGCATCGAACATTGGCGGCAAACAAGCGCTGGAAACAGTACAGCGCCTGCTCCCGGTCCTGTGCCAGGACCATGGCCTGACGCCGGATCAGGTTGTGGCAATCGCAAGCAACAATGGTGGTAAGCAAGCCTTAGAAACAGTGCAGCGCCTCTTACCAGTGCTGTGCCAGGATCACGGCTTAACACCGGATCAAGTCGTGGCCATCGCAAGCAACAATGGCGGTAAACAAGCGCTGGAGACCGTGCAGCGCCTGTTACCTGTTCTGTGTCAGGATCATGGTTTAACCCCGGATCAGGTGGTTGCTATTGCCTCTAACATTGGCGGTAAACAGGCACTGGAAACAGTTCAGCGCCTTTTACCAGTCCTGTGCCAGGACCATGGTTTAACTCCTGACCAGGTGGTGGCCATTGCTTCTAACATTGGGGGCAAGCAGGCCCTGGAGACCGTGCAACGCTTACTGCCGGTGTTATGCCAGGACCACGGTTTAACCCCGGATCAGGTGGTAGCGATTGCCTCGCACGATGGTGGTAAACAAGCACTGGAAACCGTGCAACGTTTACTGCCGGTACTGTGTCAGGATCATGGCCTGACCCCAGATCAAGTAGTTGCTATTGCGAGCAACATTGGCGGTAAACAGGCATTAGAGACCGTTCAGCGCCTGTTACCTGTCCTGTGCCAGGATCACGGTTTAACACCTGACCAAGTTGTCGCGATCGCCAGCAACGGTGGTGGCAAACAGGCGCTGGAAACGGTTCAACGTTTACTGCCGGTTTTATGCCAAGACCATGGCCTTACACCGGACCAAGTTGTTGCCATCGCGTCAAACAATGGCGGGAAACAGGCTCTTGAAACAGTACAGCGTCTGCTGCCGGTATTATGTCAGGATCACGGGCTGACTCCTGACCAGGTGGTTGCGATTGCGAGCAACGGTGGTGGCAAGCAAGCGCTGGAGACTGTTCAGCGTCTGCTGCCGGTGCTGTGTCAGGATCACGGT'
p11
aS'CTGACGCCGGATCAGGTCGTGGCAATCGCGAGCCACGATGGCGGCAAACAGGCCTTAGAAACTGTGCAGCGTTTACTGCCGGTCCTGTGTCAGGATCATGGGTTAACCCCGGACCAGGTGGTAGCTATTGCAAGTCACGATGGTGGTAAACAAGCGCTGGAAACGGTCCAGCGTCTGTTACCAGTACTCTGCCAAGATCATGGCCTGACCCCGGATCAAGTCGTGGCCATTGCGTCTAACGGTGGGGGCAAACAGGCCTTAGAAACTGTCCAACGTTTACTGCCGGTGTTATGCCAGGATCATGGTCTGACCCCGGATCAGGTTGTCGCGATTGCTTCACACGATGGTGGCAAACAGGCACTGGAAACCGTCCAACGCCTGCTGCCGGTTCTGTGTCAAGACCACGGTCTGACGCCGGATCAGGTCGTGGCCATCGCTTCGAACATTGGCGGTAAACAGGCATTAGAAACGGTCCAGCGTCTGCTGCCAGTCCTTTGCCAGGACCACGGTCTGACACCAGATCAGGTAGTCGCGATCGCGTCTAACGGTGGCGGTAAACAAGCTCTGGAGACCGTACAGCGTCTGTTACCAGTTTTATGCCAAGATCACGGCCTCACTCCAGATCAGGTTGTTGCGATTGCCAGCCACGATGGTGGGAAGCAGGCGTTAGAAACCGTTCAACGCTTACTTCCGGTGTTATGTCAGGATCACGGCCTGACCCCAGACCAGGTGGTAGCAATCGCATCGAACATTGGCGGCAAACAAGCGCTGGAAACAGTACAGCGCCTGCTCCCGGTGCTGTGCCAGGACCATGGCCTGACGCCGGATCAGGTTGTGGCAATCGCAAGCAACAATGGTGGTAAACAAGCCTTAGAAACAGTGCAGCGCCTCTTACCAGTGCTGTGCCAGGATCACGGCTTAACACCGGATCAAGTGGTGGCCATCGCAAGTAACAATGGCGGGAAACAGGCGCTGGAGACCGTGCAGCGCCTGTTACCTGTTCTGTGTCAGGATCATGGTTTAACCCCGGATCAGGTGGTTGCTATTGCCTCTAACATTGGCGGTAAACAGGCACTGGAAACAGTTCAGCGCCTTTTACCAGTCCTGTGCCAGGACCATGGTTTAACTCCTGACCAGGTGGTGGCCATTGCTTCTAACATTGGGGGCAAGCAGGCCCTGGAGACCGTGCAACGCTTACTGCCGGTGTTATGCCAGGACCACGGTTTAACCCCGGATCAGGTGGTAGCGATTGCCTCGCACGATGGTGGTAAACAAGCTCTGGAAACCGTGCAGCGTTTACTGCCGGTACTGTGTCAGGATCATGGCCTGACCCCAGATCAAGTAGTTGCTATTGCGAGCAACATTGGCGGTAAGCAGGCATTAGAGACCGTTCAGCGCCTGTTACCTGTCCTGTGCCAGGATCACGGTTTAACACCTGACCAGGTTGTCGCGATCGCCAGCAACGGTGGTGGCAAACAGGCGCTGGAAACTGTTCAGCGTTTACTGCCGGTTTTATGCCAAGACCATGGCCTTACACCGGACCAAGTTGTTGCCATCGCGTCAAACAATGGCGGGAAACAGGCTCTCGAAACAGTACAGCGTCTGCTGCCGGTATTGTGTCAGGATCACGGGCTGACTCCTGACCAGGTGGTTGCGATTGCGAGCAACGGTGGTGGCAAGCAGGCGCTGGAGACAGTTCAGCGTCTGCTGCCGGTGCTGTGTCAGGACCACGGT'
p12
aS'CTGACGCCGGATCAAGTCGTGGCAATCGCGAGCCACGATGGCGGCAAACAGGCCTTAGAAACTGTGCAGCGTTTACTGCCGGTACTGTGTCAGGATCATGGGTTAACCCCGGACCAGGTGGTAGCTATCGCAAGTCACGATGGTGGTAAACAAGCGCTGGAAACGGTCCAGCGTCTGTTACCAGTACTCTGCCAAGATCATGGCCTGACCCCGGATCAGGTTGTGGCCATTGCGTCTAACGGTGGGGGCAAACAGGCCTTAGAGACTGTGCAGCGTTTACTGCCGGTGTTATGCCAGGATCATGGTCTGACCCCGGATCAGGTTGTCGCGATTGCTTCACACGATGGTGGCAAACAGGCACTGGAAACCGTCCAACGCCTGCTGCCGGTTCTGTGTCAAGACCACGGTCTGACGCCGGACCAGGTCGTGGCCATCGCTTCGAACATTGGCGGTAAACAGGCATTAGAAACGGTCCAGCGCCTGCTGCCTGTCTTATGCCAGGACCACGGTCTGACACCAGATCAAGTAGTCGCGATCGCGTCAAACGGTGGCGGTAAACAAGCTCTGGAAACAGTACAGCGTCTGTTACCAGTTTTATGCCAAGATCACGGCCTCACTCCAGATCAGGTAGTTGCGATCGCCAGCCACGATGGTGGGAAGCAGGCGTTAGAAACCGTTCAACGCTTACTTCCGGTGTTATGTCAGGATCATGGGCTGACCCCGGACCAGGTGGTAGCAATCGCATCGAACATTGGCGGCAAACAGGCGCTGGAAACAGTACAACGCCTGCTCCCGGTGCTGTGCCAGGACCATGGCCTGACGCCGGATCAGGTTGTGGCAATCGCAAGCAACAATGGTGGGAAACAAGCCTTAGAAACAGTGCAGCGCCTCTTACCAGTGCTGTGCCAGGATCACGGCTTAACACCGGATCAAGTCGTGGCCATTGCAAGCAACAATGGCGGTAAGCAGGCGCTGGAGACCGTGCAGCGCCTGTTACCTGTTCTGTGTCAGGATCATGGTTTAACCCCGGATCAGGTGGTTGCTATTGCCTCTAACATTGGCGGTAAACAGGCGCTGGAAACAGTTCAGCGCCTTTTACCAGTCCTGTGCCAAGACCATGGTTTAACTCCTGACCAGGTGGTGGCCATTGCTTCTAACATTGGGGGCAAGCAGGCCCTGGAGACCGTGCAACGCTTACTGCCGGTGTTATGCCAAGACCACGGTTTAACCCCGGATCAGGTGGTAGCGATTGCCTCGCACGATGGTGGTAAACAAGCTCTGGAAACCGTGCAACGTTTACTGCCGGTACTGTGTCAGGATCATGGCCTGACCCCAGATCAAGTAGTTGCTATTGCGAGCAACATTGGCGGTAAACAGGCATTAGAGACCGTTCAGCGCCTGTTACCTGTCCTGTGCCAGGATCACGGTTTAACACCTGACCAAGTTGTCGCGATCGCCAGCAACGGTGGTGGCAAACAGGCGCTGGAAACGGTTCAACGTTTACTGCCGGTTTTATGCCAAGACCATGGCCTTACACCGGACCAAGTTGTTGCCATCGCGTCAAACAATGGCGGGAAACAGGCTCTTGAAACAGTACAGCGTCTGCTGCCGGTACTCTGTCAGGATCACGGGCTGACTCCTGACCAGGTGGTTGCGATTGCGAGCAACGGTGGTGGCAAGCAGGCGCTGGAGACTGTTCAGCGTCTGCTGCCGGTGCTGTGTCAGGATCACGGT'
p13
aS'CTGACGCCGGATCAGGTGGTGGCAATCGCGAGCCACGATGGCGGCAAACAGGCCTTAGAAACTGTGCAGCGTTTACTGCCGGTTCTGTGTCAGGATCATGGGTTAACCCCGGACCAGGTGGTAGCTATTGCAAGTCACGATGGTGGTAAACAAGCGCTGGAAACGGTCCAGCGTCTGTTACCAGTACTCTGCCAAGATCATGGCCTGACCCCAGATCAAGTTGTGGCCATTGCGTCTAACGGTGGGGGCAAACAGGCCTTAGAGACTGTGCAGCGTTTACTGCCGGTGTTATGCCAGGATCATGGTCTGACCCCGGATCAGGTTGTCGCGATTGCTTCACACGATGGTGGCAAACAGGCACTGGAAACCGTCCAACGCCTGCTGCCGGTTCTGTGTCAAGACCACGGTCTGACGCCGGATCAGGTCGTGGCCATCGCTTCGAACATTGGGGGTAAACAGGCATTAGAAACGGTCCAGCGTCTGCTGCCGGTCCTTTGCCAGGACCACGGTCTGACCCCAGATCAGGTAGTCGCGATCGCGTCTAACGGTGGCGGTAAGCAAGCTCTGGAAACCGTTCAGCGTCTGTTACCAGTGTTATGCCAAGATCACGGCCTCACTCCAGATCAGGTAGTTGCGATCGCCAGCCACGATGGTGGGAAGCAGGCGTTAGAAACCGTTCAACGCTTACTTCCAGTGTTATGTCAGGATCATGGCCTGACCCCTGACCAGGTGGTAGCAATCGCATCGAACATTGGCGGCAAACAAGCGCTGGAAACAGTACAGCGCCTGCTCCCGGTGCTGTGCCAAGACCATGGCCTGACGCCGGACCAGGTTGTGGCAATCGCAAGCAACAATGGTGGTAAACAAGCCTTAGAAACAGTGCAGCGCCTCTTACCTGTTCTGTGCCAGGATCACGGCTTAACACCGGATCAAGTCGTGGCCATCGCAAGCAACAATGGCGGGAAACAGGCGCTGGAGACCGTGCAGCGCCTGTTACCTGTTCTGTGTCAGGATCATGGTTTAACCCCGGATCAGGTGGTTGCTATTGCCTCGAACATTGGCGGTAAACAGGCACTGGAAACAGTTCAGCGCCTTTTACCAGTCCTGTGCCAGGACCATGGGCTGACTCCTGACCAGGTGGTGGCCATTGCTTCTAACATTGGGGGCAAGCAGGCCCTGGAGACCGTGCAACGCTTACTGCCGGTGTTATGCCAGGACCACGGTTTAACCCCGGATCAGGTGGTAGCGATTGCCTCGCACGATGGTGGTAAACAAGCTCTGGAAACCGTGCAACGTTTACTGCCGGTACTGTGTCAGGATCATGGCCTGACCCCAGATCAAGTAGTTGCTATTGCGAGCAACATTGGCGGTAAACAGGCATTAGAGACCGTTCAGCGCCTGTTACCTGTCCTGTGCCAGGATCACGGTTTAACACCTGACCAGGTTGTTGCGATCGCCAGCAACGGTGGTGGCAAACAGGCGCTGGAAACGGTTCAGCGTTTACTGCCGGTTTTGTGCCAAGACCATGGCCTTACACCGGACCAAGTTGTTGCCATCGCGTCAAACAATGGCGGGAAACAGGCTCTTGAAACAGTACAGCGTCTGCTGCCGGTATTATGTCAGGATCACGGGCTGACTCCTGACCAGGTGGTTGCGATTGCGAGCAACGGTGGTGGCAAACAGGCGCTGGAGACTGTTCAACGTCTGCTGCCGGTGCTGTGTCAGGACCACGGT'
p14
aS'CTGACGCCGGATCAGGTCGTGGCAATCGCGAGCCACGATGGCGGCAAACAGGCCTTAGAGACTGTGCAGCGTTTACTGCCGGTTCTGTGTCAGGATCATGGGTTAACCCCGGACCAGGTGGTAGCTATTGCAAGTCACGATGGTGGTAAACAAGCGCTGGAAACGGTCCAGCGTCTGTTACCAGTACTCTGCCAAGATCATGGCCTGACCCCGGATCAAGTCGTGGCGATTGCGTCTAACGGTGGGGGCAAACAGGCCTTAGAAACTGTGCAGCGTTTACTGCCGGTGTTATGCCAGGATCATGGTCTGACCCCGGATCAGGTTGTCGCGATTGCTTCACACGATGGTGGCAAACAGGCACTGGAAACCGTCCAACGCCTGCTGCCGGTTCTGTGTCAAGACCACGGTCTGACCCCGGATCAGGTCGTGGCCATCGCTTCTAACATTGGCGGTAAACAGGCATTAGAAACGGTCCAGCGTCTGCTGCCTGTCCTTTGCCAGGACCATGGTCTGACACCAGATCAAGTAGTCGCGATCGCGTCAAACGGTGGCGGTAAGCAAGCTCTGGAAACCGTACAGCGTCTGTTACCAGTTTTATGCCAAGATCACGGCCTCACTCCAGATCAGGTAGTTGCGATTGCCAGCCACGATGGTGGGAAGCAGGCGTTAGAAACCGTTCAACGCTTACTTCCGGTGTTATGTCAGGATCATGGCCTGACCCCGGACCAGGTAGTAGCAATCGCATCGAACATTGGCGGCAAACAAGCGCTGGAAACAGTACAGCGCCTGCTCCCGGTGCTGTGCCAGGACCACGGCCTGACGCCGGATCAGGTTGTGGCAATCGCAAGCAACAATGGTGGTAAGCAAGCCTTAGAAACAGTGCAGCGCCTCTTACCAGTGCTGTGCCAGGATCACGGCTTAACACCGGATCAAGTCGTGGCCATCGCAAGCAACAATGGCGGGAAACAGGCGCTGGAGACCGTGCAGCGCCTGTTACCTGTTCTGTGTCAGGATCATGGTTTAACCCCGGATCAGGTGGTTGCTATTGCCTCGAACATTGGCGGTAAACAGGCACTGGAAACAGTTCAGCGCCTTTTACCAGTCCTGTGCCAGGACCATGGTTTAACTCCTGACCAGGTGGTGGCCATTGCTTCTAACATTGGGGGCAAGCAGGCCCTGGAGACCGTGCAACGCTTACTGCCGGTGTTATGCCAAGACCACGGTTTAACCCCGGATCAGGTGGTAGCGATTGCCTCGCACGATGGTGGTAAACAAGCTCTGGAAACCGTGCAACGTTTACTGCCGGTACTGTGTCAGGATCATGGCCTGACCCCAGATCAAGTAGTTGCTATTGCGAGCAACATTGGCGGTAAACAGGCATTAGAGACCGTTCAGCGCCTGCTGCCTGTCCTGTGCCAGGATCACGGTTTAACACCTGACCAAGTTGTCGCGATCGCCAGCAACGGTGGTGGCAAACAGGCTCTGGAAACGGTTCAGCGTTTACTGCCGGTTTTATGCCAAGACCATGGCCTTACACCGGACCAAGTTGTTGCCATCGCGTCAAACAATGGCGGGAAACAGGCTCTCGAAACAGTACAGCGTCTGCTGCCGGTATTATGTCAGGATCACGGGCTGACTCCTGACCAGGTGGTTGCGATTGCGAGCAACGGTGGTGGCAAGCAGGCGCTGGAGACTGTTCAGCGTCTGCTGCCGGTGCTGTGTCAGGATCACGGT'
p15
aS'CTGACGCCGGATCAGGTCGTGGCAATCGCGAGCCACGATGGCGGCAAACAGGCCTTAGAGACTGTGCAGCGTTTACTGCCAGTTCTGTGTCAAGATCATGGGTTAACCCCGGACCAGGTGGTAGCTATTGCAAGTCACGATGGTGGTAAACAAGCGCTGGAAACGGTCCAGCGTCTGTTACCAGTACTCTGCCAAGATCATGGCCTGACGCCGGATCAAGTTGTGGCCATTGCGTCTAACGGTGGGGGCAAACAGGCCTTAGAAACTGTGCAGCGTTTACTGCCGGTGTTATGCCAGGATCATGGTCTGACCCCGGATCAGGTTGTCGCGATTGCTTCACACGATGGTGGCAAACAGGCACTGGAAACCGTCCAACGCCTGCTGCCGGTTCTGTGTCAAGACCACGGTCTGACCCCGGATCAGGTCGTGGCCATCGCTTCTAACATTGGCGGTAAACAGGCATTAGAAACGGTCCAGCGTCTGCTGCCTGTCCTTTGCCAGGACCATGGTCTGACACCAGATCAAGTAGTCGCGATCGCGTCAAACGGTGGCGGTAAGCAAGCTCTGGAAACCGTACAGCGTCTGTTACCAGTTTTATGCCAAGATCACGGCCTGACTCCAGATCAGGTAGTTGCGATTGCCAGCCACGATGGTGGGAAGCAGGCGTTAGAAACCGTTCAACGCTTACTTCCGGTGTTATGTCAGGATCATGGCCTGACCCCGGACCAGGTAGTAGCAATCGCATCGAACATTGGCGGCAAACAAGCGCTGGAAACAGTACAGCGCCTGCTCCCGGTGCTGTGCCAGGACCATGGCCTGACGCCGGATCAGGTTGTGGCAATCGCAAGCAACAATGGTGGTAAACAAGCCTTAGAAACAGTGCAGCGCCTCTTACCAGTGCTGTGCCAGGATCACGGCTTAACACCGGATCAAGTCGTGGCCATCGCAAGCAACAATGGCGGGAAACAGGCGCTGGAGACCGTGCAACGCCTGTTACCTGTTCTGTGTCAGGATCATGGTTTAACCCCGGATCAGGTGGTTGCTATTGCCTCTAACATTGGCGGTAAACAGGCACTGGAAACAGTTCAGCGCCTTTTACCAGTCCTGTGCCAGGACCATGGTTTAACTCCTGACCAGGTGGTGGCCATTGCTTCTAACATTGGGGGCAAGCAGGCCCTGGAGACCGTGCAACGCTTACTGCCGGTGTTATGCCAAGACCACGGTTTAACCCCGGATCAGGTGGTAGCGATTGCCTCGCACGATGGTGGTAAACAAGCTCTGGAAACCGTGCAACGTTTACTGCCGGTACTGTGTCAGGATCATGGCCTGACCCCAGATCAAGTAGTTGCTATTGCGAGCAACATTGGCGGTAAACAGGCATTAGAGACCGTGCAGCGCCTGTTACCTGTCCTGTGCCAGGATCACGGTTTAACACCTGACCAAGTGGTCGCGATCGCCAGCAACGGTGGTGGCAAACAGGCGCTGGAAACGGTTCAGCGTTTACTGCCGGTTTTATGCCAAGACCATGGCCTTACACCGGACCAAGTTGTTGCCATCGCGTCAAACAATGGCGGGAAACAGGCTCTCGAAACAGTACAGCGCCTGCTGCCGGTATTATGTCAGGATCACGGCCTGACTCCTGACCAGGTGGTTGCGATTGCGAGCAACGGTGGTGGCAAGCAGGCGCTGGAAACTGTTCAACGTCTGCTGCCGGTGCTGTGTCAGGACCACGGT'
p16
aS'CTGACGCCGGATCAGGTCGTGGCAATCGCGAGCCACGATGGCGGCAAACAGGCCTTAGAGACTGTGCAGCGTTTACTGCCGGTTCTGTGTCAGGATCATGGGTTAACCCCGGACCAGGTGGTAGCTATTGCAAGTCACGATGGTGGTAAACAAGCGCTGGAAACGGTCCAGCGTCTGTTACCAGTACTCTGCCAAGATCATGGCCTGACCCCGGATCAGGTTGTGGCCATTGCGTCAAACGGTGGGGGCAAACAGGCCTTAGAAACTGTGCAGCGTTTACTGCCGGTGTTATGCCAGGATCATGGTCTGACCCCGGATCAGGTTGTCGCGATTGCTTCACACGATGGTGGGAAACAGGCACTTGAAACCGTCCAACGCCTGCTGCCGGTTCTGTGTCAAGACCACGGGCTGACGCCGGATCAGGTCGTGGCCATCGCTTCGAACATTGGCGGTAAACAAGCATTAGAAACGGTCCAGCGTCTGCTGCCTGTCCTTTGCCAGGACCACGGTCTGACACCAGATCAAGTAGTCGCGATCGCGTCAAACGGTGGCGGTAAACAAGCTCTGGAAACCGTACAGCGTCTGTTACCAGTTTTATGCCAGGATCACGGCCTCACTCCAGACCAGGTTGTTGCGATTGCCAGCCACGATGGTGGGAAACAGGCGTTAGAAACCGTTCAACGCTTACTTCCGGTGTTATGTCAGGATCACGGCCTGACCCCAGACCAAGTGGTAGCAATCGCATCGAACATTGGCGGCAAACAAGCGCTGGAAACAGTACAGCGCCTGCTCCCGGTGCTGTGCCAGGACCATGGCCTGACGCCGGATCAGGTTGTGGCAATCGCAAGCAACAATGGTGGTAAACAAGCCTTAGAAACAGTGCAGCGCCTCTTACCAGTGCTGTGCCAGGATCACGGCTTAACACCGGATCAAGTCGTGGCCATCGCAAGCAACAATGGCGGGAAACAGGCGCTGGAGACCGTGCAGCGCCTGTTACCTGTTCTGTGTCAGGATCATGGTTTAACCCCGGATCAGGTGGTTGCTATTGCCTCTAACATTGGCGGTAAACAGGCACTGGAAACAGTTCAGCGCCTTTTACCAGTCCTGTGCCAAGACCATGGTTTAACTCCTGACCAGGTGGTGGCCATTGCTTCTAACATTGGGGGCAAGCAGGCCCTGGAGACCGTGCAACGCTTACTGCCGGTGTTATGCCAAGACCACGGTTTAACCCCGGATCAGGTGGTAGCGATTGCCTCGCACGATGGTGGTAAACAAGCTCTTGAAACCGTGCAACGTTTACTGCCGGTACTGTGTCAGGATCATGGCCTGACCCCAGATCAAGTAGTTGCTATTGCGAGCAACATTGGCGGTAAACAGGCATTAGAGACCGTTCAGCGCCTGTTACCTGTCCTGTGCCAGGATCACGGTTTAACACCTGACCAGGTTGTCGCGATTGCCAGCAACGGTGGTGGCAAACAGGCGCTGGAAACGGTTCAGCGTTTACTGCCGGTTTTATGCCAAGACCATGGCCTTACACCGGACCAAGTTGTTGCCATCGCGTCAAACAATGGCGGGAAACAGGCTCTCGAAACAGTACAGCGTCTGCTGCCGGTATTATGTCAGGATCACGGGCTGACTCCTGACCAGGTGGTTGCGATTGCGAGCAACGGTGGTGGCAAGCAGGCGCTGGAGACTGTTCAGCGTCTGCTGCCGGTGCTGTGTCAGGACCACGGT'
p17
aS'CTGACGCCGGATCAGGTGGTGGCAATCGCGAGCCACGATGGCGGCAAACAGGCCTTAGAAACTGTGCAGCGTTTACTGCCGGTTCTGTGTCAGGATCATGGGTTAACCCCGGACCAGGTGGTAGCTATTGCAAGTCACGATGGTGGTAAACAAGCGCTGGAAACGGTCCAGCGTCTGTTACCAGTACTCTGCCAAGATCATGGCCTGACCCCAGATCAAGTTGTGGCCATTGCGTCTAACGGTGGGGGCAAACAGGCCTTAGAGACTGTGCAGCGTTTACTGCCGGTGTTATGCCAGGATCATGGTCTGACCCCGGATCAGGTTGTCGCGATTGCTTCACACGATGGTGGCAAACAGGCACTGGAAACCGTCCAACGCCTGCTGCCGGTTCTGTGTCAAGACCACGGTCTGACGCCGGATCAGGTCGTGGCCATCGCTTCGAACATTGGGGGTAAACAGGCATTAGAAACGGTCCAGCGTCTGCTGCCGGTCCTTTGCCAGGACCACGGTCTGACTCCAGATCAGGTAGTCGCGATCGCGTCTAACGGTGGCGGTAAGCAAGCTCTGGAAACCGTACAGCGTCTGTTACCAGTGTTATGCCAAGATCACGGCCTCACTCCAGATCAGGTAGTTGCGATCGCCAGCCACGATGGTGGGAAACAGGCGTTAGAAACCGTTCAACGCTTACTTCCGGTGTTATGTCAGGATCATGGCCTGACCCCGGACCAGGTGGTAGCAATCGCATCGAACATTGGCGGCAAACAAGCGCTGGAAACAGTACAGCGCCTGCTCCCGGTCCTGTGCCAGGACCATGGCCTGACGCCGGATCAGGTTGTGGCAATCGCAAGCAACAATGGTGGTAAGCAAGCCTTAGAAACAGTGCAGCGCCTCTTACCAGTGCTGTGCCAGGATCACGGCTTAACACCGGATCAAGTCGTGGCCATCGCAAGCAACAATGGCGGTAAACAAGCGCTGGAGACCGTGCAGCGCCTGTTACCTGTTCTGTGTCAGGATCATGGTTTAACCCCGGATCAGGTGGTTGCTATTGCCTCTAACATTGGCGGTAAACAGGCACTGGAAACAGTTCAGCGCCTTTTACCAGTCCTGTGCCAGGACCATGGTTTAACTCCTGACCAGGTGGTGGCCATTGCTTCTAACATTGGGGGCAAGCAGGCCCTGGAGACCGTGCAACGCCTTCTGCCGGTGTTATGCCAGGACCACGGTTTAACCCCGGATCAGGTGGTAGCGATTGCCTCGCACGATGGTGGTAAACAAGCACTGGAAACCGTGCAACGTTTACTGCCGGTACTGTGTCAGGATCATGGCCTGACCCCAGATCAAGTAGTTGCTATTGCGAGCAACATTGGCGGTAAACAGGCATTAGAGACCGTTCAGCGCCTGTTACCTGTCCTGTGCCAGGATCACGGTTTAACACCTGACCAAGTTGTCGCGATCGCCAGCAACGGTGGTGGCAAACAGGCGCTGGAAACGGTTCAACGTTTACTGCCGGTTTTATGCCAAGACCATGGCCTTACACCGGACCAAGTTGTTGCCATCGCGTCAAACAATGGCGGGAAACAGGCTCTTGAAACAGTACAGCGTCTGCTGCCGGTATTATGTCAGGATCACGGGCTGACTCCTGACCAGGTGGTTGCGATTGCGAGCAACGGTGGTGGCAAGCAGGCGCTGGAGACTGTTCAGCGTCTGCTGCCGGTGCTGTGTCAGGATCACGGT'
p18
aS'CTGACGCCGGATCAGGTGGTGGCAATCGCGAGCCACGATGGCGGCAAACAGGCCTTAGAAACTGTGCAGCGTTTACTGCCGGTTCTGTGTCAGGATCATGGGTTAACCCCGGACCAGGTGGTAGCTATTGCAAGTCACGATGGTGGTAAACAAGCGCTTGAAACGGTCCAGCGTCTGTTACCAGTACTCTGCCAAGATCATGGCCTGACCCCGGATCAAGTTGTGGCCATTGCGTCTAACGGTGGGGGCAAACAGGCCTTAGAGACTGTGCAGCGTTTACTGCCGGTGTTATGCCAGGATCATGGTCTGACCCCGGATCAGGTTGTCGCGATTGCTTCACACGATGGTGGCAAACAGGCACTGGAAACCGTCCAACGCCTGCTGCCGGTTCTGTGCCAAGACCACGGTCTGACGCCGGATCAGGTCGTGGCAATCGCTTCGAACATTGGGGGTAAACAGGCATTAGAAACGGTCCAGCGTCTGCTGCCGGTCCTTTGCCAGGACCACGGTCTGACCCCAGATCAGGTAGTCGCGATCGCGTCTAACGGTGGCGGTAAGCAAGCTCTGGAAACCGTTCAGCGTCTGTTACCAGTGTTATGCCAAGATCACGGCCTCACTCCAGATCAGGTAGTTGCGATCGCCAGCCACGATGGTGGGAAGCAGGCGTTAGAAACCGTTCAACGCTTACTTCCAGTGTTATGTCAGGATCATGGCCTGACCCCTGACCAGGTGGTAGCAATCGCATCGAACATTGGCGGCAAACAAGCGCTGGAAACAGTACAGCGCCTGCTCCCGGTGCTGTGCCAAGACCATGGCCTGACGCCGGACCAGGTTGTGGCAATCGCAAGCAACAATGGTGGTAAACAAGCCTTAGAAACAGTGCAGCGCCTCTTACCTGTTCTGTGCCAGGATCACGGCTTAACACCGGATCAAGTCGTGGCCATCGCAAGCAACAATGGCGGGAAACAAGCGCTGGAGACCGTGCAGCGCCTGTTACCTGTTCTGTGTCAGGATCATGGTTTAACCCCGGATCAGGTGGTTGCTATTGCCTCGAACATTGGCGGTAAACAGGCACTGGAAACAGTTCAGCGCCTTTTACCAGTCCTGTGCCAGGACCATGGTTTAACTCCTGACCAGGTGGTGGCCATTGCTTCTAACATTGGGGGCAAGCAGGCCCTGGAGACCGTGCAACGCTTACTGCCGGTGTTATGCCAAGACCACGGTTTAACCCCGGATCAGGTGGTAGCGATTGCCTCGCACGATGGTGGTAAACAAGCTCTGGAAACCGTGCAACGTTTACTGCCGGTACTGTGTCAGGATCATGGCCTGACCCCAGATCAAGTAGTTGCTATTGCGAGCAACATTGGCGGTAAACAGGCATTAGAGACCGTTCAGCGCCTGCTGCCTGTCCTGTGCCAGGATCACGGTTTAACACCTGACCAAGTTGTCGCGATCGCCAGCAACGGTGGTGGCAAACAGGCGCTGGAAACGGTTCAGCGTTTACTGCCGGTTTTATGCCAAGACCATGGCCTTACACCGGACCAAGTTGTTGCCATCGCGTCAAACAATGGCGGGAAACAGGCTCTCGAAACAGTACAGCGTCTGCTGCCGGTATTATGTCAGGATCACGGGCTGACTCCTGACCAGGTGGTTGCGATTGCGAGCAACGGTGGTGGCAAGCAGGCGCTGGAGACTGTTCAGCGTCTGCTGCCGGTGCTGTGTCAGGATCACGGT'
p19
aS'CTGACGCCGGATCAGGTCGTGGCAATCGCGAGCCACGATGGCGGCAAACAGGCCTTAGAGACTGTGCAGCGCTTACTGCCGGTTCTGTGTCAGGATCATGGGTTAACCCCGGACCAGGTGGTAGCTATTGCAAGTCACGATGGTGGTAAACAAGCGTTAGAAACGGTCCAGCGTCTGTTACCAGTCCTCTGCCAAGATCATGGCCTGACCCCGGATCAGGTTGTGGCCATTGCGTCAAACGGTGGGGGCAAACAGGCCTTAGAAACTGTGCAGCGTTTACTGCCGGTGTTATGCCAGGATCATGGTCTGACCCCGGATCAGGTTGTCGCGATTGCTTCACACGATGGTGGCAAACAGGCACTGGAAACCGTCCAACGCCTGCTGCCGGTTCTGTGTCAAGACCACGGTCTGACGCCGGATCAGGTCGTGGCCATTGCTTCGAACATTGGCGGTAAACAGGCATTAGAAACGGTCCAGCGTCTGCTGCCGGTCCTTTGCCAGGACCACGGTCTGACACCAGATCAGGTAGTCGCGATCGCGTCTAACGGTGGCGGGAAACAAGCTCTGGAAACAGTACAGCGTCTGTTACCAGTTTTATGCCAAGATCACGGCCTCACTCCAGATCAGGTAGTTGCGATCGCCAGCCACGATGGTGGGAAGCAGGCGTTAGAAACCGTTCAACGCTTACTTCCGGTGTTATGTCAGGATCATGGCCTGACCCCGGACCAGGTGGTAGCAATCGCATCGAACATTGGCGGCAAACAGGCGCTGGAAACAGTACAACGCCTGCTCCCGGTGCTGTGCCAGGACCATGGCCTGACGCCGGATCAGGTTGTGGCAATCGCAAGCAACAATGGTGGTAAACAAGCCTTAGAAACAGTGCAGCGCCTCTTACCAGTGCTGTGCCAGGATCATGGCTTAACACCGGATCAAGTCGTGGCCATCGCAAGCAACAATGGCGGTAAACAAGCGCTGGAGACCGTGCAGCGCCTGTTACCTGTTCTGTGTCAGGATCATGGTTTAACCCCGGATCAGGTGGTTGCTATTGCCTCTAACATTGGCGGTAAACAGGCCCTGGAAACAGTTCAGCGCCTTTTACCAGTCCTGTGCCAGGACCATGGTTTAACTCCTGACCAGGTGGTGGCCATTGCTTCTAACATTGGGGGCAAGCAGGCCCTGGAGACCGTGCAACGCTTACTGCCGGTGTTATGCCAGGACCACGGTTTAACCCCGGATCAGGTGGTAGCGATTGCCTCGCACGATGGTGGTAAACAAGCTCTGGAAACCGTGCAACGTTTACTGCCGGTACTGTGTCAGGATCATGGCCTGACCCCAGATCAAGTAGTTGCTATTGCGAGCAACATTGGCGGTAAGCAGGCATTAGAGACCGTTCAGCGCCTGTTACCTGTCCTGTGCCAGGATCACGGGTTAACACCTGACCAAGTTGTCGCGATCGCCAGCAACGGTGGTGGCAAACAGGCGCTGGAAACCGTTCAGCGTTTACTGCCGGTTTTATGCCAAGACCATGGCCTTACACCGGACCAAGTTGTTGCCATCGCGTCAAACAATGGCGGGAAACAGGCTCTTGAAACAGTACAGCGTCTGCTGCCGGTATTATGTCAGGATCACGGGCTGACTCCTGACCAGGTAGTTGCGATTGCGAGCAACGGTGGTGGCAAGCAGGCGCTGGAGACAGTTCAGCGTCTGCTGCCGGTGCTGTGTCAGGACCACGGT'
p20
aS'CTGACGCCGGATCAGGTCGTGGCAATCGCGAGCCACGATGGCGGCAAACAGGCCTTAGAAACTGTGCAGCGTTTACTGCCGGTTCTGTGTCAGGATCATGGGTTAACCCCGGACCAGGTGGTAGCTATTGCAAGTCACGATGGTGGTAAACAAGCGCTGGAAACGGTCCAGCGTCTGTTACCAGTCCTCTGCCAAGATCATGGCCTGACCCCGGATCAGGTTGTGGCCATTGCGAGCAACGGTGGGGGCAAACAGGCCTTAGAAACTGTGCAGCGTTTACTGCCGGTGTTATGCCAGGATCATGGTCTGACCCCGGATCAGGTTGTCGCGATTGCTTCACACGATGGGGGCAAACAGGCACTGGAAACCGTCCAACGCCTGCTGCCGGTTCTGTGTCAAGACCACGGTCTGACGCCGGATCAGGTCGTGGCCATCGCTTCGAACATTGGCGGTAAACAGGCATTAGAGACGGTCCAGCGTCTGCTGCCGGTCCTTTGCCAGGACCACGGGCTGACACCAGATCAAGTAGTCGCGATCGCGTCAAACGGTGGCGGTAAACAAGCTCTGGAAACCGTACAGCGTCTGTTACCAGTTTTATGCCAAGATCACGGCCTCACTCCAGATCAGGTAGTTGCGATCGCCAGCCACGATGGTGGGAAGCAGGCGTTAGAAACCGTTCAACGCTTACTTCCGGTGTTATGTCAGGATCATGGCCTGACCCCGGACCAGGTAGTAGCAATCGCATCGAACATTGGCGGCAAACAAGCGCTGGAAACAGTACAGCGCCTGCTCCCGGTGCTGTGCCAGGACCATGGCCTGACGCCGGATCAGGTTGTGGCAATCGCAAGCAACAATGGTGGTAAGCAAGCCTTAGAAACAGTGCAGCGCCTCTTACCAGTGCTGTGCCAGGATCACGGCTTAACACCGGATCAAGTCGTGGCCATCGCAAGCAACAATGGCGGGAAACAGGCGCTGGAGACCGTGCAGCGCCTGTTACCTGTTCTGTGTCAGGATCATGGTTTAACCCCGGATCAGGTGGTTGCTATTGCCTCGAACATTGGCGGTAAACAGGCACTGGAAACAGTTCAGCGCCTTTTACCAGTCCTGTGCCAGGACCATGGTTTAACTCCTGACCAGGTGGTGGCCATTGCTTCTAACATTGGGGGCAAGCAAGCCCTGGAGACCGTGCAACGCTTACTGCCGGTGTTATGCCAAGACCACGGTTTAACCCCGGATCAGGTGGTAGCGATTGCCTCGCACGATGGTGGTAAACAAGCTCTGGAAACCGTGCAACGTTTACTGCCGGTACTGTGTCAGGATCATGGCCTGACCCCAGATCAGGTAGTTGCTATTGCGAGCAACATTGGCGGTAAACAGGCATTAGAGACCGTTCAGCGCCTGTTACCTGTCCTGTGCCAGGATCATGGTTTAACACCTGACCAAGTTGTCGCGATCGCCAGCAACGGTGGTGGCAAACAGGCGCTGGAAACGGTTCAGCGTTTACTGCCGGTTTTATGCCAAGACCATGGCCTTACACCGGACCAAGTTGTTGCCATCGCGTCAAACAATGGCGGGAAACAGGCTCTCGAAACAGTACAGCGTCTGCTGCCGGTATTATGTCAGGATCACGGGCTGACTCCTGACCAGGTGGTTGCGATTGCGAGCAACGGTGGTGGCAAGCAGGCGCTGGAGACTGTTCAGCGTCTGCTGCCGGTGCTGTGTCAGGATCACGGT'
p21
aS'CTGACGCCGGATCAGGTCGTGGCAATCGCGAGCCACGATGGCGGCAAGCAGGCCTTAGAGACTGTGCAGCGTTTACTGCCGGTTCTGTGTCAGGATCATGGGTTAACCCCGGACCAGGTGGTAGCTATTGCCTCGCACGATGGTGGTAAACAAGCGCTGGAAACGGTCCAGCGTCTGTTACCAGTACTCTGCCAAGATCATGGCCTGACCCCGGATCAGGTTGTGGCCATTGCGAGCAACGGTGGGGGCAAACAGGCCTTAGAAACTGTGCAGCGTTTACTGCCGGTGTTATGCCAGGATCATGGTCTGACCCCGGATCAGGTTGTCGCGATTGCTTCACACGATGGTGGCAAACAGGCACTGGAAACCGTCCAACGCCTGCTGCCGGTTCTGTGTCAAGACCACGGTCTGACGCCGGATCAGGTCGTGGCCATTGCTTCGAACATTGGCGGTAAACAGGCATTAGAAACGGTCCAGCGTCTGCTGCCGGTCCTTTGCCAGGACCACGGTCTGACACCAGATCAGGTAGTCGCGATCGCGTCTAACGGTGGCGGGAAACAAGCTCTGGAAACAGTACAGCGTCTGTTACCAGTTTTATGCCAAGATCACGGCCTCACTCCAGATCAGGTAGTTGCGATCGCCAGCCACGATGGTGGGAAGCAGGCGTTAGAAACCGTTCAACGCTTACTTCCGGTGTTATGTCAGGATCATGGCCTGACCCCGGACCAGGTGGTAGCAATCGCATCGAACATTGGCGGCAAACAGGCGCTGGAAACAGTACAACGCCTGCTCCCGGTGCTGTGCCAGGACCATGGCCTGACGCCGGATCAGGTTGTGGCAATCGCAAGCAACAATGGTGGTAAACAAGCCTTAGAAACAGTGCAGCGCCTCTTACCAGTGCTGTGCCAGGATCACGGCTTAACACCGGATCAAGTCGTGGCCATCGCAAGCAACAATGGCGGTAAACAAGCGCTGGAGACCGTGCAGCGCCTGTTACCTGTTCTGTGTCAGGATCATGGTTTAACCCCGGATCAGGTGGTTGCTATTGCCTCTAACATTGGCGGTAAACAGGCCCTGGAAACAGTTCAGCGCCTTTTACCAGTCCTGTGCCAGGACCATGGTTTAACTCCTGACCAGGTGGTGGCCATTGCTTCTAACATTGGGGGCAAGCAGGCCCTGGAGACCGTGCAACGCTTACTGCCGGTGTTATGCCAGGACCACGGCTTAACCCCGGATCAGGTGGTAGCGATTGCCTCGCACGATGGTGGTAAACAAGCTCTGGAAACCGTGCAACGTTTACTGCCGGTACTGTGTCAGGATCATGGCCTGACCCCAGATCAAGTAGTTGCTATTGCGAGCAACATTGGCGGTAAGCAGGCATTAGAGACCGTTCAGCGCCTGTTACCTGTCCTGTGCCAGGATCACGGGTTAACACCTGACCAAGTTGTCGCGATCGCCAGCAACGGTGGTGGCAAACAGGCGCTGGAAACGGTTCAGCGTTTACTGCCGGTTTTATGCCAAGACCATGGCCTTACACCGGACCAAGTTGTTGCCATCGCGTCAAACAATGGCGGGAAACAGGCTCTCGAAACAGTACAGCGTCTGCTGCCGGTATTATGTCAGGATCACGGGCTGACTCCTGACCAGGTGGTTGCGATTGCGAGCAACGGTGGTGGCAAGCAGGCGCTGGAGACTGTTCAGCGTCTTCTGCCGGTGCTGTGTCAGGACCACGGT'
p22
aS'CTGACGCCGGATCAGGTCGTGGCTATCGCGAGCCACGATGGCGGCAAACAGGCCTTAGAAACTGTGCAGCGTTTACTGCCGGTTCTGTGTCAGGATCATGGGTTAACCCCGGACCAGGTGGTAGCCATTGCAAGTCACGATGGTGGTAAACAAGCGCTGGAAACGGTCCAGCGTCTGTTACCAGTCCTCTGCCAAGATCATGGCCTGACCCCGGATCAGGTTGTGGCCATTGCGAGCAACGGTGGGGGCAAACAGGCCTTAGAAACTGTGCAGCGTTTACTGCCGGTGTTATGCCAGGATCATGGTCTGACCCCGGATCAGGTTGTCGCGATTGCTTCACACGATGGTGGCAAACAGGCACTTGAAACCGTCCAACGCCTGCTGCCGGTTCTGTGTCAAGACCACGGTCTGACGCCGGATCAGGTCGTGGCCATTGCTTCGAACATTGGCGGTAAACAGGCATTAGAAACGGTCCAGCGTCTGCTGCCGGTCCTTTGCCAGGACCACGGTCTGACACCAGATCAGGTTGTCGCGATCGCGTCTAACGGTGGCGGTAAACAAGCTCTGGAGACCGTACAACGTCTGTTACCAGTTTTATGCCAGGATCACGGCCTCACTCCAGATCAAGTAGTTGCGATCGCCAGCCACGATGGTGGGAAGCAGGCGTTAGAAACCGTTCAACGCTTACTTCCGGTGTTATGTCAGGACCATGGCCTGACCCCAGACCAGGTGGTAGCAATCGCATCGAACATTGGCGGCAAACAAGCGCTGGAAACAGTACAGCGCCTGCTCCCGGTGCTGTGCCAGGACCACGGCCTGACGCCGGATCAGGTTGTGGCAATCGCAAGCAACAATGGTGGTAAACAAGCCTTAGAGACAGTGCAGCGCCTCTTACCAGTGCTGTGCCAGGATCACGGCTTAACACCGGACCAAGTCGTGGCCATCGCAAGCAACAATGGCGGGAAACAGGCGCTGGAGACCGTGCAGCGCCTGTTACCTGTTCTGTGTCAGGATCATGGTTTAACCCCGGATCAGGTGGTTGCTATTGCCTCTAACATTGGCGGTAAACAGGCACTGGAAACAGTTCAACGCCTTTTACCAGTCCTGTGCCAAGACCATGGTTTAACTCCTGACCAGGTGGTGGCCATTGCTTCTAACATTGGGGGCAAGCAGGCCCTGGAGACCGTGCAACGCTTACTGCCGGTTTTATGCCAAGACCATGGTTTAACACCGGATCAGGTGGTAGCGATTGCCTCGCACGATGGTGGTAAACAAGCTCTGGAAACCGTGCAACGTTTACTGCCGGTACTGTGTCAGGATCATGGCCTGACCCCAGATCAAGTAGTTGCTATTGCGAGCAACATTGGCGGTAAACAAGCATTAGAGACCGTTCAGCGCCTGTTACCTGTCCTGTGCCAGGATCACGGTTTAACACCTGACCAAGTTGTCGCGATCGCCAGCAACGGTGGTGGCAAACAGGCGCTGGAAACGGTTCAGCGTTTACTGCCGGTTTTATGCCAAGATCATGGCCTTACACCGGACCAAGTTGTTGCCATCGCGTCAAACAATGGCGGGAAACAGGCTCTTGAAACAGTACAGCGTCTGCTGCCGGTATTATGTCAGGATCACGGGCTGACTCCTGACCAGGTGGTTGCGATTGCGAGCAACGGTGGTGGCAAGCAGGCGCTGGAGACAGTTCAGCGTCTGCTGCCGGTGCTGTGTCAGGACCACGGT'
p23
aS'CTGACGCCGGATCAGGTCGTGGCAATCGCGAGCCACGATGGCGGCAAACAGGCCTTAGAAACTGTGCAGCGTTTACTGCCGGTTCTGTGTCAGGATCATGGGTTAACCCCGGACCAGGTGGTAGCTATTGCAAGTCACGATGGTGGTAAACAAGCGCTGGAAACGGTCCAACGTCTGTTACCAGTACTCTGCCAAGATCATGGCCTGACCCCGGATCAAGTTGTGGCCATTGCGTCTAACGGTGGGGGCAAACAGGCCTTAGAAACTGTGCAGCGTTTACTGCCGGTGTTATGCCAGGATCATGGTCTGACCCCGGATCAGGTAGTCGCGATTGCTTCACACGATGGTGGCAAACAGGCACTGGAAACCGTCCAACGCCTGCTGCCGGTTCTGTGTCAAGACCACGGTCTGACGCCGGATCAGGTCGTGGCCATCGCTTCGAACATTGGCGGTAAACAGGCATTAGAAACAGTCCAGCGTCTGCTGCCGGTCCTTTGCCAGGACCACGGTCTGACACCAGATCAGGTAGTCGCGATCGCGTCTAACGGTGGCGGTAAACAAGCTCTGGAAACCGTACAGCGTCTGTTACCAGTTTTATGCCAAGATCACGGCCTCACTCCAGATCAGGTTGTTGCGATTGCCAGCCACGATGGTGGGAAGCAGGCGTTAGAAACCGTTCAACGCTTACTTCCGGTGTTATGTCAGGATCACGGCCTGACCCCAGACCAGGTGGTAGCAATCGCATCGAACATTGGCGGCAAACAAGCGCTGGAAACAGTACAGCGCCTGCTCCCGGTGCTGTGCCAGGACCATGGCCTGACGCCGGATCAGGTTGTCGCAATCGCAAGCAACAATGGTGGTAAACAAGCCTTAGAAACAGTGCAGCGCCTCTTACCAGTGCTGTGCCAGGATCACGGCTTAACACCGGATCAAGTCGTGGCCATCGCAAGCAACAATGGCGGGAAACAGGCGCTGGAGACCGTGCAACGCCTGTTACCTGTTCTGTGTCAGGATCATGGTTTAACCCCGGATCAGGTGGTTGCTATTGCCTCTAACATTGGCGGTAAACAGGCACTGGAAACAGTTCAGCGCCTTTTACCAGTCCTGTGCCAGGACCATGGTTTAACTCCTGACCAGGTGGTGGCCATTGCTTCTAACATTGGGGGCAAGCAGGCCCTGGAAACCGTGCAACGCTTACTGCCGGTGTTATGCCAAGACCACGGTTTAACCCCGGATCAGGTGGTAGCGATTGCCTCGCACGATGGTGGTAAACAAGCTCTGGAAACCGTGCAACGTTTACTGCCGGTACTGTGTCAGGATCATGGCCTGACCCCAGACCAAGTAGTTGCTATTGCGAGCAACATTGGCGGTAAACAGGCATTAGAGACCGTTCAGCGCCTGTTACCTGTCCTGTGCCAGGATCACGGTTTAACACCTGACCAAGTTGTCGCGATCGCCAGCAACGGTGGTGGCAAACAGGCGCTGGAAACGGTTCAGCGTTTACTGCCGGTTTTATGCCAAGACCATGGCCTTACACCGGACCAAGTTGTTGCCATCGCGTCAAACAATGGCGGGAAACAGGCTCTTGAAACAGTACAGCGTCTGCTGCCGGTATTATGTCAGGATCACGGGCTGACTCCTGACCAGGTGGTTGCGATTGCGAGCAACGGTGGTGGCAAGCAGGCGCTGGAGACTGTTCAGCGTCTGCTGCCGGTGCTGTGCCAGGATCACGGT'
p24
aS'CTGACGCCGGATCAGGTCGTGGCAATCGCGAGCCACGATGGCGGCAAACAGGCCTTAGAAACTGTGCAGCGTTTACTGCCGGTTCTGTGTCAGGATCATGGGTTAACCCCGGACCAGGTGGTAGCTATTGCAAGTCACGATGGTGGTAAACAAGCGCTGGAAACGGTCCAGCGTCTGTTACCAGTACTCTGCCAAGATCATGGCCTGACCCCAGATCAAGTTGTGGCCATTGCGTCTAACGGTGGGGGCAAACAGGCCTTAGAGACTGTGCAGCGTTTACTGCCGGTGTTATGCCAGGATCATGGTCTGACCCCGGATCAGGTTGTCGCGATTGCTTCACACGATGGTGGCAAACAGGCACTGGAAACCGTCCAACGCCTGCTGCCGGTTCTGTGTCAAGACCACGGTCTGACGCCGGATCAGGTCGTGGCCATCGCTTCGAACATTGGGGGTAAACAGGCATTAGAAACGGTCCAGCGTCTGCTGCCGGTCCTTTGCCAGGACCACGGTCTGACCCCAGATCAGGTAGTCGCGATCGCGTCTAACGGTGGCGGTAAGCAAGCTCTGGAAACCGTTCAGCGTCTGTTACCAGTGTTATGCCAAGATCACGGCCTCACTCCAGATCAGGTAGTTGCGATCGCCAGCCACGATGGTGGGAAGCAGGCGTTAGAAACCGTTCAACGCTTACTTCCAGTGTTATGTCAGGATCATGGCCTGACCCCTGACCAGGTGGTAGCAATCGCATCGAACATTGGCGGCAAACAAGCGCTGGAAACAGTACAGCGCCTGCTCCCGGTGCTGTGCCAAGACCATGGCCTGACGCCGGACCAGGTTGTGGCAATCGCAAGCAACAATGGTGGTAAACAAGCCTTAGAAACAGTGCAGCGCCTCTTACCTGTTCTGTGCCAGGATCACGGCTTAACACCGGATCAAGTCGTGGCCATCGCAAGCAACAATGGCGGGAAACAGGCGCTGGAGACCGTGCAGCGCCTGTTACCTGTTCTGTGTCAGGATCATGGTTTAACCCCGGATCAGGTGGTTGCTATTGCCTCGAACATTGGCGGTAAACAGGCACTTGAAACAGTTCAGCGCCTTTTACCAGTCCTGTGCCAGGACCATGGTTTAACTCCTGACCAGGTGGTGGCCATTGCTTCTAACATTGGGGGCAAGCAGGCCCTGGAGACCGTGCAACGCTTACTGCCGGTGTTATGCCAAGACCACGGTTTAACCCCGGATCAGGTGGTAGCGATTGCCTCGCACGATGGTGGTAAACAAGCTCTGGAAACCGTGCAACGTTTACTGCCGGTACTGTGTCAGGATCATGGCCTGACCCCAGATCAAGTAGTTGCTATTGCGAGCAACATTGGCGGTAAACAGGCATTAGAGACCGTTCAGCGCCTGCTGCCTGTCCTGTGCCAGGATCACGGTTTAACACCTGACCAAGTTGTCGCGATCGCCAGCAACGGTGGTGGCAAACAGGCGCTGGAAACGGTTCAGCGTTTACTGCCGGTTTTATGCCAAGACCATGGCCTTACACCGGACCAAGTTGTTGCCATCGCGTCAAACAATGGCGGGAAACAGGCTCTCGAAACAGTACAGCGTCTGCTGCCGGTATTATGTCAGGATCACGGGCTGACTCCTGACCAGGTGGTTGCGATTGCGAGCAACGGTGGTGGCAAGCAGGCGCTGGAGACTGTTCAGCGTCTGCTGCCGGTGCTGTGTCAGGATCACGGT'
p25
aS'CTGACGCCGGATCAGGTCGTGGCAATCGCGAGCCACGATGGCGGCAAACAGGCCTTAGAAACTGTGCAACGTTTACTGCCGGTTCTGTGTCAGGATCATGGGTTAACCCCGGACCAGGTGGTAGCTATTGCAAGTCACGATGGTGGTAAACAAGCGCTGGAAACGGTGCAGCGTCTGTTACCAGTACTCTGCCAAGATCATGGCCTGACCCCGGATCAAGTTGTGGCCATTGCGTCTAACGGTGGGGGCAAACAGGCCTTAGAAACTGTCCAGCGTTTACTGCCGGTGTTATGCCAGGATCATGGTCTGACCCCGGATCAGGTTGTCGCGATTGCTTCACACGATGGTGGCAAACAGGCACTGGAAACCGTCCAACGCCTGCTGCCGGTTCTGTGTCAAGACCACGGTCTGACGCCGGACCAGGTCGTGGCCATCGCTTCGAACATTGGCGGTAAACAGGCATTAGAAACGGTCCAGCGCCTGCTGCCTGTCTTATGCCAGGACCACGGTCTGACACCAGATCAAGTAGTCGCGATCGCGTCAAACGGTGGCGGTAAACAAGCTCTGGAAACAGTACAGCGTCTGTTACCAGTTTTATGCCAAGATCACGGCCTCACTCCAGATCAGGTAGTTGCGATCGCCAGCCACGATGGTGGGAAGCAGGCGTTAGAAACCGTTCAACGCTTACTTCCGGTGTTATGTCAGGATCATGGGCTGACCCCGGACCAGGTGGTAGCAATCGCATCGAACATTGGCGGCAAACAGGCGCTGGAAACAGTACAACGCCTGCTCCCGGTGCTGTGCCAGGACCATGGCCTGACGCCGGATCAGGTTGTGGCAATCGCAAGCAACAATGGTGGTAAACAAGCCTTAGAAACAGTGCAGCGCCTCTTACCAGTGCTGTGCCAGGATCACGGCTTAACACCGGATCAAGTGGTGGCCATCGCAAGTAACAATGGCGGGAAACAGGCGCTGGAGACCGTGCAGCGCCTGTTACCTGTTCTGTGTCAGGATCATGGTTTAACCCCGGATCAGGTGGTTGCTATTGCCTCTAACATTGGCGGTAAACAGGCACTGGAAACAGTTCAGCGCCTTTTACCAGTCCTGTGCCAGGACCATGGTTTAACTCCTGACCAGGTGGTGGCCATTGCTTCTAACATTGGGGGCAAGCAGGCCCTGGAGACCGTGCAACGCTTACTGCCGGTGTTATGCCAGGACCACGGTTTAACCCCGGATCAGGTGGTAGCGATTGCCTCGCACGATGGTGGTAAACAAGCTCTGGAAACCGTGCAGCGTTTACTGCCGGTACTGTGTCAGGATCATGGCCTGACCCCAGATCAAGTAGTTGCTATTGCGAGCAACATTGGCGGTAAGCAGGCATTAGAGACCGTTCAGCGCCTGTTACCTGTCCTGTGCCAGGATCACGGTTTAACACCTGACCAGGTTGTCGCGATCGCCAGCAACGGTGGTGGCAAACAGGCGCTGGAAACTGTTCAGCGTTTACTGCCGGTTTTATGCCAAGACCATGGCCTTACACCGGACCAAGTTGTTGCCATCGCGTCAAACAATGGCGGGAAACAGGCTCTCGAAACAGTACAGCGTCTGCTGCCGGTATTATGTCAGGATCACGGGCTGACTCCTGACCAGGTGGTTGCGATTGCGAGCAACGGTGGTGGCAAGCAGGCGCTGGAGACAGTTCAGCGTCTGCTGCCGGTGCTGTGTCAGGACCACGGT'
p26
aS'CTGACGCCGGACCAGGTCGTGGCAATCGCGAGCCACGATGGCGGCAAACAGGCCTTAGAGACTGTGCAGCGTTTACTGCCGGTTCTGTGTCAGGATCACGGGTTAACCCCGGACCAGGTGGTAGCTATTGCATCACACGATGGTGGTAAACAAGCGCTGGAAACGGTCCAGCGTCTGTTACCAGTACTCTGCCAAGATCATGGCCTGACCCCGGATCAGGTTGTGGCCATTGCGTCTAACGGTGGGGGCAAACAGGCCTTAGAAACTGTGCAGCGTTTACTGCCGGTGTTATGCCAGGATCATGGTCTGACCCCGGATCAGGTTGTCGCGATTGCTTCACACGATGGTGGCAAACAGGCACTGGAAACCGTCCAACGCCTGCTGCCGGTTCTGTGTCAAGACCACGGTCTGACCCCGGATCAGGTCGTGGCCATCGCTTCTAACATTGGCGGTAAACAGGCATTAGAAACGGTCCAGCGTCTGCTGCCTGTCCTTTGCCAGGACCATGGTCTGACACCAGATCAAGTAGTCGCGATCGCGTCAAACGGTGGCGGTAAGCAAGCTCTTGAAACCGTACAGCGTCTGTTACCAGTTTTATGCCAAGATCACGGCCTCACTCCAGATCAGGTAGTTGCGATTGCCAGCCACGATGGTGGGAAGCAGGCGTTAGAAACCGTTCAACGCTTACTTCCGGTGTTATGTCAGGATCATGGCCTGACCCCGGACCAGGTAGTAGCAATCGCATCGAACATTGGCGGCAAACAAGCGCTGGAAACAGTACAGCGCCTGCTCCCGGTGCTGTGCCAGGACCATGGCCTGACGCCGGATCAGGTTGTGGCAATCGCAAGCAACAATGGTGGTAAGCAAGCCTTAGAAACAGTGCAGCGCCTCTTACCAGTGCTGTGCCAGGATCACGGCTTAACACCGGATCAAGTCGTGGCCATCGCAAGCAACAATGGCGGGAAACAGGCGCTGGAGACCGTGCAGCGCCTGTTACCTGTTCTGTGTCAGGATCATGGTTTAACCCCGGATCAGGTGGTTGCTATTGCCTCGAACATTGGCGGTAAACAGGCACTGGAAACAGTTCAGCGCCTTTTACCAGTCCTGTGCCAGGACCATGGTTTAACTCCTGACCAGGTGGTGGCCATTGCTTCTAACATTGGGGGCAAGCAGGCCCTGGAGACCGTGCAACGCTTACTGCCGGTGTTATGCCAAGACCACGGTTTAACCCCGGATCAGGTGGTAGCGATTGCCTCGCACGATGGTGGTAAACAAGCTCTGGAAACCGTGCAACGTTTACTGCCGGTACTGTGTCAGGATCATGGCCTGACCCCAGATCAAGTAGTTGCTATTGCGAGCAACATTGGCGGTAAACAGGCATTAGAGACCGTTCAGCGCCTGTTACCTGTCCTGTGCCAGGATCACGGTTTAACACCTGACCAGGTTGTCGCGATTGCCAGCAACGGTGGTGGCAAACAGGCGCTGGAAACGGTTCAGCGTTTACTGCCGGTTTTATGCCAAGACCATGGCCTTACACCGGACCAAGTTGTTGCCATCGCGTCAAACAATGGCGGGAAACAGGCTCTCGAAACAGTACAGCGTCTGCTGCCGGTATTATGTCAGGATCACGGGCTGACTCCTGACCAGGTGGTTGCGATTGCGAGCAACGGTGGTGGCAAGCAGGCGCTGGAGACTGTTCAGCGTCTGCTGCCGGTGCTGTGTCAGGACCACGGT'
p27
aS'CTGACGCCGGATCAGGTCGTGGCAATCGCGAGCCACGATGGCGGCAAACAGGCCTTAGAAACTGTGCAGCGTTTACTGCCGGTTCTGTGTCAAGATCATGGGTTAACCCCGGACCAGGTGGTAGCTATTGCAAGTCACGATGGTGGTAAACAAGCGCTGGAAACGGTCCAGCGTCTGTTACCAGTACTCTGCCAAGATCATGGCCTGACCCCGGATCAAGTTGTGGCCATTGCGTCTAACGGTGGGGGCAAACAGGCCTTAGAGACTGTGCAGCGTTTACTGCCGGTGTTATGCCAGGATCATGGTCTGACCCCGGATCAGGTTGTCGCGATTGCTTCACACGATGGTGGCAAACAGGCACTGGAAACCGTCCAACGCCTGCTGCCGGTTCTGTGTCAAGACCACGGTCTGACCCCGGATCAGGTCGTGGCCATCGCTTCTAACATTGGCGGTAAACAGGCATTAGAAACGGTCCAGCGTCTGCTGCCTGTCCTTTGCCAGGACCATGGGCTGACACCAGATCAGGTAGTCGCGATCGCGTCAAACGGTGGCGGTAAGCAAGCTCTGGAAACCGTACAGCGTCTGTTACCAGTTTTATGCCAAGATCACGGCCTGACTCCAGATCAGGTAGTTGCGATTGCCAGCCACGATGGTGGGAAGCAGGCGTTAGAAACCGTTCAACGCTTACTTCCGGTGTTATGTCAGGATCATGGCCTGACCCCGGACCAGGTAGTAGCAATCGCATCGAACATTGGCGGCAAACAAGCGCTGGAAACAGTACAGCGCCTGCTCCCGGTGCTGTGCCAGGACCATGGCCTGACGCCGGATCAGGTTGTGGCAATCGCAAGCAACAATGGTGGTAAGCAAGCCTTAGAAACAGTGCAGCGCCTCTTACCAGTGCTGTGCCAGGATCACGGCTTAACACCGGATCAAGTCGTGGCCATCGCAAGCAACAATGGCGGGAAACAGGCGCTGGAGACCGTGCAGCGCCTGTTACCTGTTCTGTGTCAGGATCATGGTTTAACCCCGGATCAGGTGGTTGCTATTGCCTCGAACATTGGCGGTAAACAGGCACTGGAAACAGTTCAGCGCCTTTTACCAGTCCTGTGCCAGGACCATGGTTTAACTCCTGACCAAGTGGTGGCCATTGCTTCTAACATTGGGGGCAAGCAGGCCCTGGAGACCGTGCAACGCTTACTGCCGGTGTTATGCCAAGACCACGGTTTAACCCCGGATCAGGTGGTAGCGATTGCCTCGCACGATGGTGGTAAACAAGCTCTGGAAACCGTGCAACGTTTACTGCCGGTACTGTGTCAGGATCATGGCCTGACCCCAGACCAAGTAGTTGCTATTGCGAGCAACATTGGCGGTAAACAGGCATTAGAGACCGTTCAGCGCCTGTTACCTGTCCTGTGCCAGGATCACGGTTTAACACCTGACCAAGTTGTGGCGATCGCCAGCAACGGTGGTGGCAAACAGGCGCTGGAAACGGTTCAGCGTTTACTGCCGGTTTTATGCCAAGACCATGGCCTTACACCGGACCAAGTTGTTGCCATCGCGTCAAACAATGGCGGGAAACAGGCTCTCGAAACAGTCCAGCGTCTGCTGCCGGTATTATGTCAGGATCACGGGCTGACTCCTGACCAGGTGGTTGCGATTGCGAGCAACGGTGGTGGCAAGCAGGCGCTGGAGACAGTTCAGCGTCTGCTGCCGGTGCTGTGTCAGGACCACGGT'
p28
aS'CTGACGCCGGATCAGGTCGTGGCAATCGCGAGCCACGATGGCGGCAAACAGGCCTTAGAGACTGTGCAGCGTTTACTGCCAGTTCTGTGTCAAGATCATGGGTTAACCCCGGACCAGGTGGTAGCTATTGCAAGTCACGATGGTGGTAAACAAGCGCTGGAAACGGTCCAGCGTCTGTTACCAGTACTCTGCCAAGATCATGGCCTGACCCCGGATCAAGTTGTGGCCATTGCGTCTAACGGTGGGGGCAAACAGGCCTTAGAAACTGTCCAGCGTTTACTGCCGGTGTTATGCCAGGATCATGGTCTGACCCCGGATCAGGTTGTCGCGATTGCTTCACACGATGGTGGCAAACAGGCACTGGAAACCGTCCAACGCCTGCTGCCGGTTCTGTGTCAAGACCACGGTCTGACGCCGGATCAGGTCGTGGCCATCGCTTCGAACATTGGCGGTAAGCAGGCATTAGAAACGGTCCAGCGTCTGCTGCCGGTCCTTTGCCAGGACCACGGTCTGACACCAGATCAAGTGGTCGCGATCGCGTCTAACGGTGGCGGTAAACAAGCTCTGGAAACCGTACAGCGTCTGTTACCAGTTTTATGCCAAGATCACGGCCTCACTCCAGATCAGGTAGTTGCGATCGCCAGCCACGATGGTGGGAAGCAGGCGTTAGAAACCGTTCAACGCTTACTTCCGGTGTTATGTCAGGATCATGGCCTGACCCCAGACCAGGTCGTAGCAATCGCATCAAACATTGGCGGCAAACAGGCGCTGGAAACAGTACAACGCCTGCTCCCGGTGCTGTGCCAGGACCATGGCCTGACGCCGGATCAGGTTGTGGCAATCGCAAGCAACAATGGTGGTAAGCAAGCCTTAGAAACAGTGCAGCGCCTCTTACCAGTGCTGTGCCAGGATCACGGCTTAACACCGGATCAAGTTGTGGCCATTGCAAGCAACAATGGTGGGAAACAGGCGCTGGAGACCGTGCAGCGCCTGTTACCTGTTCTGTGTCAGGATCATGGTTTAACCCCGGATCAGGTGGTTGCTATTGCCTCTAACATTGGCGGTAAACAGGCACTGGAAACAGTTCAGCGCCTTTTACCAGTCCTGTGCCAGGACCATGGTTTAACTCCTGACCAGGTGGTGGCCATTGCTTCTAACATTGGGGGCAAGCAGGCCCTGGAGACCGTGCAACGCTTACTGCCGGTGTTATGCCAAGACCACGGTTTAACCCCGGATCAGGTGGTAGCGATTGCCTCGCACGATGGTGGTAAACAAGCTCTGGAAACCGTGCAACGTTTACTGCCGGTACTGTGTCAGGATCATGGCCTGACCCCAGACCAAGTAGTTGCTATTGCGAGCAACATTGGCGGTAAACAGGCATTAGAGACCGTTCAGCGCCTGTTACCTGTCCTGTGCCAGGACCACGGTTTAACACCTGACCAAGTTGTCGCGATCGCCAGCAACGGTGGTGGCAAACAGGCGCTGGAAACGGTTCAGCGTTTACTGCCGGTTTTATGCCAAGACCATGGCCTTACACCGGACCAAGTTGTTGCCATCGCGTCAAACAATGGCGGGAAACAGGCTCTCGAAACAGTACAGCGTCTGCTGCCGGTATTATGTCAGGATCACGGGCTGACTCCTGACCAGGTGGTTGCGATTGCGAGCAACGGTGGTGGCAAGCAGGCGCTGGAGACAGTTCAGCGTCTGCTGCCGGTGCTGTGTCAGGACCACGGT'
p29
aS'CTGACGCCGGATCAGGTCGTGGCAATCGCGAGCCACGATGGCGGCAAACAGGCCTTAGAGACTGTGCAGCGTTTACTGCCGGTTCTGTGTCAGGATCACGGGTTAACCCCGGACCAGGTGGTAGCTATTGCATCGCACGATGGTGGTAAACAAGCGCTGGAAACGGTCCAGCGTCTGTTACCAGTACTCTGCCAAGATCATGGCCTGACCCCGGATCAGGTCGTGGCCATTGCGTCTAACGGTGGGGGCAAACAGGCCTTAGAAACTGTGCAGCGTTTACTGCCGGTGTTATGCCAGGATCATGGTCTGACCCCGGATCAGGTTGTCGCGATTGCTAGTCACGATGGTGGCAAACAGGCACTGGAAACCGTCCAACGCCTGCTGCCGGTTCTGTGTCAAGACCACGGTCTGACCCCGGATCAGGTCGTGGCCATCGCTTCTAACATTGGCGGTAAACAGGCATTAGAAACGGTCCAGCGTCTGCTGCCTGTCCTTTGCCAGGACCATGGTCTGACACCAGATCAAGTAGTCGCGATCGCGTCAAACGGTGGCGGTAAGCAAGCTCTTGAAACCGTACAGCGTCTGTTACCAGTTTTATGCCAAGATCACGGCCTCACTCCAGATCAGGTAGTTGCGATTGCCAGCCACGATGGTGGGAAGCAGGCGTTAGAAACCGTTCAACGCTTACTTCCGGTGTTATGTCAGGATCATGGCCTGACCCCGGACCAGGTAGTAGCAATCGCATCGAACATTGGCGGCAAACAAGCGCTGGAAACAGTACAGCGCCTGCTCCCGGTGCTGTGCCAGGACCATGGCCTGACGCCGGATCAGGTTGTGGCAATCGCAAGCAACAATGGTGGTAAGCAAGCCTTAGAAACAGTGCAGCGCCTCTTACCAGTGCTGTGCCAGGATCACGGCTTAACACCGGATCAAGTCGTGGCGATCGCAAGCAACAATGGCGGGAAACAGGCGCTGGAGACCGTGCAGCGCCTGTTACCTGTTCTGTGTCAGGATCATGGTTTAACCCCGGATCAGGTGGTTGCTATTGCCTCGAACATTGGCGGTAAACAGGCACTGGAAACAGTTCAGCGCCTTTTACCAGTCCTGTGCCAGGACCATGGTTTAACTCCTGACCAGGTGGTGGCCATTGCTTCTAACATTGGGGGCAAGCAGGCCCTGGAGACCGTGCAACGCTTACTGCCGGTGTTATGCCAAGACCACGGTTTAACCCCGGATCAGGTGGTAGCGATTGCCTCGCACGATGGTGGTAAACAAGCTCTGGAAACCGTGCAACGTTTACTGCCGGTACTGTGTCAGGATCATGGCCTGACCCCAGATCAAGTAGTTGCTATTGCGAGCAACATTGGCGGTAAACAGGCATTAGAGACCGTTCAGCGCCTGTTACCTGTCCTGTGCCAGGATCACGGTTTAACACCTGACCAAGTTGTCGCGATCGCCAGCAACGGTGGTGGCAAACAGGCGCTGGAAACGGTTCAGCGTTTACTGCCGGTTTTATGCCAAGACCATGGCCTTACACCTGACCAAGTTGTTGCCATCGCGTCAAACAATGGCGGGAAACAGGCTCTCGAAACAGTACAGCGTCTGCTGCCGGTATTATGTCAGGATCACGGGCTGACTCCTGACCAGGTGGTTGCGATTGCGAGCAACGGTGGTGGCAAGCAGGCGCTGGAGACAGTTCAGCGTCTGCTGCCGGTGCTGTGTCAGGACCACGGT'
p30
aS'CTGACGCCGGATCAGGTCGTGGCAATCGCGAGCCACGATGGCGGCAAACAGGCCTTAGAGACTGTGCAGCGTTTACTGCCGGTTCTGTGTCAGGATCATGGGTTAACCCCGGACCAGGTGGTAGCTATTGCAAGTCACGATGGTGGTAAACAAGCGCTGGAAACGGTCCAGCGTCTGTTACCAGTACTCTGCCAAGATCATGGCCTGACCCCGGATCAAGTTGTGGCCATTGCGTCTAACGGTGGGGGCAAACAGGCCTTAGAGACTGTGCAGCGTTTACTGCCGGTGTTATGCCAGGATCATGGTCTGACCCCGGATCAGGTTGTCGCGATTGCTTCACACGATGGTGGCAAACAGGCACTGGAAACCGTCCAACGCCTGCTGCCGGTTCTGTGCCAAGACCACGGTCTGACGCCGGATCAGGTCGTGGCAATCGCTTCGAACATTGGGGGTAAACAGGCATTAGAAACGGTCCAGCGTCTGCTGCCGGTCCTTTGCCAGGACCACGGTCTGACTCCAGATCAGGTAGTCGCGATCGCGTCTAACGGTGGCGGTAAGCAAGCTCTGGAAACCGTACAGCGTCTGTTACCAGTGTTATGCCAAGATCACGGCCTCACTCCAGATCAGGTAGTTGCGATCGCCAGCCACGATGGTGGGAAGCAGGCGTTAGAAACCGTTCAACGCTTACTTCCGGTGTTATGTCAGGATCATGGCCTGACCCCGGACCAGGTGGTAGCAATCGCATCGAACATTGGCGGCAAACAGGCGCTGGAAACAGTACAACGCCTGCTCCCGGTGCTGTGCCAGGACCATGGCCTGACGCCGGATCAGGTTGTGGCAATCGCAAGCAACAATGGTGGTAAACAAGCCTTAGAAACAGTGCAGCGCCTCTTACCAGTGCTGTGCCAGGATCACGGCTTAACACCGGATCAAGTCGTGGCCATCGCAAGCAACAATGGCGGTAAACAAGCGCTGGAGACCGTGCAGCGCCTGTTACCTGTTCTGTGTCAGGATCATGGTTTAACCCCGGATCAGGTGGTTGCTATTGCCTCTAACATTGGCGGTAAACAGGCCCTGGAAACAGTTCAGCGCCTTTTACCAGTCCTGTGCCAGGACCATGGTTTAACTCCTGACCAGGTGGTGGCCATTGCTTCTAACATTGGGGGCAAGCAGGCCCTGGAGACCGTGCAACGCTTACTGCCAGTGTTATGCCAAGACCACGGTTTAACCCCGGATCAGGTGGTAGCGATTGCCTCGCACGATGGTGGTAAACAAGCTCTGGAAACCGTGCAACGTTTACTGCCGGTACTGTGTCAGGATCATGGCCTGACCCCAGATCAAGTAGTTGCTATTGCGAGCAACATTGGCGGTAAACAGGCATTAGAGACCGTGCAGCGCCTGTTACCTGTCCTGTGCCAGGATCACGGTTTAACACCTGACCAAGTGGTCGCGATCGCCAGCAACGGTGGTGGCAAACAGGCGCTGGAAACGGTTCAGCGTTTACTGCCGGTTTTATGCCAAGACCATGGCCTTACACCGGACCAAGTCGTTGCCATCGCGTCAAACAATGGCGGGAAACAGGCTCTCGAAACAGTACAGCGCCTGCTGCCGGTATTATGTCAGGATCACGGCCTGACTCCTGACCAGGTGGTTGCGATTGCGAGCAACGGTGGTGGCAAGCAGGCGCTGGAAACTGTTCAACGTCTGCTGCCGGTGCTGTGTCAGGACCACGGT'
p31
aS'CTGACGCCGGATCAGGTCGTGGCAATCGCGAGCCACGATGGCGGCAAACAGGCCTTAGAGACTGTGCAACGTTTACTGCCAGTTCTGTGTCAGGACCATGGGTTAACCCCGGACCAGGTGGTAGCGATTGCAAGTCACGATGGTGGTAAACAAGCGCTGGAAACGGTCCAGCGTCTGTTACCAGTACTCTGCCAAGATCATGGCCTGACCCCGGATCAAGTTGTGGCCATTGCGTCTAACGGTGGGGGCAAACAGGCCTTAGAAACTGTGCAGCGTTTACTGCCGGTGTTATGCCAGGATCATGGTCTGACCCCGGATCAGGTAGTCGCGATTGCTTCACACGATGGTGGCAAACAGGCACTGGAAACCGTCCAACGCCTGCTGCCGGTTCTGTGTCAAGACCACGGTCTGACGCCGGATCAGGTCGTGGCCATCGCTTCGAACATTGGCGGTAAACAGGCATTAGAAACAGTCCAGCGTCTGCTGCCGGTCCTTTGCCAGGACCACGGTCTGACACCAGATCAGGTAGTCGCGATCGCGTCTAACGGTGGCGGTAAACAAGCTCTGGAAACCGTACAGCGTCTGTTACCAGTTTTATGCCAAGATCACGGCCTCACTCCAGATCAGGTTGTTGCGATTGCCAGCCACGATGGTGGGAAGCAGGCGTTAGAAACCGTTCAACGCTTACTTCCGGTGTTATGTCAGGATCACGGCCTGACCCCAGACCAGGTGGTAGCAATCGCATCGAACATTGGCGGCAAACAAGCGCTGGAGACAGTACAGCGCCTGCTCCCGGTGCTGTGCCAGGACCATGGCCTGACGCCGGATCAGGTTGTGGCAATCGCAAGCAACAATGGTGGTAAGCAAGCCTTAGAAACAGTGCAGCGCCTCTTACCAGTGCTGTGCCAGGATCACGGCTTAACACCGGATCAAGTCGTGGCCATCGCAAGCAACAATGGCGGGAAACAGGCGCTGGAGACCGTGCAGCGCCTGTTACCTGTTCTGTGTCAGGATCATGGTTTAACCCCGGATCAGGTGGTTGCTATTGCCTCGAACATTGGCGGTAAACAGGCACTGGAAACAGTTCAGCGCCTTTTACCAGTCCTGTGCCAGGACCATGGTTTAACTCCTGACCAGGTGGTGGCCATTGCTTCTAACATTGGGGGCAAGCAGGCCCTGGAGACCGTGCAACGCTTACTGCCGGTGTTATGCCAAGACCACGGTTTAACCCCGGATCAGGTGGTAGCGATTGCCTCGCACGATGGTGGTAAACAAGCTCTGGAAACCGTGCAACGTTTACTGCCGGTACTGTGTCAGGATCATGGCCTGACCCCAGACCAAGTAGTTGCTATTGCGAGCAACATTGGCGGTAAACAGGCATTAGAGACCGTTCAGCGCCTGTTACCTGTCCTGTGCCAGGATCACGGTTTAACACCTGACCAAGTTGTCGCGATCGCCAGCAACGGTGGTGGCAAACAGGCGCTGGAAACGGTTCAGCGTTTACTGCCGGTTTTATGCCAAGACCATGGCCTTACACCGGACCAAGTTGTTGCCATCGCGTCAAACAATGGCGGGAAACAGGCTCTCGAAACAGTCCAGCGTCTGCTGCCGGTATTATGTCAGGATCACGGGCTGACTCCTGACCAGGTGGTTGCGATTGCCAGCAACGGTGGTGGCAAGCAGGCGCTGGAGACAGTTCAGCGTCTGCTGCCGGTGCTGTGTCAGGACCACGGT'
p32
aS'CTGACGCCGGATCAGGTCGTGGCAATCGCGAGCCACGATGGCGGCAAACAGGCCTTAGAAACTGTGCAGCGTTTACTGCCGGTTCTGTGTCAGGATCATGGGTTAACCCCGGACCAGGTGGTAGCTATTGCAAGTCACGATGGTGGTAAACAAGCGCTGGAAACGGTCCAGCGTCTGTTACCAGTCCTCTGCCAAGATCATGGCCTGACCCCGGATCAGGTTGTGGCCATTGCGAGCAACGGTGGGGGCAAACAGGCCTTAGAAACTGTGCAGCGTTTACTGCCGGTGTTATGCCAGGATCATGGTCTGACCCCGGATCAGGTTGTCGCGATTGCTTCACACGATGGGGGCAAACAGGCACTGGAAACCGTCCAACGCCTGCTGCCGGTTCTGTGTCAAGACCACGGTCTGACGCCGGATCAGGTCGTGGCCATCGCTTCGAACATTGGCGGTAAACAGGCATTAGAGACGGTCCAGCGTCTGCTGCCGGTCCTTTGCCAGGACCACGGGCTGACACCAGATCAGGTAGTCGCGATCGCGTCTAACGGTGGCGGTAAACAAGCTCTGGAAACAGTACAGCGTCTGTTACCAGTTTTATGCCAAGATCACGGCCTCACTCCAGATCAAGTAGTTGCGATCGCCAGCCACGATGGTGGGAAGCAGGCGTTAGAAACCGTTCAACGCTTACTTCCGGTGTTATGTCAGGATCATGGCCTGACCCCAGACCAGGTCGTAGCAATCGCATCGAACATTGGCGGCAAACAGGCGCTGGAAACAGTACAACGCCTGCTCCCGGTGCTGTGCCAGGACCATGGCCTGACGCCGGATCAGGTTGTGGCAATCGCAAGCAACAATGGTGGTAAACAAGCCTTAGAAACAGTGCAGCGCCTCTTACCAGTGCTGTGCCAGGATCACGGCTTAACACCGGATCAAGTGGTGGCCATCGCAAGTAACAATGGCGGGAAACAGGCGCTGGAGACCGTGCAGCGCCTGTTACCTGTTCTGTGTCAGGATCATGGTTTAACCCCGGATCAGGTGGTTGCTATTGCCTCTAACATTGGCGGTAAACAGGCACTGGAAACAGTTCAGCGCCTTTTACCAGTCCTGTGCCAGGACCATGGTTTAACTCCTGACCAGGTGGTGGCCATTGCTTCTAACATTGGGGGCAAGCAGGCCCTGGAGACCGTGCAACGCTTACTGCCGGTGTTATGCCAGGACCACGGTTTAACCCCGGATCAGGTGGTAGCGATTGCCTCGCACGATGGTGGTAAACAAGCTCTGGAAACCGTGCAACGTTTACTGCCGGTACTGTGTCAGGATCATGGCCTGACCCCAGATCAAGTAGTTGCTATTGCGAGCAACATTGGCGGTAAGCAGGCATTAGAGACCGTTCAGCGCCTGTTACCTGTCTTATGCCAGGATCACGGTTTAACACCTGACCAGGTTGTCGCGATCGCCAGCAACGGTGGTGGCAAACAGGCGCTGGAAACTGTTCAGCGTTTACTGCCGGTTTTATGCCAAGACCATGGCCTTACACCGGACCAAGTTGTTGCCATCGCGTCAAACAATGGCGGGAAACAGGCTCTCGAAACAGTACAGCGTCTGCTGCCGGTATTATGTCAGGATCACGGGCTCACTCCTGACCAGGTGGTTGCGATTGCGAGCAACGGTGGTGGCAAGCAGGCGCTGGAGACAGTTCAGCGTCTGCTGCCGGTGCTGTGTCAGGACCACGGT'
p33
aS'CTGACGCCGGATCAGGTCGTGGCAATCGCGAGCCACGATGGCGGCAAACAGGCCTTAGAAACTGTGCAGCGTTTACTGCCGGTTCTGTGTCAGGATCATGGGTTAACCCCGGACCAGGTGGTAGCTATTGCAAGTCACGATGGTGGTAAACAAGCGCTGGAAACGGTCCAGCGTCTGTTACCAGTGCTCTGCCAAGATCATGGCCTGACCCCGGATCAGGTTGTGGCCATTGCGTCTAACGGTGGGGGCAAACAGGCCTTAGAAACTGTGCAGCGTTTACTGCCGGTGTTATGCCAGGATCATGGTCTGACCCCGGATCAGGTTGTCGCGATTGCTTCACACGATGGTGGCAAACAGGCACTGGAAACCGTCCAACGCCTGCTGCCGGTTCTGTGTCAAGACCACGGTCTGACGCCGGATCAGGTCGTGGCCATCGCTTCGAACATTGGCGGGAAACAGGCATTAGAAACGGTCCAGCGTCTGCTGCCTGTCCTTTGCCAGGACCACGGTCTGACACCAGATCAAGTAGTCGCGATCGCGTCAAACGGTGGCGGTAAACAAGCTCTGGAAACAGTACAGCGTCTGTTACCAGTTTTATGCCAAGATCACGGCCTCACTCCAGATCAGGTAGTTGCGATCGCCAGCCACGATGGTGGTAAGCAGGCGTTAGAAACCGTTCAACGCTTACTTCCGGTGTTATGTCAGGATCACGGGCTGACCCCAGACCAGGTGGTAGCAATCGCATCGAACATTGGCGGCAAACAGGCGCTGGAAACAGTACAACGCCTGCTCCCGGTGCTGTGCCAGGACCATGGCCTGACGCCGGATCAGGTTGTGGCAATCGCAAGCAACAATGGTGGTAAGCAAGCCTTAGAAACAGTGCAGCGCCTCTTACCAGTGCTGTGCCAGGATCACGGCTTAACACCGGATCAAGTCGTGGCCATCGCAAGCAACAATGGCGGTAAACAAGCGCTGGAGACCGTGCAGCGCCTGTTACCTGTTCTGTGTCAGGATCATGGGTTAACCCCGGATCAGGTGGTTGCTATTGCCTCTAACATTGGCGGTAAACAGGCACTGGAAACAGTTCAGCGCCTTTTACCAGTCCTGTGCCAAGACCATGGTTTAACTCCTGACCAGGTGGTGGCCATTGCTTCTAACATTGGGGGCAAGCAGGCCCTGGAGACCGTGCAACGCTTACTGCCGGTGTTATGCCAAGACCATGGTTTAACACCGGATCAGGTGGTAGCGATTGCCTCGCACGATGGTGGTAAACAAGCTCTGGAAACCGTGCAACGTTTACTGCCGGTACTGTGTCAGGATCATGGCCTGACCCCAGATCAAGTAGTTGCTATTGCGTCCAACATTGGCGGTAAACAGGCGTTAGAGACCGTACAGCGCCTGTTACCTGTCCTGTGCCAGGATCACGGTTTAACTCCTGACCAAGTTGTCGCGATCGCCAGCAACGGTGGTGGCAAACAGGCGCTGGAAACGGTTCAGCGTTTACTGCCGGTTTTATGCCAGGATCATGGCCTTACACCGGACCAAGTTGTTGCCATCGCGTCAAACAATGGCGGGAAACAGGCTCTTGAAACAGTACAGCGTCTGCTGCCGGTATTATGTCAGGATCACGGGCTGACTCCTGACCAGGTGGTTGCGATTGCGAGCAACGGTGGTGGCAAACAGGCGCTGGAGACTGTTCAGCGTCTGCTGCCGGTGCTGTGTCAGGACCACGGT'
p34
aS'CTGACGCCGGATCAGGTCGTGGCAATCGCGAGCCACGATGGCGGCAAACAGGCCTTAGAGACAGTGCAGCGTTTACTGCCGGTTCTGTGTCAGGATCATGGGTTAACCCCGGACCAGGTGGTAGCTATTGCAAGTCACGATGGTGGTAAACAAGCGCTGGAAACGGTCCAGCGTCTGTTACCAGTCCTCTGCCAAGATCATGGCCTGACCCCGGATCAGGTTGTGGCCATTGCGAGCAACGGTGGGGGCAAACAGGCCTTAGAAACTGTGCAGCGTTTACTGCCGGTGTTATGCCAGGATCATGGTCTGACCCCGGATCAGGTTGTCGCGATTGCTTCACACGATGGGGGCAAACAGGCACTGGAAACCGTCCAACGCCTGCTGCCGGTTCTGTGTCAAGACCACGGTCTGACGCCGGATCAGGTCGTGGCCATCGCTTCGAACATTGGCGGTAAACAGGCATTAGAGACGGTCCAGCGTCTGCTGCCGGTCCTTTGCCAGGACCACGGGCTGACACCAGATCAGGTAGTCGCGATCGCGTCTAACGGTGGCGGTAAACAAGCTCTGGAAACCGTACAGCGTCTGTTACCAGTTTTATGCCAAGACCACGGCCTCACTCCAGATCAGGTAGTTGCGATCGCCAGCCACGATGGTGGGAAACAGGCGTTAGAAACCGTTCAACGCTTACTTCCGGTGTTATGTCAGGATCATGGCCTGACCCCGGACCAGGTGGTAGCAATCGCATCGAACATTGGCGGCAAACAAGCGCTGGAAACAGTACAGCGCCTGCTCCCGGTGCTGTGCCAGGACCATGGCCTGACGCCGGATCAGGTCGTGGCAATCGCAAGCAACAATGGTGGTAAACAAGCCTTAGAAACAGTGCAGCGCCTCTTACCAGTGCTGTGCCAGGATCACGGCTTAACACCGGATCAAGTCGTGGCCATCGCAAGCAACAATGGCGGTAAGCAGGCGCTGGAAACCGTGCAGCGCCTGTTACCTGTTCTGTGTCAGGATCATGGTTTAACCCCGGATCAGGTGGTTGCTATTGCCTCTAACATTGGCGGTAAACAGGCACTGGAAACAGTTCAGCGCCTTTTACCAGTCCTGTGCCAGGACCATGGTTTAACTCCTGACCAGGTGGTGGCCATTGCTTCTAACATTGGGGGCAAGCAGGCCCTGGAGACCGTGCAACGCTTACTGCCGGTGTTATGCCAAGACCACGGTTTAACCCCGGATCAGGTGGTAGCGATTGCCTCGCACGATGGTGGTAAACAGGCTCTGGAAACCGTCCAACGTTTACTGCCGGTACTGTGTCAGGATCATGGCCTGACCCCAGATCAAGTAGTTGCTATTGCGAGCAACATTGGCGGTAAACAGGCATTAGAGACCGTTCAGCGCCTGTTACCTGTCCTGTGTCAGGATCACGGTTTAACACCTGACCAAGTTGTCGCGATCGCCAGCAACGGTGGTGGCAAACAGGCGCTGGAAACGGTTCAGCGTTTACTGCCGGTTTTATGCCAAGACCATGGCCTTACACCGGACCAAGTTGTTGCCATCGCGTCAAACAATGGCGGGAAACAGGCTCTCGAAACAGTACAGCGTCTGCTGCCGGTATTATGTCAGGATCACGGGCTGACTCCTGACCAGGTGGTTGCGATTGCGAGCAACGGTGGTGGCAAGCAGGCGCTGGAGACTGTTCAGCGTCTGCTGCCGGTGCTGTGTCAGGATCACGGT'
p35
aS'CTGACGCCGGATCAGGTCGTGGCAATCGCGAGCCACGATGGCGGCAAACAGGCCTTAGAGACTGTGCAGCGTTTACTGCCAGTTCTGTGTCAAGATCATGGGTTAACCCCGGACCAGGTGGTAGCTATTGCAAGTCACGATGGTGGTAAACAAGCGCTGGAAACGGTCCAGCGTCTGTTACCAGTACTCTGCCAAGATCATGGCCTGACCCCGGATCAAGTTGTGGCCATTGCGTCTAACGGTGGGGGCAAACAGGCCTTAGAAACTGTCCAGCGTTTACTGCCGGTGTTATGCCAGGATCATGGTCTGACCCCGGATCAGGTTGTCGCGATTGCTTCACACGATGGTGGCAAACAGGCACTGGAAACCGTCCAACGCCTGCTGCCGGTTCTGTGTCAAGACCACGGTCTGACGCCGGATCAGGTCGTGGCCATCGCTTCGAACATTGGCGGTAAGCAGGCATTAGAAACGGTCCAGCGTCTGCTGCCGGTCCTTTGCCAGGACCACGGTCTGACACCAGATCAAGTGGTCGCGATCGCGTCTAACGGTGGCGGTAAACAAGCTCTGGAAACCGTACAGCGTCTGTTACCAGTTTTATGCCAAGATCACGGCCTCACTCCAGATCAGGTAGTTGCGATCGCCAGCCACGATGGTGGGAAGCAGGCGTTAGAAACCGTTCAACGCTTACTTCCGGTGTTATGTCAGGATCATGGCCTGACCCCAGACCAGGTCGTAGCAATCGCATCGAACATTGGCGGCAAACAGGCGCTGGAAACAGTACAACGCCTGCTCCCGGTGCTGTGCCAGGACCATGGCCTGACGCCGGATCAGGTTGTGGCAATCGCAAGCAACAATGGTGGTAAGCAAGCCTTAGAAACAGTGCAGCGCCTCTTACCAGTGCTGTGCCAGGATCACGGCTTAACACCGGATCAAGTTGTGGCCATTGCAAGCAACAATGGTGGGAAACAGGCGCTGGAGACCGTGCAGCGCCTGTTACCTGTTCTGTGTCAGGATCATGGTTTAACCCCGGATCAGGTGGTTGCTATTGCCTCTAACATTGGCGGTAAACAGGCACTGGAAACAGTTCAGCGCCTTTTACCAGTCCTGTGCCAGGACCATGGTTTAACTCCTGACCAGGTGGTGGCCATTGCTTCTAACATTGGGGGCAAGCAGGCCCTGGAGACCGTGCAACGCTTACTGCCGGTGTTATGCCAAGACCACGGTTTAACCCCGGATCAGGTGGTAGCGATTGCCTCGCACGATGGTGGTAAACAAGCTCTGGAAACCGTGCAACGTTTACTGCCGGTACTGTGTCAGGATCATGGCCTGACCCCAGATCAAGTAGTTGCTATTGCGAGCAACATTGGCGGTAAACAGGCATTAGAGACCGTTCAGCGCCTGTTACCTGTCCTGTGCCAGGATCACGGTTTAACACCTGACCAAGTTGTCGCGATCGCCAGCAACGGTGGTGGCAAACAGGCGCTGGAAACGGTTCAGCGTTTACTGCCGGTTTTATGCCAGGATCATGGCCTTACACCGGACCAAGTTGTTGCCATCGCGTCAAACAATGGCGGGAAACAGGCTCTTGAAACAGTACAGCGTCTGCTGCCGGTATTATGTCAGGATCACGGGCTGACTCCTGACCAGGTGGTTGCGATTGCGAGCAACGGTGGTGGCAAACAGGCGCTGGAGACAGTTCAGCGTCTGCTGCCGGTGCTGTGTCAGGACCACGGT'
p36
aS'CTGACGCCGGATCAGGTCGTGGCAATCGCGAGCCACGATGGCGGCAAACAGGCCTTAGAAACTGTGCAGCGTTTACTGCCGGTTCTGTGTCAGGATCATGGGTTAACCCCGGACCAGGTGGTAGCTATTGCAAGTCACGATGGTGGTAAACAAGCGCTGGAAACGGTCCAGCGTCTGTTACCAGTACTCTGCCAAGATCATGGCCTGACCCCGGATCAAGTTGTGGCCATTGCGTCTAACGGTGGGGGCAAACAGGCCTTAGAAACTGTGCAGCGTTTACTGCCTGTGTTATGCCAGGATCATGGTCTGACCCCGGATCAGGTTGTCGCGATTGCTTCACACGATGGGGGCAAACAGGCACTGGAGACCGTCCAACGCCTGCTGCCGGTTCTGTGTCAAGACCACGGTCTGACGCCGGATCAGGTCGTGGCCATCGCTTCGAACATTGGCGGTAAACAGGCATTAGAGACGGTACAGCGTCTGCTGCCGGTCCTTTGCCAGGACCACGGGCTGACACCAGATCAGGTAGTCGCGATCGCGTCTAACGGTGGCGGCAAACAAGCTCTGGAAACAGTACAGCGTCTGTTACCAGTTTTATGCCAAGATCACGGCCTCACTCCAGATCAGGTAGTTGCGATCGCCAGCCACGATGGTGGGAAGCAGGCGTTAGAAACCGTTCAGCGCTTACTTCCGGTGTTATGTCAGGATCATGGCCTGACCCCGGACCAGGTCGTAGCAATCGCATCGAACATTGGCGGCAAACAGGCGCTGGAAACAGTACAACGCCTGCTCCCGGTGCTGTGCCAGGACCATGGCCTGACACCGGATCAGGTTGTCGCAATCGCAAGCAACAATGGTGGTAAACAGGCCTTAGAAACAGTGCAGCGCCTCTTACCAGTGCTGTGCCAGGATCACGGCTTAACACCGGATCAAGTCGTGGCCATCGCAAGCAACAATGGCGGTAAACAAGCGCTGGAGACCGTGCAGCGCCTGTTACCTGTTCTGTGTCAGGATCATGGTTTAACCCCGGATCAGGTGGTTGCTATTGCCTCTAACATTGGCGGTAAACAGGCACTGGAAACAGTCCAACGCCTTTTACCAGTCCTGTGCCAGGACCATGGTTTAACTCCTGACCAGGTGGTGGCCATTGCTTCTAACATTGGGGGCAAGCAGGCCCTGGAAACCGTGCAACGCTTACTGCCGGTGTTATGCCAGGACCACGGTTTAACCCCGGATCAGGTGGTAGCGATTGCCTCGCACGATGGTGGTAAACAAGCACTGGAAACCGTGCAACGTTTACTGCCGGTACTGTGTCAGGATCATGGCCTGACCCCAGATCAAGTAGTTGCTATTGCGAGCAACATTGGCGGTAAACAGGCATTAGAGACCGTTCAGCGCCTGTTACCTGTCCTGTGCCAGGATCACGGTTTAACACCTGACCAAGTTGTCGCGATCGCCAGCAACGGTGGTGGCAAACAGGCGCTGGAAACGGTTCAGCGTTTACTGCCGGTTTTATGCCAAGACCATGGCCTTACACCGGACCAAGTTGTTGCCATCGCGTCAAACAATGGCGGGAAACAGGCTCTTGAAACAGTACAGCGTCTGCTGCCGGTATTATGTCAGGATCACGGGCTGACTCCTGACCAGGTGGTTGCGATTGCGAGCAACGGTGGTGGCAAGCAGGCGCTGGAGACTGTTCAGCGTCTGCTGCCGGTGCTGTGTCAGGACCACGGT'
p37
aS'CTGACGCCGGATCAGGTCGTGGCAATCGCGAGCCACGATGGCGGCAAACAGGCCTTAGAGACTGTGCAGCGTTTACTGCCGGTTCTGTGTCAGGATCATGGGTTAACCCCGGACCAGGTGGTAGCTATTGCAAGTCACGATGGTGGTAAACAAGCGCTGGAAACGGTCCAGCGTCTGTTACCAGTACTCTGCCAAGATCATGGCCTGACCCCGGATCAAGTCGTGGCTATTGCGTCTAACGGTGGGGGCAAACAGGCCTTAGAAACTGTGCAGCGTTTACTGCCGGTGTTATGCCAGGATCATGGTCTGACCCCGGATCAGGTTGTCGCGATTGCTTCACACGATGGGGGCAAACAGGCACTGGAAACCGTCCAACGCCTGCTGCCGGTTCTGTGTCAAGACCACGGTCTGACGCCGGATCAGGTCGTGGCCATCGCTTCGAACATTGGCGGTAAACAGGCGTTAGAGACGGTCCAGCGTCTGCTGCCGGTCCTTTGCCAGGACCACGGGCTGACACCAGATCAGGTAGTCGCGATCGCGTCTAACGGTGGCGGTAAACAAGCTCTGGAAACCGTACAGCGTCTGTTACCAGTTTTATGCCAAGACCACGGCCTCACTCCAGATCAGGTAGTTGCGATCGCCAGCCACGATGGTGGGAAACAGGCGTTAGAAACCGTTCAACGCTTACTTCCGGTGTTATGTCAGGATCATGGCCTGACCCCGGACCAGGTGGTAGCAATCGCATCGAACATTGGCGGCAAACAAGCGCTGGAAACAGTACAGCGCCTGCTCCCGGTGCTGTGCCAGGACCATGGCCTGACGCCGGATCAGGTTGTGGCAATCGCATCTAACAATGGTGGTAAGCAAGCCTTAGAAACAGTGCAGCGCCTCTTACCAGTGCTGTGCCAGGATCACGGCTTAACACCGGATCAAGTCGTCGCCATCGCAAGCAACAATGGCGGTAAACAGGCGCTGGAGACCGTGCAGCGCCTGTTACCTGTTCTGTGTCAGGATCATGGTTTAACCCCGGATCAGGTGGTTGCTATTGCCTCTAACATTGGCGGTAAACAGGCACTGGAAACAGTTCAGCGCCTTTTACCAGTCCTGTGCCAGGACCATGGTTTAACTCCTGACCAGGTGGTGGCCATTGCTTCTAACATTGGGGGCAAGCAGGCCCTGGAAACCGTGCAACGCTTACTGCCGGTGTTATGCCAAGACCACGGTTTAACCCCGGATCAGGTGGTAGCGATTGCCTCGCACGATGGTGGTAAACAAGCTCTGGAAACCGTGCAACGTTTACTGCCGGTACTGTGTCAGGATCATGGCCTGACCCCAGACCAAGTAGTTGCTATTGCGAGCAACATTGGCGGTAAACAGGCATTAGAGACCGTTCAGCGCCTGTTACCTGTCCTGTGCCAGGATCACGGTTTAACACCTGACCAAGTTGTCGCGATCGCCAGCAACGGTGGTGGCAAACAGGCGCTGGAAACGGTTCAGCGTTTACTGCCGGTTTTATGCCAAGACCATGGCCTTACACCGGACCAAGTTGTTGCCATCGCGTCAAACAATGGCGGGAAACAGGCTCTTGAAACAGTACAGCGTCTGCTGCCGGTACTCTGTCAGGATCACGGGCTGACTCCTGACCAGGTGGTTGCGATTGCGAGCAACGGTGGTGGCAAGCAGGCGCTGGAGACTGTTCAGCGTCTGCTGCCGGTGCTGTGTCAGGATCACGGT'
p38
aS'CTGACGCCGGATCAGGTCGTGGCAATCGCGAGCCACGATGGCGGCAAACAGGCCTTAGAAACTGTGCAGCGTTTACTGCCGGTCCTGTGTCAGGATCATGGGTTAACCCCGGACCAGGTGGTAGCTATTGCAAGTCACGATGGTGGTAAACAAGCGCTGGAAACGGTCCAGCGTCTGTTACCAGTACTCTGCCAAGATCATGGCCTGACCCCGGATCAAGTCGTGGCCATTGCGTCTAACGGTGGGGGCAAACAGGCCTTAGAAACTGTCCAACGTTTACTGCCGGTGTTATGCCAGGATCATGGTCTGACCCCGGATCAGGTTGTCGCGATTGCTTCACACGATGGTGGCAAACAGGCACTGGAAACCGTCCAACGCCTGCTGCCGGTTCTGTGTCAAGACCACGGTCTGACGCCGGATCAGGTCGTGGCCATCGCTTCGAACATTGGCGGTAAACAGGCATTAGAAACGGTCCAGCGTCTGCTGCCAGTCCTTTGCCAGGACCACGGTCTGACACCAGATCAGGTAGTCGCGATCGCGTCTAACGGTGGCGGTAAACAAGCTCTGGAGACCGTACAGCGTCTGTTACCAGTTTTATGCCAAGATCACGGCCTCACTCCAGATCAGGTTGTTGCGATTGCCAGCCACGATGGTGGGAAGCAGGCGTTAGAAACCGTTCAACGCTTACTTCCGGTGTTATGTCAGGATCACGGCCTGACCCCAGACCAGGTGGTAGCAATCGCATCGAACATTGGCGGCAAACAAGCGCTGGAAACAGTACAGCGCCTGCTCCCGGTGCTGTGCCAGGACCATGGCCTGACGCCGGATCAGGTTGTGGCAATCGCAAGCAACAATGGTGGTAAACAAGCCTTAGAAACAGTGCAGCGCCTCTTACCAGTGCTGTGCCAGGATCACGGCTTAACACCGGATCAAGTCGTGGCCATTGCAAGCAACAATGGCGGTAAGCAGGCGCTGGAGACCGTGCAGCGCCTGTTACCTGTTCTGTGTCAGGATCATGGTTTAACCCCGGATCAGGTGGTTGCTATTGCCTCTAACATTGGCGGTAAACAGGCGCTGGAAACAGTTCAGCGCCTTTTACCTGTCCTGTGCCAAGACCATGGTTTAACTCCTGACCAGGTGGTGGCCATTGCTTCTAACATTGGGGGCAAGCAGGCCCTGGAGACCGTGCAACGCTTACTGCCGGTGTTATGCCAAGACCACGGTTTAACCCCGGATCAGGTGGTAGCGATTGCCTCGCACGATGGTGGTAAACAAGCTCTGGAAACCGTGCAACGTTTACTGCCGGTACTGTGTCAGGATCATGGCCTGACCCCAGATCAAGTAGTTGCTATTGCGAGCAACATTGGCGGTAAACAGGCATTAGAGACCGTTCAGCGCCTGTTACCTGTCCTGTGCCAGGATCACGGTTTAACACCTGACCAAGTTGTCGCGATCGCCAGCAACGGTGGTGGCAAACAGGCGCTGGAAACCGTTCAACGTTTACTGCCGGTTTTATGCCAAGACCATGGCCTTACACCGGACCAAGTTGTTGCCATCGCGTCAAACAATGGCGGGAAACAGGCTCTTGAAACAGTACAGCGTCTGCTGCCGGTACTCTGTCAGGATCACGGGCTGACTCCTGACCAGGTAGTTGCGATTGCGAGCAACGGTGGTGGCAAGCAGGCGCTGGAAACAGTTCAGCGTCTGCTGCCGGTGCTGTGTCAGGACCACGGT'
p39
aS'CTGACGCCGGATCAGGTCGTGGCAATCGCGAGCCACGATGGCGGCAAACAGGCCTTAGAGACTGTGCAGCGTTTACTGCCAGTTCTGTGTCAAGATCACGGGTTAACCCCGGACCAGGTCGTAGCTATTGCAAGTCACGATGGTGGTAAACAAGCGCTGGAAACGGTCCAGCGTCTGTTACCAGTACTCTGCCAAGATCATGGCCTGACCCCGGATCAAGTTGTGGCCATTGCGTCTAACGGTGGGGGCAAACAGGCCTTAGAAACTGTCCAGCGTTTACTGCCGGTGTTATGCCAGGATCATGGTCTGACCCCGGATCAGGTTGTCGCGATTGCTTCACACGATGGTGGCAAACAGGCACTGGAAACCGTCCAACGCCTGCTGCCGGTTCTGTGTCAAGACCACGGTCTGACGCCGGATCAGGTCGTGGCCATCGCTTCGAACATTGGCGGTAAGCAGGCATTAGAAACGGTCCAGCGTCTGCTGCCGGTCCTTTGCCAGGACCACGGTCTGACACCAGATCAGGTGGTCGCGATCGCGTCTAACGGTGGCGGGAAACAAGCTCTGGAAACAGTACAGCGTCTGTTACCAGTCTTATGCCAAGATCACGGCCTCACTCCAGATCAGGTAGTTGCGATCGCCAGCCACGATGGTGGGAAGCAGGCGTTAGAAACCGTTCAACGCTTACTTCCGGTGTTATGTCAGGATCATGGCCTGACCCCGGACCAGGTGGTAGCAATCGCATCGAACATTGGCGGCAAACAGGCGCTGGAAACAGTACAACGCCTGCTCCCGGTGCTGTGCCAGGACCATGGCCTGACGCCGGATCAGGTTGTGGCAATCGCAAGCAACAATGGTGGTAAACAAGCCTTAGAAACAGTGCAGCGCCTCTTACCAGTGCTGTGCCAGGACCACGGCTTAACACCGGATCAAGTCGTGGCCATCGCAAGCAACAATGGCGGTAAACAAGCGCTGGAGACCGTGCAGCGCCTTTTACCTGTTCTGTGTCAGGATCATGGTTTAACCCCGGATCAGGTGGTTGCTATTGCCTCTAACATTGGCGGTAAACAGGCACTGGAAACAGTTCAGCGCCTTTTACCAGTCCTGTGCCAGGACCATGGTTTAACTCCTGACCAGGTAGTGGCCATTGCTTCTAACATTGGGGGCAAGCAGGCCCTGGAGACCGTGCAACGCTTACTGCCGGTGTTATGCCAAGACCATGGTTTAACACCGGATCAGGTGGTAGCGATTGCCTCGCACGATGGTGGTAAACAAGCTCTGGAAACCGTGCAACGTTTACTGCCGGTACTGTGTCAGGATCATGGCCTGACCCCAGATCAAGTAGTTGCTATTGCGAGCAACATTGGCGGTAAACAGGCATTAGAGACCGTTCAGCGCCTGTTACCTGTCCTGTGCCAGGATCACGGTTTAACACCTGACCAGGTTGTCGCGATTGCCAGCAACGGTGGTGGCAAACAGGCGCTGGAAACGGTTCAGCGTTTACTGCCGGTTTTATGCCAAGATCATGGCCTTACACCGGACCAAGTTGTTGCCATCGCGTCAAACAATGGCGGGAAACAGGCTCTTGAAACAGTACAGCGTCTGCTGCCGGTATTATGTCAGGATCACGGGCTGACTCCTGACCAGGTGGTTGCGATTGCGAGCAACGGTGGTGGCAAGCAGGCGCTGGAGACCGTTCAGCGTCTGCTGCCGGTGCTGTGTCAGGACCACGGT'
p40
aS'CTGACGCCGGATCAGGTCGTGGCAATCGCGAGCCACGATGGCGGCAAACAGGCCTTAGAGACTGTGCAGCGTTTACTGCCGGTTCTGTGTCAGGATCATGGGTTAACCCCGGACCAGGTGGTAGCTATTGCAAGTCACGATGGTGGTAAACAAGCGCTGGAAACGGTCCAGCGTCTGTTACCAGTACTCTGCCAAGATCATGGCCTGACCCCGGATCAGGTTGTGGCCATTGCGTCTAACGGTGGGGGCAAACAGGCCTTAGAAACTGTGCAGCGTTTACTGCCGGTGTTATGCCAGGACCATGGTCTGACCCCGGATCAGGTTGTCGCGATTGCTTCACACGATGGTGGCAAACAGGCACTGGAAACCGTCCAACGCCTGCTGCCGGTTCTGTGTCAAGACCACGGTCTGACGCCGGATCAGGTCGTGGCCATCGCTTCGAACATTGGCGGTAAACAGGCATTAGAGACGGTCCAGCGTCTGCTGCCGGTCCTTTGCCAGGACCACGGGCTGACACCAGATCAGGTAGTCGCGATCGCGTCTAACGGTGGCGGCAAACAAGCTCTGGAAACAGTACAGCGTCTGTTACCAGTTTTATGCCAAGATCACGGCCTCACTCCAGATCAGGTAGTTGCGATCGCCAGCCACGATGGTGGGAAGCAGGCGTTAGAAACCGTTCAGCGCTTACTTCCGGTGTTATGTCAGGATCATGGCCTGACCCCGGACCAGGTCGTAGCAATCGCATCGAACATTGGCGGCAAACAGGCGCTGGAAACAGTACAACGCCTGCTCCCGGTGCTGTGCCAGGACCATGGCCTGACACCGGATCAGGTTGTCGCAATCGCAAGCAACAATGGTGGTAAACAGGCCTTAGAAACAGTGCAGCGCCTCTTACCAGTGCTGTGCCAGGATCACGGCTTAACACCGGATCAAGTCGTGGCCATCGCAAGCAACAATGGCGGTAAACAAGCGCTGGAGACCGTGCAGCGCCTGTTACCTGTTCTGTGTCAGGATCATGGTTTAACCCCGGATCAGGTGGTTGCTATTGCCTCTAACATTGGCGGTAAACAGGCACTGGAAACAGTCCAACGCCTTTTACCAGTCCTGTGCCAGGACCATGGTTTAACTCCTGACCAGGTGGTGGCCATTGCTTCTAACATTGGGGGCAAGCAGGCCCTGGAGACCGTGCAACGCTTACTGCCGGTGTTATGCCAGGACCACGGTTTAACCCCGGATCAGGTGGTAGCGATTGCCTCGCACGATGGTGGTAAACAAGCACTGGAAACCGTGCAACGTTTACTGCCGGTACTGTGTCAGGATCATGGCCTGACCCCAGATCAAGTAGTTGCCATTGCGAGCAACATTGGCGGTAAACAGGCATTAGAGACCGTTCAGCGCCTGTTACCTGTCCTGTGCCAGGATCACGGTTTAACACCTGACCAAGTTGTCGCGATCGCCAGCAACGGTGGTGGCAAACAGGCGCTGGAAACGGTTCAGCGTTTACTGCCGGTTTTATGCCAAGATCATGGCCTTACACCGGACCAAGTTGTTGCCATCGCGTCAAACAATGGCGGGAAACAGGCTCTCGAAACAGTACAGCGTCTGCTGCCGGTATTATGTCAGGATCACGGGCTGACTCCTGACCAGGTGGTTGCGATTGCGAGCAACGGTGGTGGCAAGCAGGCGCTGGAGACTGTTCAGCGTCTGCTGCCGGTGCTGTGTCAGGATCACGGT'
p41
aS'CTGACGCCGGATCAGGTCGTGGCAATCGCGAGCCACGATGGCGGCAAACAGGCCTTAGAAACTGTGCAGCGTTTACTGCCGGTTCTGTGTCAGGATCATGGGTTAACCCCGGACCAGGTGGTAGCTATTGCAAGTCACGATGGTGGTAAACAAGCGCTGGAAACGGTCCAGCGTCTGTTACCAGTACTCTGCCAAGATCATGGCCTGACCCCGGATCAGGTTGTGGCCATTGCGTCTAACGGTGGGGGCAAACAGGCCTTAGAAACTGTGCAGCGTTTACTGCCGGTGTTATGCCAGGATCACGGTCTGACCCCGGATCAGGTTGTCGCGATTGCTTCACACGATGGTGGCAAGCAGGCACTGGAAACCGTCCAACGCCTGCTGCCGGTTCTGTGTCAAGACCACGGTCTGACGCCGGATCAGGTCGTGGCCATTGCTTCGAACATTGGCGGTAAACAGGCATTAGAGACGGTCCAGCGTCTGCTGCCGGTCCTTTGCCAGGACCACGGGCTGACACCAGATCAGGTAGTCGCGATCGCGTCTAACGGTGGCGGCAAACAAGCTCTCGAAACAGTACAGCGTCTGTTACCAGTTTTATGCCAAGATCACGGCCTCACTCCAGATCAGGTAGTTGCGATCGCCAGCCACGATGGTGGGAAGCAGGCGTTAGAAACCGTTCAGCGCTTACTTCCGGTGTTATGTCAGGATCATGGCCTGACCCCGGACCAGGTCGTAGCAATCGCATCGAACATTGGCGGCAAACAGGCGCTGGAAACAGTACAACGCCTGCTCCCGGTGCTGTGCCAGGACCATGGCCTGACACCGGATCAGGTTGTCGCAATCGCAAGCAACAATGGTGGTAAACAGGCCTTAGAAACAGTGCAGCGCCTCTTACCAGTGCTGTGCCAGGATCACGGCTTAACACCGGATCAAGTCGTGGCCATCGCAAGCAACAATGGCGGTAAACAAGCGCTGGAGACCGTGCAGCGCCTGTTACCTGTTCTGTGTCAGGATCATGGTTTAACCCCGGATCAGGTGGTTGCTATTGCCTCTAACATTGGCGGTAAACAGGCACTGGAAACAGTCCAACGCCTTTTACCAGTCCTGTGCCAGGACCATGGTTTAACTCCTGACCAGGTGGTGGCCATTGCTTCTAACATTGGGGGCAAGCAGGCCCTGGAGACCGTGCAACGCTTACTGCCGGTGTTATGCCAGGACCACGGTTTAACCCCGGATCAGGTGGTAGCGATTGCCTCGCACGATGGTGGTAAACAAGCACTGGAAACCGTGCAACGTTTACTGCCGGTACTGTGTCAGGATCATGGCCTGACCCCAGATCAAGTAGTTGCCATTGCGAGCAACATTGGCGGTAAACAGGCATTAGAGACCGTTCAGCGCCTGTTACCTGTCCTGTGCCAGGATCACGGTTTAACACCTGACCAAGTTGTCGCGATCGCCAGCAACGGTGGTGGCAAACAGGCGCTGGAAACGGTTCAGCGTTTACTGCCGGTTTTATGCCAAGACCATGGCCTTACACCGGACCAAGTTGTTGCCATCGCGTCAAACAATGGCGGGAAACAGGCTCTCGAAACAGTACAGCGTCTGCTGCCGGTATTATGTCAGGATCACGGGCTGACTCCTGACCAGGTGGTTGCGATTGCGAGCAACGGTGGTGGCAAGCAGGCGCTGGAGACTGTTCAGCGTCTGCTGCCGGTGCTGTGTCAGGATCACGGT'
p42
aS'CTGACGCCGGATCAGGTCGTGGCAATCGCGAGCCACGATGGCGGCAAACAGGCCTTAGAAACTGTGCAACGTTTACTGCCGGTTCTGTGTCAGGATCATGGGTTAACCCCGGACCAGGTGGTAGCTATTGCAAGTCACGATGGTGGTAAACAAGCGCTGGAAACGGTCCAGCGTCTGTTACCAGTACTCTGCCAAGATCATGGCCTGACCCCGGATCAAGTTGTGGCCATTGCGTCTAACGGTGGGGGCAAACAGGCCTTAGAAACTGTGCAGCGTTTACTGCCGGTGTTATGCCAGGATCATGGTCTGACCCCGGATCAGGTTGTCGCGATTGCTTCACACGATGGTGGCAAACAGGCCCTGGAGACCGTCCAACGCCTGCTGCCGGTTCTGTGTCAAGACCACGGTCTGACGCCGGATCAGGTCGTGGCCATCGCTTCGAACATTGGCGGTAAACAGGCATTAGAAACGGTCCAGCGTCTGCTGCCTGTCCTTTGCCAGGACCACGGTCTGACACCAGATCAGGTAGTCGCGATCGCGTCTAACGGTGGCGGTAAACAAGCTCTGGAAACCGTACAGCGTCTGTTACCAGTTTTATGCCAAGATCACGGCCTCACTCCAGATCAGGTAGTTGCGATCGCCAGCCACGATGGTGGGAAACAGGCGTTAGAAACCGTTCAACGCTTACTTCCGGTGTTATGTCAGGATCATGGCCTGACCCCGGACCAGGTGGTAGCAATCGCATCGAACATTGGCGGCAAACAAGCGCTGGAAACAGTACAGCGCCTGCTCCCGGTGCTGTGCCAGGACCATGGCCTGACGCCGGATCAGGTTGTGGCAATCGCAAGCAACAATGGTGGTAAGCAAGCCTTAGAAACAGTGCAGCGCCTCTTACCAGTGCTGTGCCAGGATCACGGCTTAACACCGGACCAAGTCGTGGCCATCGCAAGCAACAATGGCGGTAAACAGGCGCTGGAGACCGTGCAGCGCCTGCTTCCTGTTCTGTGTCAGGATCATGGTTTAACCCCGGATCAAGTGGTTGCTATTGCCTCTAACATTGGCGGTAAACAGGCACTGGAAACAGTTCAGCGCCTTTTACCAGTCCTGTGCCAGGACCATGGTTTAACTCCTGACCAGGTGGTGGCCATTGCTTCTAACATTGGGGGCAAGCAGGCCCTGGAGACCGTGCAACGCTTACTGCCGGTGTTATGCCAAGACCACGGTTTAACCCCGGATCAGGTGGTAGCGATTGCCTCGCACGATGGTGGTAAACAAGCTCTGGAAACCGTGCAACGTTTACTGCCGGTACTGTGTCAGGATCATGGCCTGACCCCAGATCAAGTAGTTGCTATCGCGAGCAACATTGGCGGTAAACAGGCATTAGAGACCGTTCAGCGCCTGTTACCTGTCCTGTGCCAGGATCACGGTTTAACACCTGACCAAGTTGTCGCGATCGCCAGCAACGGTGGTGGCAAACAGGCGCTGGAAACGGTTCAGCGTTTACTGCCGGTTTTATGCCAAGACCATGGCCTTACACCGGACCAAGTTGTTGCCATCGCGTCAAACAATGGCGGGAAACAGGCTCTCGAAACAGTACAGCGTCTGCTGCCGGTATTATGTCAGGATCACGGGCTGACTCCTGACCAGGTGGTTGCGATTGCGAGCAACGGTGGTGGCAAGCAGGCGCTGGAGACTGTTCAGCGTCTGCTGCCGGTGCTGTGTCAGGATCACGGT'
p43
aS'CTGACGCCGGATCAAGTCGTGGCAATCGCGAGCCACGATGGCGGCAAACAGGCCTTAGAAACTGTGCAGCGTTTACTGCCGGTTCTGTGTCAAGATCATGGGTTAACCCCTGACCAGGTGGTGGCTATTGCCAGTCACGATGGTGGTAAACAAGCGCTGGAAACGGTCCAGCGTCTGTTACCAGTACTCTGCCAAGATCATGGCCTGACCCCGGACCAGGTTGTGGCCATTGCGTCTAACGGTGGGGGCAAACAGGCCTTAGAAACTGTGCAGCGTTTACTGCCGGTGTTATGCCAGGATCATGGTCTGACCCCGGATCAGGTTGTCGCGATTGCTTCACACGATGGTGGCAAACAGGCACTGGAAACCGTCCAACGCCTGCTGCCGGTTCTGTGTCAAGACCACGGTCTGACGCCGGATCAGGTCGTGGCCATCGCTTCGAACATTGGCGGTAAACAGGCATTAGAAACGGTCCAGCGTCTGCTGCCGGTCCTTTGCCAGGACCACGGTCTGACACCAGATCAGGTAGTCGCGATCGCCTCTAACGGTGGCGGTAAACAAGCTCTGGAAACCGTACAGCGTCTGTTACCAGTTTTATGCCAAGATCACGGCCTCACTCCAGATCAAGTAGTTGCGATCGCCAGCCACGATGGTGGGAAGCAGGCGTTAGAAACCGTTCAACGCTTACTTCCGGTGTTATGTCAGGATCATGGCCTGACCCCGGACCAGGTGGTAGCAATCGCATCGAACATTGGCGGCAAACAAGCGCTGGAGACAGTACAGCGCCTGCTCCCGGTGCTGTGCCAGGACCATGGCCTGACGCCGGATCAGGTTGTCGCAATCGCAAGCAACAATGGTGGTAAACAAGCCTTAGAGACAGTGCAGCGCCTCTTACCTGTCCTGTGCCAGGATCACGGCTTAACACCGGATCAAGTCGTGGCCATCGCAAGCAACAATGGCGGTAAACAAGCGCTGGAGACCGTGCAGCGCCTGTTACCTGTTCTGTGTCAGGATCATGGTTTAACCCCGGATCAGGTGGTTGCTATTGCCTCTAACATTGGCGGTAAACAGGCACTGGAAACAGTTCAGCGCCTTTTACCAGTCCTGTGCCAGGACCATGGTTTAACTCCTGACCAGGTGGTGGCCATTGCTTCTAACATTGGGGGCAAGCAGGCCCTGGAGACCGTGCAACGCTTACTGCCGGTGTTATGCCAGGACCACGGTTTAACCCCGGATCAGGTGGTAGCGATTGCCTCGCACGATGGTGGTAAACAAGCACTGGAAACCGTGCAACGTTTACTGCCGGTACTGTGTCAGGATCATGGCCTGACCCCAGATCAAGTAGTCGCTATTGCGAGCAACATTGGCGGTAAACAGGCATTAGAGACCGTTCAGCGCCTGTTACCTGTCCTGTGCCAGGATCACGGTTTAACACCTGACCAAGTTGTCGCGATCGCCAGCAACGGTGGTGGCAAACAGGCGCTGGAAACGGTTCAGCGTTTACTGCCGGTTTTATGCCAAGACCATGGCCTTACACCGGACCAAGTTGTTGCCATCGCGTCAAACAATGGCGGGAAACAGGCTCTTGAAACAGTACAGCGTCTGCTGCCGGTATTATGTCAGGATCACGGGCTGACTCCTGACCAGGTGGTTGCGATTGCGAGCAACGGTGGTGGCAAGCAGGCGCTGGAGACTGTTCAGCGTCTGCTGCCGGTGCTGTGTCAGGATCACGGT'
p44
aS'CTGACGCCGGATCAGGTCGTGGCAATCGCGAGCCACGATGGCGGCAAACAGGCCTTAGAGACAGTGCAGCGTTTACTGCCGGTTCTGTGTCAGGATCATGGGTTAACCCCGGACCAGGTGGTAGCTATTGCAAGTCACGATGGTGGTAAACAAGCGCTGGAAACGGTCCAGCGTCTGTTACCAGTCCTCTGCCAAGATCATGGCCTGACCCCGGATCAGGTTGTGGCCATTGCGAGCAACGGTGGGGGCAAACAGGCCTTAGAAACTGTGCAGCGTTTACTGCCGGTGTTATGCCAGGATCATGGTCTGACCCCGGATCAGGTTGTCGCGATTGCTTCACACGATGGGGGCAAACAGGCACTGGAAACCGTCCAACGCCTGCTGCCGGTTCTGTGTCAAGACCACGGTCTGACGCCGGATCAGGTCGTGGCCATCGCTTCGAACATTGGCGGTAAACAGGCATTAGAGACGGTCCAGCGTCTGCTGCCGGTCCTTTGCCAGGACCACGGGCTGACACCAGATCAGGTAGTCGCGATCGCGTCTAACGGTGGCGGTAAACAAGCTCTGGAAACCGTACAGCGTCTGTTACCAGTTTTATGCCAAGACCACGGCCTCACTCCAGATCAGGTAGTTGCGATCGCCAGCCACGATGGTGGGAAACAGGCGTTAGAAACCGTTCAACGCTTACTTCCGGTGTTATGTCAGGATCATGGCCTGACCCCGGACCAGGTGGTAGCAATCGCATCGAACATTGGCGGCAAACAAGCGCTGGAAACAGTACAGCGCCTGCTCCCGGTGCTGTGCCAGGACCATGGCCTGACGCCGGATCAGGTTGTGGCAATCGCAAGCAACAATGGTGGTAAACAAGCCTTAGAAACAGTGCAGCGCCTCTTACCAGTGCTGTGCCAGGATCACGGCTTAACACCGGATCAAGTCGTGGCCATCGCAAGCAACAATGGCGGTAAGCAGGCGCTGGAAACCGTGCAGCGCCTGTTACCTGTTCTGTGTCAGGATCATGGTTTAACCCCGGATCAGGTGGTTGCTATTGCCTCTAACATTGGCGGTAAACAGGCACTGGAAACAGTTCAGCGCCTTTTACCAGTCCTGTGCCAGGACCATGGTTTAACTCCAGACCAGGTGGTGGCCATTGCTTCTAACATTGGGGGCAAGCAGGCCCTGGAGACCGTGCAACGCTTACTGCCGGTGTTATGCCAAGATCACGGTTTAACCCCGGATCAGGTGGTAGCGATTGCCAGTCACGATGGTGGTAAACAAGCACTGGAAACCGTGCAACGTTTACTGCCGGTACTGTGTCAGGATCATGGCCTGACCCCAGATCAAGTAGTTGCTATTGCGAGCAACATTGGCGGTAAACAGGCTTTAGAGACCGTTCAGCGCCTGTTACCTGTCCTGTGCCAGGATCACGGTTTAACACCTGACCAAGTTGTCGCGATCGCCAGCAACGGTGGTGGCAAACAGGCGCTGGAAACGGTTCAACGTTTACTGCCGGTTTTATGCCAAGACCATGGCCTTACACCGGACCAAGTTGTTGCCATCGCGTCAAACAATGGCGGGAAACAGGCTCTTGAAACAGTACAGCGTCTGCTGCCGGTATTATGTCAGGATCACGGGCTGACTCCTGACCAGGTGGTTGCGATTGCGAGCAACGGTGGTGGCAAGCAGGCGCTGGAGACTGTTCAGCGTCTGCTGCCGGTGCTGTGTCAGGATCACGGT'
p45
aS'CTGACGCCGGATCAGGTCGTGGCAATCGCGAGCCACGATGGCGGCAAACAAGCCTTAGAAACTGTGCAGCGTTTACTGCCGGTTCTGTGTCAGGATCATGGGTTAACCCCGGACCAGGTGGTAGCTATTGCAAGTCACGATGGTGGTAAACAAGCGTTAGAAACGGTCCAGCGTCTGTTACCAGTCCTCTGCCAAGATCATGGCCTGACCCCGGATCAGGTTGTGGCCATTGCGTCAAACGGTGGGGGCAAACAGGCCTTAGAAACTGTCCAACGTTTACTGCCGGTGTTATGCCAGGATCATGGTCTGACCCCGGATCAGGTTGTCGCGATTGCTTCACACGATGGTGGCAAACAGGCACTGGAAACCGTCCAACGCCTGCTGCCGGTTCTGTGTCAAGACCACGGTCTGACGCCGGATCAGGTCGTGGCCATCGCTTCGAACATTGGCGGTAAACAGGCATTAGAAACGGTCCAGCGTCTGCTGCCAGTCCTTTGCCAGGACCATGGTCTGACACCAGATCAGGTAGTCGCGATCGCGTCTAACGGTGGCGGTAAACAAGCTCTGGAGACCGTACAGCGTCTGTTACCAGTTTTATGCCAAGATCACGGCCTCACTCCAGATCAGGTTGTTGCGATTGCCAGCCACGATGGTGGGAAGCAGGCGTTAGAAACCGTTCAACGCTTACTTCCGGTGTTATGTCAGGATCACGGCCTGACCCCAGACCAGGTGGTAGCAATCGCATCGAACATTGGCGGCAAACAAGCGCTGGAAACAGTACAGCGCCTGCTCCCGGTGCTGTGCCAGGACCATGGCCTGACGCCGGATCAGGTTGTGGCAATCGCAAGCAACAATGGTGGTAAACAAGCCTTAGAAACAGTGCAGCGCCTCTTACCAGTGCTGTGCCAGGATCACGGCTTAACACCGGATCAAGTCGTGGCCATCGCAAGCAACAATGGCGGGAAACAGGCGCTGGAGACCGTGCAACGCCTGTTACCTGTTCTGTGTCAGGATCATGGTTTAACCCCGGATCAGGTGGTTGCTATTGCGTCGAACATTGGCGGTAAACAGGCACTGGAAACAGTTCAGCGCCTTTTACCAGTCCTGTGCCAGGACCATGGTTTAACTCCTGACCAGGTGGTGGCCATTGCTTCTAACATTGGGGGGAAGCAGGCCCTGGAGACCGTGCAACGCTTACTGCCGGTGTTATGCCAAGACCACGGTTTAACCCCGGATCAGGTGGTAGCGATTGCCTCGCACGATGGTGGTAAACAAGCTCTGGAAACCGTGCAACGTTTACTGCCGGTACTGTGTCAGGATCATGGCCTGACCCCAGATCAAGTAGTTGCTATTGCGAGCAACATTGGCGGTAAACAGGCATTAGAGACCGTTCAGCGCCTGTTACCTGTCCTGTGCCAGGATCACGGTTTAACACCTGACCAAGTTGTCGCGATCGCCAGCAACGGTGGTGGCAAACAGGCGCTGGAAACGGTTCAGCGTTTACTGCCGGTTTTATGCCAAGACCATGGCCTTACACCGGACCAAGTTGTTGCCATCGCTTCAAACAATGGCGGGAAACAGGCTCTCGAAACAGTACAGCGTCTGCTGCCGGTATTATGTCAGGATCACGGGCTGACTCCTGACCAGGTGGTTGCTATTGCGAGCAACGGTGGTGGCAAGCAGGCGCTGGAAACAGTTCAGCGTCTGCTGCCGGTGCTGTGTCAGGACCACGGT'
p46
aS'CTGACGCCGGATCAGGTCGTGGCAATCGCGAGCCACGATGGCGGCAAACAGGCCTTAGAGACAGTGCAGCGTTTACTGCCGGTTCTGTGTCAGGATCATGGGTTAACCCCGGACCAGGTGGTAGCTATTGCAAGTCACGATGGTGGTAAACAAGCGCTGGAAACGGTCCAGCGTCTGTTACCAGTCCTCTGCCAAGATCATGGCCTGACCCCGGATCAGGTTGTGGCCATTGCGAGCAACGGTGGGGGCAAACAGGCCTTAGAAACTGTGCAGCGTTTACTGCCGGTGTTATGCCAGGATCATGGTCTGACCCCGGATCAGGTTGTCGCGATTGCTTCACACGATGGGGGCAAACAGGCACTGGAAACCGTCCAACGCCTGCTGCCGGTTCTGTGTCAAGACCACGGTCTGACGCCGGATCAGGTCGTGGCCATCGCTTCGAACATTGGCGGTAAACAGGCATTAGAGACGGTCCAGCGTCTGCTGCCGGTCCTTTGCCAGGACCACGGGCTGACACCAGATCAGGTAGTCGCGATCGCGTCTAACGGTGGCGGTAAACAAGCTCTGGAAACCGTACAGCGTCTGTTACCAGTTTTATGCCAAGACCACGGCCTCACTCCAGATCAGGTAGTTGCGATCGCCAGCCACGATGGTGGGAAACAGGCGTTAGAAACCGTTCAACGCTTACTTCCGGTGTTATGTCAGGATCATGGCCTGACCCCGGACCAGGTGGTAGCAATCGCATCGAACATTGGCGGCAAACAAGCGCTGGAAACAGTACAGCGCCTGCTCCCGGTGCTGTGCCAGGACCATGGCCTGACGCCGGATCAGGTTGTGGCAATCGCATCTAACAATGGTGGTAAGCAAGCCTTAGAAACAGTGCAGCGCCTCTTACCAGTACTGTGCCAGGATCACGGCTTAACACCGGATCAAGTCGTCGCCATCGCAAGCAACAATGGCGGTAAACAGGCGCTGGAGACCGTGCAGCGCCTGTTACCTGTTCTGTGTCAGGATCATGGTTTAACCCCGGATCAGGTGGTTGCTATTGCCTCTAACATTGGCGGTAAGCAGGCACTGGAAACAGTTCAGCGCCTTTTACCAGTGCTGTGCCAGGACCATGGTTTAACTCCTGACCAGGTGGTGGCCATTGCTTCTAACATTGGGGGCAAGCAGGCCCTGGAGACCGTCCAACGCTTACTGCCGGTGTTATGCCAAGACCACGGTTTAACCCCGGATCAGGTGGTAGCGATTGCCTCGCACGATGGTGGTAAACAAGCTCTGGAAACCGTCCAACGTTTACTGCCGGTACTGTGTCAGGATCATGGCCTGACCCCAGATCAAGTAGTTGCTATTGCGAGCAACATTGGTGGTAAACAGGCATTAGAGACCGTTCAGCGCCTGTTACCTGTCCTGTGCCAGGATCACGGTTTAACACCTGACCAAGTTGTCGCGATCGCCAGCAACGGTGGTGGCAAACAGGCGCTGGAAACGGTTCAGCGTTTACTGCCGGTTTTATGCCAAGACCATGGCCTTACACCGGACCAAGTTGTTGCCATCGCGTCAAACAATGGCGGGAAACAGGCTCTCGAAACAGTACAGCGTCTGCTGCCGGTATTATGTCAGGATCACGGGCTGACTCCTGACCAGGTGGTTGCGATTGCGAGCAACGGTGGTGGCAAGCAGGCGCTGGAGACAGTTCAGCGTCTGCTGCCGGTGCTGTGTCAGGACCACGGT'
p47
aS'CTGACGCCGGATCAGGTCGTGGCAATCGCGAGCCACGATGGCGGCAAACAGGCCTTAGAGACAGTGCAGCGTTTACTGCCGGTTCTGTGTCAGGATCATGGGTTAACCCCGGACCAGGTGGTAGCTATTGCAAGTCACGATGGTGGTAAACAAGCGCTGGAAACGGTCCAGCGTCTGTTACCAGTCCTCTGCCAAGATCATGGCCTGACCCCGGATCAGGTTGTGGCCATTGCGTCAAACGGTGGGGGCAAACAGGCCTTAGAGACTGTGCAGCGTTTACTGCCGGTGTTATGCCAGGATCATGGTCTGACCCCGGATCAGGTTGTCGCGATTGCTTCACACGATGGTGGCAAACAGGCACTGGAAACCGTCCAACGCCTGCTGCCGGTTCTGTGTCAAGACCACGGTCTGACGCCGGATCAGGTCGTGGCCATCGCTTCGAACATTGGCGGTAAACAGGCATTAGAAACGGTCCAGCGTCTGCTGCCGGTCCTCTGCCAGGACCACGGTCTGACACCAGATCAGGTAGTCGCGATCGCGTCTAACGGTGGCGGTAAACAAGCTCTGGAAACAGTACAGCGTCTGTTACCAGTTTTATGCCAAGATCACGGCCTCACTCCAGATCAGGTAGTTGCGATCGCCAGCCACGATGGTGGGAAGCAGGCGTTAGAAACCGTTCAGCGCTTACTTCCGGTGTTATGTCAGGACCATGGCCTGACCCCGGACCAGGTCGTAGCAATCGCATCGAACATTGGCGGCAAACAGGCGCTGGAAACAGTACAACGCCTGCTCCCGGTGCTGTGCCAGGACCACGGCCTGACACCGGATCAGGTTGTCGCAATCGCAAGCAACAATGGTGGTAAACAAGCCTTAGAAACAGTGCAGCGCCTCTTACCAGTGCTGTGCCAGGATCACGGCTTAACCCCGGATCAAGTCGTGGCCATCGCAAGCAACAATGGCGGTAAACAAGCGCTGGAGACCGTGCAGCGCCTGTTACCTGTTCTGTGTCAGGATCATGGTTTAACCCCGGATCAAGTGGTTGCTATTGCCTCTAACATTGGCGGTAAACAGGCACTGGAAACAGTTCAGCGCCTTTTACCAGTCCTGTGCCAGGACCATGGTTTAACTCCTGACCAGGTGGTGGCCATTGCTTCTAACATTGGGGGCAAGCAGGCCCTGGAGACCGTGCAACGCTTACTGCCGGTGTTATGCCAAGACCACGGTTTAACCCCGGATCAGGTGGTAGCGATTGCCTCGCACGATGGTGGTAAACAAGCTCTGGAAACCGTCCAACGTTTACTGCCGGTACTGTGTCAGGATCATGGCCTGACCCCAGATCAAGTAGTTGCTATTGCGAGCAACATTGGTGGTAAACAGGCATTAGAGACCGTTCAGCGCCTGTTACCTGTCCTGTGCCAGGATCACGGTTTAACACCTGACCAAGTTGTCGCGATCGCCAGCAACGGTGGTGGCAAACAGGCGCTGGAAACGGTTCAGCGTTTACTGCCGGTTTTATGCCAAGATCATGGCCTTACACCGGACCAAGTTGTTGCCATCGCGTCAAACAATGGCGGGAAACAGGCACTCGAAACAGTACAGCGTCTGCTGCCGGTATTATGTCAGGATCACGGGCTGACTCCTGACCAGGTGGTTGCGATTGCGAGCAACGGTGGTGGCAAGCAGGCGCTGGAGACTGTTCAGCGTCTGCTGCCGGTGCTGTGTCAGGACCACGGT'
p48
aS'CTGACGCCGGATCAGGTCGTGGCTATCGCGAGCCACGATGGCGGCAAACAGGCCTTAGAAACTGTGCAGCGTTTACTGCCGGTTCTGTGTCAGGATCATGGGTTAACCCCGGACCAGGTGGTAGCTATTGCAAGTCACGATGGTGGTAAACAAGCGCTGGAAACGGTCCAGCGTCTGTTACCAGTCCTCTGCCAAGATCATGGCCTGACCCCGGATCAGGTTGTGGCCATTGCGAGCAACGGTGGGGGCAAACAGGCCTTAGAAACTGTGCAGCGTTTACTGCCGGTGTTATGCCAGGATCATGGTCTGACCCCGGATCAGGTTGTCGCGATTGCTTCACACGATGGTGGCAAACAGGCACTGGAAACCGTCCAACGCCTGCTGCCGGTTCTGTGTCAAGACCACGGTCTGACGCCGGATCAGGTCGTGGCCATTGCTTCGAACATTGGCGGTAAACAGGCATTAGAAACAGTCCAGCGTCTGCTGCCGGTCCTTTGCCAGGACCACGGTCTGACACCAGATCAGGTAGTCGCGATCGCGTCTAACGGTGGCGGGAAACAAGCTCTGGAAACAGTACAGCGTCTGTTACCAGTTTTATGCCAAGATCACGGCCTCACTCCAGATCAGGTAGTTGCGATCGCCAGCCACGATGGTGGGAAGCAGGCGTTAGAAACCGTTCAACGCTTACTTCCGGTGTTATGTCAGGATCATGGCCTGACCCCGGACCAGGTGGTAGCAATCGCATCGAACATTGGCGGCAAACAGGCGCTGGAAACAGTACAACGCCTGCTCCCGGTGCTGTGCCAGGACCATGGCCTGACGCCGGATCAGGTTGTGGCAATCGCAAGCAACAATGGTGGTAAACAAGCCTTAGAAACAGTGCAGCGCCTCTTACCAGTGCTGTGCCAGGATCACGGCTTAACACCGGATCAAGTCGTGGCCATCGCAAGCAACAATGGCGGTAAACAAGCGCTGGAGACCGTGCAGCGCCTGTTACCTGTTCTGTGTCAGGATCATGGTTTAACCCCGGATCAGGTGGTTGCTATTGCCTCTAACATTGGCGGTAAACAGGCCCTGGAAACAGTTCAGCGCCTTTTACCAGTCCTGTGCCAGGACCATGGTTTAACTCCTGACCAGGTGGTGGCCATTGCTTCTAACATTGGGGGCAAGCAGGCCCTGGAGACCGTGCAACGCTTACTGCCGGTGTTATGCCAGGACCACGGCTTAACCCCGGATCAGGTGGTAGCGATTGCCTCGCACGATGGTGGTAAACAAGCTCTGGAAACCGTGCAACGTTTACTGCCGGTACTGTGTCAGGATCATGGCCTGACCCCAGATCAAGTAGTTGCTATTGCGAGCAACATTGGCGGTAAGCAGGCATTAGAGACCGTTCAGCGCCTGTTACCTGTCCTGTGCCAGGATCACGGGTTAACACCTGACCAAGTTGTCGCGATCGCCAGCAACGGTGGTGGCAAACAGGCGCTGGAAACGGTTCAGCGTTTACTGCCGGTTTTATGCCAAGACCATGGCCTTACACCGGACCAAGTTGTTGCCATCGCGTCAAACAATGGCGGGAAACAGGCTCTCGAAACAGTACAGCGTCTGCTGCCGGTATTATGTCAGGATCACGGGCTGACTCCTGACCAGGTGGTTGCGATTGCGAGCAACGGTGGTGGCAAGCAGGCGCTGGAGACTGTGCAGCGTCTGCTGCCGGTGCTGTGTCAGGACCACGGT'
p49
aS'CTGACGCCGGATCAGGTCGTGGCAATCGCGAGCCACGATGGTGGCAAACAGGCCTTAGAAACTGTGCAGCGTTTACTGCCGGTTCTGTGTCAGGATCATGGGTTAACCCCGGACCAGGTGGTAGCTATTGCAAGTCACGATGGTGGTAAACAAGCGCTGGAAACGGTCCAGCGTCTGTTACCAGTCCTCTGCCAAGATCATGGCCTGACCCCGGATCAGGTTGTGGCCATTGCGAGCAACGGTGGGGGCAAACAGGCCTTAGAAACTGTGCAGCGTTTACTGCCGGTGTTATGCCAGGATCATGGTCTGACCCCGGATCAGGTTGTCGCGATTGCTTCACACGATGGGGGCAAACAGGCACTGGAAACCGTCCAACGCCTGCTGCCGGTTCTGTGTCAAGACCACGGTCTGACGCCGGATCAGGTCGTGGCCATCGCTTCGAACATTGGCGGTAAACAGGCATTAGAGACGGTCCAGCGTCTGCTGCCGGTCCTTTGCCAGGACCACGGGCTGACACCAGATCAGGTAGTCGCGATCGCGTCTAACGGTGGCGGTAAACAAGCTCTGGAAACCGTACAGCGTCTGTTACCAGTTTTATGCCAAGACCACGGCCTCACTCCAGATCAGGTAGTTGCGATCGCCAGCCACGATGGTGGGAAACAGGCGTTAGAAACCGTTCAACGCTTACTTCCGGTGTTATGTCAGGATCATGGCCTGACCCCGGACCAGGTGGTAGCAATCGCATCGAACATTGGCGGCAAACAAGCGCTGGAAACAGTACAGCGCCTGCTCCCGGTGCTGTGCCAGGACCATGGCCTGACGCCGGATCAGGTTGTGGCAATCGCATCTAACAATGGTGGTAAGCAAGCCTTAGAAACAGTGCAGCGCCTCTTACCAGTGCTGTGCCAGGATCACGGCTTAACACCGGATCAAGTCGTCGCCATCGCAAGCAACAATGGCGGTAAACAGGCGCTGGAGACCGTGCAGCGCCTGTTACCTGTTCTGTGTCAGGATCATGGTTTAACCCCGGATCAGGTGGTTGCTATTGCCTCTAACATTGGCGGTAAACAGGCACTGGAAACAGTTCAGCGCCTTTTACCAGTCCTGTGCCAGGACCATGGTTTAACTCCTGACCAGGTGGTGGCCATTGCATCTAACATTGGGGGCAAGCAGGCCCTGGAGACCGTGCAACGCTTACTGCCGGTGTTATGCCAGGACCACGGTTTAACCCCGGATCAGGTGGTAGCGATTGCCTCGCACGATGGTGGTAAACAAGCTCTGGAAACCGTGCAACGTTTACTGCCGGTACTGTGTCAGGATCATGGCCTGACCCCAGATCAGGTAGTTGCTATTGCGAGCAACATTGGCGGTAAACAGGCATTAGAGACCGTTCAGCGCCTGTTACCTGTCCTGTGCCAGGATCACGGTTTAACACCTGACCAAGTTGTCGCGATCGCCAGCAACGGTGGTGGCAAACAGGCGCTGGAAACGGTTCAGCGTTTACTGCCGGTTTTATGCCAAGACCATGGCCTTACACCGGACCAAGTTGTTGCCATCGCGTCAAACAATGGCGGGAAACAGGCTCTCGAAACAGTACAGCGTCTGCTGCCGGTATTATGTCAGGATCACGGGCTGACTCCTGACCAGGTGGTTGCGATTGCGAGCAACGGTGGTGGCAAGCAGGCGCTGGAGACTGTTCAGCGTCTGCTGCCGGTGCTGTGTCAGGATCACGGT'
p50
aS'CTGACGCCGGATCAGGTCGTGGCAATCGCGAGCCACGATGGCGGCAAACAGGCCTTAGAGACTGTGCAACGTTTACTGCCGGTTCTGTGTCAGGACCATGGGTTAACCCCGGACCAGGTGGTAGCTATTGCAAGTCACGATGGTGGTAAACAAGCGCTGGAAACGGTCCAGCGTCTGTTACCAGTACTCTGCCAAGATCATGGCCTGACCCCGGATCAGGTTGTGGCCATTGCGTCTAACGGTGGGGGCAAACAGGCCTTAGAAACTGTCCAGCGTTTACTGCCGGTGTTATGCCAGGATCATGGTCTTACCCCGGATCAGGTTGTCGCGATTGCTTCACACGATGGTGGCAAACAGGCACTGGAAACCGTCCAACGCCTGCTGCCGGTTCTGTGTCAAGACCACGGTCTGACGCCGGATCAGGTCGTGGCAATCGCTTCGAACATTGGGGGTAAACAGGCTTTAGAAACGGTCCAGCGTCTGCTGCCGGTCCTTTGCCAGGATCATGGTCTGACACCAGATCAAGTAGTCGCGATCGCGTCAAACGGTGGCGGTAAACAAGCTCTGGAAACCGTACAGCGTCTGTTACCAGTTTTATGCCAAGATCACGGCCTCACTCCAGATCAGGTAGTTGCGATCGCCAGCCACGATGGTGGGAAGCAGGCGTTAGAAACCGTTCAACGCTTACTTCCGGTGTTATGTCAGGATCATGGCCTGACCCCGGACCAGGTAGTAGCAATCGCATCGAACATTGGCGGCAAACAAGCGCTGGAAACAGTACAGCGCCTGCTCCCGGTGCTGTGCCAGGACCATGGCCTGACGCCGGATCAGGTTGTGGCAATCGCAAGCAACAATGGTGGTAAGCAAGCCTTAGAAACAGTGCAGCGCCTCTTACCAGTGCTGTGCCAGGATCACGGCTTAACACCGGATCAAGTCGTGGCCATCGCAAGCAACAATGGCGGGAAACAGGCGCTGGAGACCGTGCAGCGCCTGTTACCTGTTCTGTGTCAGGATCATGGTTTAACCCCGGATCAGGTGGTTGCTATTGCCTCGAACATTGGCGGTAAACAGGCACTGGAAACAGTTCAGCGCCTTTTACCAGTCCTGTGCCAGGACCATGGTTTAACTCCTGACCAGGTGGTGGCCATTGCTTCTAACATTGGGGGCAAGCAAGCCCTGGAGACCGTGCAACGCTTACTGCCGGTGTTATGCCAGGACCACGGTTTAACCCCGGATCAGGTGGTAGCGATTGCCTCGCACGATGGTGGTAAACAAGCTCTGGAAACCGTGCAACGTTTACTGCCGGTACTGTGTCAGGATCATGGCCTGACCCCAGATCAAGTAGTTGCTATTGCGAGCAACATTGGCGGTAAACAGGCATTAGAGACCGTTCAGCGCCTGTTACCTGTCCTGTGCCAGGATCACGGGTTAACACCTGACCAAGTTGTCGCGATCGCCAGCAACGGTGGTGGCAAACAGGCGCTGGAAACCGTTCAGCGTTTACTGCCGGTTTTATGCCAAGACCATGGCCTTACACCGGACCAAGTTGTTGCCATCGCGTCAAACAATGGCGGGAAACAGGCTCTTGAAACAGTACAGCGTCTGCTGCCGGTATTATGTCAGGATCACGGGCTGACTCCTGACCAGGTGGTTGCGATTGCAAGCAACGGTGGTGGCAAGCAGGCGCTGGAGACTGTTCAGCGTCTGCTGCCGGTGCTGTGTCAGGACCACGGT'
p51
aS'CTGACGCCGGATCAAGTCGTGGCAATCGCGAGCCACGATGGCGGCAAACAGGCCTTAGAAACTGTGCAGCGTTTACTGCCGGTACTGTGTCAGGATCATGGGTTAACCCCGGACCAGGTGGTAGCTATCGCAAGTCACGATGGTGGTAAACAAGCGCTGGAAACGGTCCAGCGTCTGTTACCAGTACTCTGCCAAGATCATGGCCTGACCCCGGATCAGGTTGTGGCCATTGCGTCTAACGGTGGGGGCAAACAGGCCTTAGAGACTGTGCAGCGTTTACTGCCGGTGTTATGCCAGGATCATGGTCTGACCCCGGATCAGGTTGTCGCGATTGCTTCACACGATGGTGGCAAACAGGCACTGGAAACCGTCCAACGCCTGCTGCCGGTTCTGTGTCAAGACCACGGTCTGACGCCGGACCAGGTCGTGGCCATCGCTTCGAACATTGGCGGTAAACAGGCATTAGAAACGGTCCAGCGCCTGCTGCCTGTCTTATGCCAGGACCACGGTCTGACACCAGATCAAGTAGTCGCGATCGCGTCAAACGGTGGCGGTAAACAAGCTCTGGAAACAGTACAGCGTCTGTTACCAGTTTTATGCCAAGATCACGGCCTCACTCCAGATCAGGTAGTTGCGATCGCCAGCCACGATGGTGGGAAGCAGGCGTTAGAAACCGTTCAACGCTTACTTCCGGTGTTATGTCAGGATCATGGGCTGACCCCGGACCAGGTGGTAGCAATCGCATCGAACATTGGCGGCAAACAGGCGCTGGAAACCGTACAACGCCTGCTCCCGGTGCTGTGCCAGGACCATGGCCTGACGCCGGATCAGGTTGTGGCAATCGCAAGCAACAATGGTGGTAAACAAGCCTTAGAAACAGTGCAGCGCCTCTTACCAGTGCTGTGCCAGGATCACGGCTTAACACCGGATCAAGTCGTGGCCATTGCAAGCAACAATGGCGGTAAGCAGGCGCTGGAGACCGTGCAGCGCCTGTTACCTGTTCTGTGTCAGGATCATGGTTTAACCCCGGATCAGGTGGTTGCTATTGCCTCTAACATTGGCGGTAAACAGGCGCTGGAAACAGTTCAGCGCCTTTTACCAGTCCTGTGCCAAGACCATGGTTTAACTCCTGACCAGGTGGTGGCCATTGCTTCTAACATTGGGGGCAAGCAGGCCCTGGAGACCGTGCAACGCTTACTGCCGGTGTTATGCCAAGACCACGGTTTAACCCCGGATCAGGTGGTAGCGATTGCCTCGCACGATGGTGGTAAACAAGCTCTGGAAACCGTGCAACGTTTACTGCCGGTACTGTGTCAGGATCATGGCCTGACCCCAGATCAAGTAGTTGCTATTGCGAGCAACATTGGCGGTAAACAGGCATTAGAGACCGTTCAGCGCCTGTTACCTGTCCTGTGCCAGGATCACGGTTTAACACCTGACCAAGTTGTCGCGATCGCCAGCAACGGTGGTGGCAAACAGGCGCTGGAAACGGTTCAACGTTTACTGCCGGTTTTATGCCAAGACCATGGCCTTACACCGGACCAAGTTGTTGCCATCGCGTCAAACAATGGCGGGAAACAGGCTCTTGAAACAGTACAGCGTCTGCTGCCGGTATTATGTCAGGATCACGGGCTGACTCCTGACCAGGTGGTTGCGATTGCGAGCAACGGTGGTGGCAAGCAGGCGCTGGAGACTGTTCAGCGTCTGCTGCCGGTGCTGTGTCAGGACCACGGT'
p52
aS'CTGACGCCGGATCAGGTGGTGGCAATCGCGAGCCACGATGGCGGCAAACAGGCCTTAGAAACTGTGCAGCGTTTACTGCCGGTTCTGTGTCAGGATCATGGGTTAACCCCGGACCAGGTGGTAGCTATTGCAAGTCACGATGGTGGTAAACAAGCGCTTGAAACGGTCCAGCGTCTGTTACCAGTACTCTGCCAAGATCATGGCCTGACCCCGGATCAAGTTGTGGCCATTGCGTCTAACGGTGGGGGCAAACAGGCCTTAGAGACTGTGCAGCGTTTACTGCCGGTGTTATGCCAGGATCATGGTCTGACCCCGGATCAGGTTGTCGCGATTGCTTCACACGATGGTGGCAAACAGGCACTGGAAACCGTCCAACGCCTGCTGCCGGTTCTGTGCCAAGACCACGGTCTGACGCCGGATCAGGTCGTGGCAATCGCTTCGAACATTGGGGGTAAACAGGCATTAGAAACGGTCCAGCGTCTGCTGCCGGTCCTTTGCCAGGACCACGGTCTGACTCCAGATCAGGTAGTCGCGATCGCGTCTAACGGTGGCGGTAAGCAAGCTCTGGAAACCGTACAGCGTCTGTTACCAGTGTTATGCCAAGATCACGGCCTCACTCCAGATCAGGTAGTTGCGATCGCCAGCCACGATGGTGGGAAACAGGCGTTAGAAACCGTTCAACGCTTACTTCCGGTGTTATGTCAGGATCATGGCCTGACCCCGGACCAGGTGGTAGCAATCGCATCGAACATTGGCGGCAAACAAGCGCTGGAAACAGTACAGCGCCTGCTCCCGGTCCTGTGCCAGGACCATGGCCTGACGCCGGATCAGGTTGTGGCAATCGCAAGCAACAATGGTGGTAAGCAAGCCTTAGAAACAGTGCAGCGCCTCTTACCAGTGCTGTGTCAGGATCACGGCTTAACACCGGATCAAGTCGTGGCCATCGCAAGCAACAATGGCGGTAAACAAGCGCTGGAGACCGTGCAGCGCCTGTTACCTGTTCTGTGTCAGGATCATGGTTTAACCCCGGATCAGGTGGTTGCTATTGCCTCTAACATTGGCGGTAAACAGGCACTGGAAACAGTTCAGCGCCTTTTACCAGTCCTGTGCCAGGACCATGGTTTAACTCCTGACCAGGTGGTGGCCATTGCTTCTAACATTGGGGGCAAGCAGGCCCTGGAGACCGTGCAACGCTTACTGCCGGTGTTATGCCAGGACCACGGTTTAACCCCGGATCAGGTGGTAGCGATTGCCTCGCACGATGGTGGTAAACAAGCACTGGAAACCGTGCAACGTTTACTGCCGGTACTGTGTCAGGATCATGGCCTGACCCCAGATCAAGTAGTTGCTATTGCGAGCAACATTGGCGGTAAACAGGCATTAGAGACCGTTCAGCGCCTGTTACCTGTCCTGTGCCAGGATCACGGGTTAACACCTGACCAAGTTGTTGCGATCGCCAGCAACGGTGGTGGCAAACAGGCGCTGGAAACCGTTCAGCGTTTACTGCCGGTTTTATGCCAAGACCATGGCCTTACACCGGACCAAGTTGTTGCCATCGCGTCAAACAATGGCGGGAAACAGGCTCTTGAAACAGTACAGCGTCTGCTGCCGGTATTATGTCAGGATCACGGGCTGACTCCTGACCAGGTGGTTGCGATTGCGAGCAACGGTGGTGGCAAGCAGGCGCTGGAGACAGTTCAGCGTCTGCTGCCGGTGCTGTGTCAGGACCACGGT'
p53
aS'CTGACGCCGGATCAGGTCGTGGCAATCGCGAGCCACGATGGCGGCAAACAGGCCTTAGAGACTGTGCAGCGTTTACTGCCGGTTCTGTGTCAGGATCATGGGTTAACCCCGGACCAGGTGGTAGCTATTGCAAGTCACGATGGTGGTAAACAAGCGCTGGAAACGGTCCAGCGTCTGTTACCAGTACTCTGCCAAGATCATGGCCTGACCCCGGATCAGGTTGTGGCCATTGCGTCTAACGGTGGGGGCAAACAGGCCTTAGAAACTGTGCAGCGTTTACTGCCGGTGTTATGCCAGGATCATGGTCTGACCCCGGATCAGGTTGTCGCGATTGCTTCACACGATGGTGGCAAACAGGCACTGGAAACCGTCCAACGCCTGCTGCCGGTTCTGTGTCAAGACCACGGTCTGACGCCGGATCAGGTCGTGGCCATCGCTTCGAACATTGGGGGTAAACAGGCATTAGAAACGGTCCAGCGTCTGCTGCCGGTCCTTTGCCAGGACCACGGTCTGACCCCAGATCAGGTAGTCGCGATCGCGTCTAACGGTGGCGGTAAGCAAGCTCTGGAAACCGTTCAGCGTCTGTTACCAGTGTTATGCCAAGATCACGGCCTCACTCCAGATCAGGTAGTTGCGATCGCCAGCCACGATGGTGGGAAGCAGGCGTTAGAAACCGTTCAACGCTTACTTCCAGTGTTATGTCAGGATCATGGCCTGACCCCTGACCAGGTGGTAGCAATCGCATCGAACATTGGCGGCAAACAAGCGCTGGAAACAGTACAGCGCCTGCTCCCGGTGCTGTGCCAAGACCATGGCCTGACGCCGGATCAGGTTGTCGCAATCGCAAGCAACAATGGTGGTAAACAAGCCTTAGAAACAGTGCAGCGCCTCTTACCTGTTCTGTGCCAGGATCACGGCTTAACACCGGATCAAGTCGTGGCCATCGCAAGCAACAATGGCGGGAAACAGGCGCTGGAGACCGTGCAGCGCCTGTTACCTGTTCTGTGTCAGGATCATGGTTTAACCCCGGATCAGGTGGTTGCTATTGCCTCTAACATTGGCGGTAAGCAGGCACTGGAAACAGTTCAGCGCCTTTTACCAGTCCTGTGCCAGGACCATGGTTTAACTCCTGACCAGGTGGTGGCCATTGCTTCTAACATTGGGGGCAAGCAGGCCCTGGAGACCGTGCAACGCTTACTGCCGGTGTTATGCCAAGACCACGGTTTAACCCCGGATCAGGTGGTAGCGATTGCCTCGCACGATGGTGGTAAACAAGCTCTGGAAACCGTTCAACGTTTACTGCCGGTACTGTGTCAGGATCATGGCCTGACCCCAGATCAAGTAGTTGCTATTGCGAGCAACATTGGCGGTAAACAGGCATTAGAGACCGTTCAGCGCCTGTTACCTGTCCTGTGCCAGGATCACGGTTTAACACCTGACCAAGTTGTCGCGATCGCCAGCAACGGTGGTGGCAAACAGGCGCTGGAAACGGTTCAACGTTTACTGCCGGTTTTATGCCAAGACCATGGCCTTACACCGGACCAAGTTGTTGCCATCGCGTCAAACAATGGCGGGAAACAGGCTCTTGAAACAGTACAGCGTCTGCTGCCGGTATTATGTCAGGATCACGGGCTGACTCCTGACCAGGTGGTTGCGATTGCGAGCAACGGTGGTGGCAAGCAGGCGCTGGAGACTGTTCAGCGTCTGCTGCCGGTGCTGTGTCAGGATCACGGT'
p54
aS'CTGACGCCGGATCAGGTCGTGGCAATCGCGAGCCACGATGGCGGCAAACAGGCCTTAGAGACTGTGCAGCGTTTACTGCCGGTACTGTGTCAGGATCATGGGTTAACCCCGGACCAGGTGGTAGCTATTGCAAGTCACGATGGTGGTAAACAAGCGCTGGAAACGGTCCAGCGTCTGTTACCAGTACTCTGCCAAGATCATGGCCTGACCCCGGATCAAGTCGTGGCCATTGCGTCTAACGGTGGGGGCAAACAGGCCTTAGAAACTGTGCAGCGTTTACTGCCGGTGTTATGCCAGGATCATGGTCTGACCCCGGATCAGGTTGTCGCGATTGCTTCACACGATGGTGGCAAACAGGCCCTGGAGACCGTCCAACGCCTGCTGCCGGTTCTGTGTCAAGACCACGGTCTGACGCCGGATCAGGTCGTGGCCATCGCTTCGAACATTGGCGGTAAACAGGCATTAGAAACGGTCCAGCGTCTGCTGCCAGTCCTTTGCCAGGACCACGGTCTGACACCAGATCAGGTAGTCGCGATCGCGTCTAACGGTGGCGGTAAACAAGCTCTGGAAACCGTACAGCGTCTGTTACCAGTTTTATGCCAAGATCACGGCCTCACGCCAGATCAGGTAGTTGCGATCGCCAGCCACGATGGTGGGAAACAGGCGTTAGAAACCGTTCAACGCTTACTTCCGGTGTTATGTCAGGATCATGGCCTGACCCCGGACCAGGTGGTAGCAATCGCATCGAACATTGGCGGCAAACAAGCGCTGGAAACAGTACAGCGCCTGCTCCCGGTCCTGTGCCAGGACCATGGCCTGACGCCGGATCAGGTTGTGGCAATCGCAAGCAACAATGGTGGTAAGCAAGCCTTAGAAACAGTGCAGCGCCTCTTACCAGTGCTGTGCCAGGATCACGGCTTAACACCGGATCAAGTCGTGGCCATCGCAAGCAACAATGGCGGTAAACAGGCGCTGGAGACCGTGCAACGCCTGTTACCTGTTCTGTGTCAGGATCATGGTTTAACCCCGGATCAGGTCGTTGCTATTGCGTCGAACATTGGCGGTAAACAGGCACTGGAAACAGTTCAGCGCCTTTTACCAGTCCTGTGCCAGGACCATGGTTTAACTCCTGACCAGGTGGTGGCCATTGCTTCTAACATTGGGGGCAAGCAGGCCCTGGAGACCGTGCAACGCTTACTGCCGGTGTTATGCCAAGACCACGGTTTAACACCGGATCAGGTGGTAGCGATTGCCTCGCACGATGGTGGTAAACAAGCTCTGGAAACCGTGCAACGTTTACTGCCGGTACTGTGTCAGGATCATGGCCTGACCCCAGATCAAGTAGTTGCTATTGCGAGCAACATTGGCGGTAAACAGGCATTAGAGACCGTTCAGCGCCTGTTACCTGTCCTGTGCCAGGATCACGGTTTAACACCTGACCAAGTTGTCGCGATCGCCAGCAACGGTGGTGGCAAACAGGCGCTGGAAACGGTTCAGCGTTTACTGCCGGTTTTATGCCAAGACCATGGCCTTACACCGGACCAAGTTGTTGCCATCGCGTCAAACAATGGCGGGAAACAGGCTCTCGAAACAGTACAGCGTCTGCTGCCGGTATTATGTCAGGATCACGGGCTGACTCCTGACCAGGTGGTTGCGATTGCGAGCAACGGTGGTGGCAAGCAGGCGCTGGAGACAGTTCAGCGTCTGCTGCCGGTGCTGTGTCAGGACCACGGT'
p55
aS'CTGACGCCGGATCAGGTCGTGGCAATCGCGAGCCACGATGGCGGCAAACAGGCCTTAGAGACTGTGCAGCGTTTACTGCCAGTTCTGTGTCAAGATCATGGGTTAACCCCGGACCAGGTGGTAGCTATTGCAAGTCACGATGGTGGTAAACAAGCGCTGGAAACGGTCCAGCGTCTGTTACCAGTACTCTGCCAAGATCATGGCCTGACCCCGGATCAAGTTGTGGCCATTGCGTCTAACGGTGGGGGCAAACAGGCCTTAGAAACTGTGCAGCGTTTACTGCCGGTGTTATGCCAGGATCATGGTCTGACCCCGGATCAGGTTGTCGCGATTGCTTCACACGATGGTGGCAAACAGGCACTGGAAACCGTCCAACGCCTGCTGCCGGTTCTGTGTCAAGACCACGGTCTGACCCCGGATCAGGTCGTGGCCATCGCTTCTAACATTGGCGGTAAACAGGCATTAGAAACGGTCCAGCGTCTGCTGCCTGTCCTTTGCCAGGACCACGGTCTGACACCAGATCAGGTGGTCGCGATCGCGTCTAACGGTGGCGGTAAACAAGCTCTGGAAACCGTACAGCGTCTGTTACCAGTTTTATGCCAGGATCACGGCCTCACTCCAGATCAAGTAGTTGCGATCGCCAGCCACGATGGTGGGAAGCAGGCGTTAGAAACCGTTCAACGCTTACTTCCGGTGTTATGTCAGGACCATGGCCTGACCCCGGACCAGGTGGTAGCAATCGCATCGAACATTGGCGGCAAACAAGCGCTGGAAACAGTACAGCGCCTGCTCCCGGTCCTGTGCCAGGACCATGGCCTGACGCCGGATCAGGTTGTGGCAATCGCAAGCAACAATGGTGGTAAACAAGCCTTAGAAACAGTGCAGCGCCTCTTACCAGTGCTGTGCCAGGATCACGGCTTAACACCGGATCAAGTCGTGGCCATTGCAAGCAACAATGGCGGTAAGCAGGCGCTGGAGACCGTGCAGCGCCTGTTACCTGTTCTGTGTCAGGATCATGGTTTAACCCCGGATCAGGTGGTTGCTATTGCCTCTAACATTGGCGGTAAACAGGCGCTGGAAACAGTTCAGCGCCTTTTACCTGTCCTGTGCCAAGACCATGGTTTAACTCCTGACCAGGTGGTGGCCATTGCTTCTAACATTGGGGGCAAGCAGGCCCTGGAGACCGTGCAACGCTTACTGCCGGTGTTATGCCAAGACCACGGTTTAACCCCGGATCAGGTGGTAGCGATTGCCTCGCACGATGGTGGTAAACAAGCTCTGGAAACCGTGCAACGTTTACTGCCGGTACTGTGTCAGGATCATGGCCTGACCCCAGATCAAGTAGTTGCTATTGCGAGCAACATTGGCGGTAAACAGGCATTAGAGACCGTTCAGCGCCTGTTACCTGTCCTGTGCCAGGATCACGGTTTAACACCTGACCAAGTTGTCGCGATCGCCAGCAACGGTGGTGGCAAACAGGCGCTGGAAACGGTTCAACGTTTACTGCCGGTTTTATGCCAAGACCATGGCCTTACACCGGACCAAGTTGTTGCCATCGCGTCAAACAATGGCGGGAAACAGGCTCTTGAAACAGTACAGCGTCTGCTGCCGGTACTCTGTCAGGATCACGGGCTGACTCCTGACCAGGTGGTTGCGATTGCGAGCAACGGTGGTGGCAAACAGGCGCTGGAGACTGTTCAGCGTCTGCTGCCGGTGCTGTGTCAGGATCACGGT'
p56
aS'CTGACGCCGGATCAGGTCGTGGCAATCGCGAGCCACGATGGCGGCAAACAGGCCTTAGAAACTGTGCAGCGTTTACTGCCGGTCTTGTGTCAGGATCATGGGTTAACCCCGGACCAGGTGGTAGCTATTGCAAGTCACGATGGTGGTAAACAAGCGCTGGAAACGGTCCAGCGTCTGTTACCAGTACTCTGCCAAGATCATGGCCTGACCCCGGATCAAGTCGTGGCCATTGCGTCTAACGGTGGGGGCAAACAGGCCTTAGAAACTGTCCAACGTTTACTGCCGGTGTTATGCCAGGATCATGGTCTGACCCCGGATCAGGTTGTCGCGATTGCTTCACACGATGGTGGCAAACAGGCACTGGAAACCGTCCAACGCCTGCTGCCGGTTCTGTGTCAAGACCACGGTCTGACGCCGGATCAGGTCGTGGCCATCGCTTCGAACATTGGCGGTAAACAGGCATTAGAAACGGTCCAGCGTCTGCTGCCAGTCCTTTGCCAGGACCACGGTCTGACACCAGATCAGGTAGTCGCGATCGCGTCTAACGGTGGCGGTAAACAAGCTCTGGAGACCGTACAGCGTCTGTTACCAGTTTTATGCCAAGATCACGGCCTCACTCCAGATCAGGTTGTTGCGATTGCCAGCCACGATGGTGGGAAGCAGGCGTTAGAAACCGTTCAACGCTTACTTCCGGTGTTATGTCAGGATCACGGCCTGACCCCAGACCAGGTGGTAGCAATCGCATCGAACATTGGCGGCAAACAAGCGCTGGAAACAGTACAGCGCCTGCTCCCGGTGCTGTGCCAGGACCATGGCCTGACGCCGGATCAGGTTGTGGCAATCGCAAGCAACAATGGTGGTAAGCAAGCCTTAGAAACAGTGCAGCGCCTCTTACCAGTGCTGTGCCAGGATCATGGCTTAACACCGGACCAAGTCGTGGCCATCGCAAGCAACAATGGCGGTAAACAAGCGCTGGAGACCGTGCAGCGCCTGTTACCTGTTCTGTGTCAGGATCATGGTTTAACCCCGGATCAGGTGGTTGCTATTGCCTCTAACATTGGCGGTAAACAGGCACTGGAAACAGTTCAGCGCCTTTTACCAGTCCTGTGCCAGGACCATGGTTTAACTCCTGACCAGGTGGTGGCCATTGCTTCTAACATTGGGGGCAAGCAGGCCCTGGAGACCGTGCAACGCTTACTGCCGGTGTTATGCCAGGACCACGGTTTAACCCCGGATCAGGTGGTAGCGATTGCCTCGCACGATGGTGGTAAACAAGCACTGGAAACCGTGCAACGTTTACTGCCGGTACTGTGTCAGGATCATGGCCTGACCCCAGATCAAGTAGTTGCTATTGCGAGCAACATTGGCGGTAAACAGGCATTAGAGACCGTTCAGCGCCTGTTACCTGTCCTGTGCCAGGATCACGGTTTAACACCTGACCAAGTTGTCGCGATCGCCAGCAACGGTGGTGGCAAACAGGCGCTGGAAACGGTTCAACGTTTACTGCCGGTTTTATGCCAAGACCATGGCCTTACACCGGACCAAGTTGTTGCCATCGCGTCAAACAATGGCGGGAAACAGGCTCTTGAAACAGTACAGCGTCTGCTGCCGGTATTATGTCAGGATCACGGGCTGACTCCTGACCAGGTGGTTGCGATTGCGAGCAACGGTGGTGGCAAGCAGGCGCTGGAGACTGTTCAGCGTCTGCTGCCGGTGCTGTGTCAGGATCACGGT'
p57
aS'CTGACGCCGGATCAGGTCGTGGCAATCGCGAGCCACGATGGCGGCAAACAAGCCTTAGAAACTGTGCAGCGTTTACTGCCGGTTCTGTGTCAGGATCATGGGTTAACCCCGGACCAGGTGGTAGCTATTGCAAGTCACGATGGTGGTAAACAAGCGCTGGAAACGGTCCAGCGTCTGTTACCAGTCCTCTGCCAAGATCATGGCCTGACCCCGGATCAGGTTGTGGCCATTGCGTCAAACGGTGGGGGCAAACAGGCCTTAGAAACTGTGCAGCGTTTACTGCCGGTGTTATGCCAGGATCATGGTCTGACCCCGGATCAGGTTGTCGCGATTGCTTCACACGATGGTGGCAAACAGGCACTGGAAACCGTCCAACGCCTGCTGCCGGTTCTGTGTCAAGACCACGGTCTGACGCCGGATCAGGTCGTGGCCATCGCTTCGAACATTGGCGGGAAACAGGCATTAGAAACGGTCCAGCGTCTGCTGCCTGTCCTTTGCCAGGACCACGGTCTGACACCAGATCAGGTAGTCGCGATCGCGTCTAACGGTGGCGGTAAACAAGCTCTGGAAACGGTACAGCGTCTGTTACCAGTTTTATGCCAAGATCACGGCCTCACTCCAGATCAGGTAGTTGCGATCGCCAGCCACGATGGTGGGAAACAGGCGTTAGAAACCGTTCAACGCTTACTTCCGGTGTTATGTCAGGATCATGGCCTGACCCCGGACCAGGTGGTAGCAATCGCATCGAACATTGGCGGCAAACAAGCGCTGGAAACAGTACAGCGCCTGCTCCCGGTGCTGTGCCAGGACCATGGCCTGACGCCGGATCAGGTTGTGGCAATCGCAAGCAACAATGGTGGTAAGCAAGCCTTAGAAACAGTGCAGCGCCTCTTACCAGTGCTGTGCCAGGATCACGGCTTAACACCGGACCAAGTCGTGGCCATCGCAAGCAACAATGGCGGTAAACAGGCGCTGGAGACCGTGCAGCGCCTGCTGCCTGTTCTGTGTCAGGATCATGGTTTAACCCCGGATCAAGTGGTTGCTATTGCCTCTAACATTGGCGGTAAACAGGCACTGGAAACAGTTCAGCGCCTTTTACCAGTCCTGTGCCAGGACCATGGTTTAACTCCTGACCAGGTGGTGGCCATTGCTTCTAACATTGGGGGCAAGCAGGCCCTGGAGACCGTGCAACGCTTACTGCCGGTGTTATGCCAAGACCACGGTTTAACCCCGGATCAGGTGGTAGCGATTGCCTCGCACGATGGTGGTAAACAAGCTCTGGAAACCGTGCAACGTTTACTGCCGGTACTGTGTCAGGATCATGGCCTGACCCCAGACCAAGTAGTTGCTATTGCGAGCAACATTGGCGGTAAACAGGCATTAGAGACCGTTCAGCGCCTGTTACCTGTCCTGTGCCAGGACCACGGTTTAACACCTGACCAAGTTGTCGCGATCGCCAGCAACGGTGGTGGCAAACAGGCGCTGGAAACGGTTCAGCGTTTACTGCCGGTTTTATGCCAAGACCATGGCCTTACACCGGACCAAGTTGTTGCCATCGCGTCAAACAATGGCGGGAAACAGGCTCTCGAAACAGTACAGCGTCTGCTGCCGGTATTATGTCAGGATCACGGGCTGACTCCTGACCAGGTGGTTGCGATTGCGAGCAACGGTGGTGGCAAGCAGGCGCTGGAGACAGTTCAGCGTCTGCTGCCGGTGCTGTGTCAGGACCACGGT'
p58
aS'CTGACGCCGGATCAGGTCGTGGCAATCGCGAGCCACGATGGCGGCAAACAGGCCTTAGAGACTGTGCAGCGTTTACTGCCGGTTCTGTGTCAGGATCACGGGTTAACCCCGGACCAGGTGGTAGCTATTGCAAGTCACGATGGTGGTAAACAAGCGCTGGAAACGGTCCAGCGTCTGTTACCAGTACTCTGCCAAGATCATGGCCTGACCCCGGATCAGGTCGTGGCCATTGCGTCTAACGGTGGGGGCAAACAGGCCTTAGAAACTGTGCAGCGTTTACTGCCGGTGTTATGCCAGGATCATGGTCTGACCCCGGATCAGGTTGTCGCGATTGCTTCACACGATGGTGGCAAACAGGCACTGGAAACCGTCCAACGCCTGCTGCCGGTTCTGTGTCAAGACCACGGTCTGACCCCGGATCAGGTCGTGGCCATCGCTTCTAACATTGGCGGTAAACAGGCATTAGAAACGGTCCAGCGTCTGCTGCCTGTCCTTTGCCAGGACCATGGTCTGACACCAGATCAAGTAGTCGCGATCGCGTCAAACGGTGGCGGTAAGCAAGCTCTTGAAACCGTACAGCGTCTGTTACCAGTTTTATGCCAAGATCACGGCCTCACTCCAGATCAGGTAGTTGCGATTGCCAGCCACGATGGTGGGAAGCAGGCGTTAGAAACCGTTCAACGCTTACTTCCGGTGTTATGTCAGGATCATGGCCTGACCCCGGACCAGGTAGTAGCAATCGCATCGAACATTGGCGGGAAACAAGCGCTGGAAACAGTACAGCGCCTGCTCCCGGTGCTGTGCCAGGACCATGGCCTGACGCCGGATCAGGTTGTGGCAATCGCAAGCAACAATGGTGGTAAGCAAGCCTTAGAAACAGTGCAGCGCCTCTTACCAGTGCTGTGCCAGGATCACGGGTTAACACCGGATCAAGTCGTGGCCATCGCAAGCAACAATGGCGGGAAACAGGCGCTGGAGACCGTGCAGCGCCTGTTACCTGTTCTGTGTCAGGATCATGGTTTAACCCCGGATCAGGTGGTTGCTATTGCCTCGAACATTGGTGGTAAACAGGCACTGGAAACAGTTCAGCGCCTTTTACCAGTCCTGTGCCAGGACCATGGTTTAACTCCTGACCAGGTGGTGGCCATTGCTTCTAACATTGGGGGCAAGCAGGCCCTGGAGACCGTGCAACGCTTACTGCCGGTGTTATGCCAGGACCACGGTTTAACCCCGGATCAGGTGGTAGCGATTGCCTCGCACGATGGTGGTAAACAAGCACTGGAAACCGTGCAACGTTTACTGCCGGTACTGTGTCAGGATCATGGCCTGACCCCAGATCAAGTAGTTGCTATTGCGAGCAACATTGGCGGTAAACAGGCATTAGAGACCGTTCAGCGCCTGTTACCTGTCCTGTGCCAGGATCACGGTTTAACACCTGACCAAGTTGTCGCGATCGCCAGCAACGGTGGTGGCAAACAGGCGCTGGAAACGGTTCAGCGTTTACTGCCGGTTTTATGCCAAGACCATGGCCTTACACCGGACCAAGTTGTTGCCATCGCGTCAAACAATGGCGGGAAACAGGCTCTCGAAACAGTACAGCGTCTGCTGCCGGTATTATGTCAGGATCACGGGCTGACTCCTGACCAGGTGGTTGCGATTGCGAGCAACGGTGGTGGCAAGCAGGCGCTGGAAACAGTTCAGCGTCTGCTGCCGGTGCTGTGTCAGGACCACGGT'
p59
aS'CTGACGCCGGATCAGGTCGTGGCAATCGCGAGCCACGATGGCGGCAAACAGGCCTTAGAGACAGTGCAGCGTTTACTGCCGGTTCTGTGTCAGGATCATGGGTTAACCCCGGACCAGGTGGTAGCTATTGCAAGTCACGATGGTGGTAAACAAGCGCTGGAAACGGTCCAGCGTCTGTTACCAGTCCTCTGCCAAGATCATGGCCTGACCCCGGATCAGGTTGTGGCCATTGCGAGCAACGGTGGGGGCAAACAGGCCTTAGAAACTGTCCAGCGTTTACTGCCGGTGTTATGCCAGGATCATGGTCTGACCCCGGATCAGGTTGTCGCGATTGCTTCACACGATGGGGGCAAACAGGCACTGGAAACCGTCCAACGCCTGCTGCCGGTTCTGTGTCAAGACCACGGTCTGACGCCGGATCAGGTCGTGGCCATCGCTTCGAACATTGGCGGTAAACAGGCATTAGAGACGGTCCAGCGTCTGCTGCCGGTCCTTTGCCAGGACCACGGGCTGACACCAGATCAGGTAGTCGCGATCGCGTCTAACGGTGGCGGTAAACAAGCTCTGGAAACCGTACAGCGTCTGTTACCAGTTTTATGCCAAGACCACGGCCTCACTCCAGATCAGGTAGTTGCGATCGCCAGCCACGATGGTGGGAAACAGGCGTTAGAAACCGTTCAACGCTTACTTCCGGTGTTATGTCAGGATCATGGCCTGACCCCGGACCAGGTGGTAGCAATCGCATCGAACATTGGCGGCAAACAAGCGCTGGAAACAGTACAGCGCCTGCTCCCGGTGCTGTGCCAGGACCATGGCCTGACGCCGGATCAGGTTGTGGCAATCGCATCTAACAATGGTGGTAAGCAAGCCTTAGAAACAGTGCAGCGCCTCTTACCAGTACTGTGCCAGGATCACGGCTTAACACCGGATCAAGTCGTCGCCATCGCAAGCAACAATGGCGGTAAACAGGCGCTGGAGACCGTGCAGCGCCTGTTACCTGTTCTGTGTCAGGATCATGGTTTAACCCCGGATCAGGTGGTTGCTATTGCCTCTAACATTGGCGGTAAGCAGGCACTGGAAACAGTTCAGCGCCTTTTACCAGTGCTGTGCCAGGACCATGGTTTAACTCCTGACCAGGTGGTGGCCATTGCTTCTAACATTGGGGGCAAGCAGGCCCTGGAGACCGTGCAACGCTTACTGCCGGTGTTATGCCAAGACCACGGTTTAACCCCGGATCAGGTGGTAGCGATTGCCTCGCACGATGGTGGTAAACAAGCTCTGGAAACCGTCCAACGTTTACTGCCGGTACTGTGTCAGGATCATGGCCTGACCCCAGATCAAGTAGTTGCTATTGCGAGCAACATTGGTGGTAAACAGGCATTAGAGACCGTTCAGCGCCTGTTACCTGTCCTGTGCCAGGATCACGGTTTAACACCTGACCAAGTTGTCGCGATCGCCAGCAACGGTGGTGGCAAACAGGCGCTGGAAACGGTTCAGCGTTTACTGCCGGTTTTATGCCAAGACCATGGGCTTACACCGGACCAAGTTGTTGCCATCGCGTCAAACAATGGCGGGAAACAGGCTCTTGAAACCGTACAGCGTCTGCTGCCGGTATTATGTCAGGATCACGGGCTGACTCCTGACCAGGTGGTTGCGATTGCGAGCAACGGTGGTGGCAAGCAGGCGCTGGAGACTGTTCAGCGTCTGCTGCCGGTGCTGTGTCAGGATCACGGT'
p60
aS'CTGACGCCGGATCAGGTCGTGGCAATCGCGAGCCACGATGGCGGCAAACAGGCCTTAGAAACTGTGCAACGTTTACTGCCGGTTCTGTGTCAGGATCATGGGTTAACCCCGGACCAGGTGGTAGCTATTGCAAGTCACGATGGTGGTAAACAAGCGCTGGAAACGGTCCAGCGTCTGTTACCAGTACTCTGCCAAGATCATGGCCTGACCCCGGATCAAGTTGTGGCCATTGCGTCTAACGGTGGGGGCAAACAGGCCTTAGAAACTGTCCAGCGTTTACTGCCGGTGTTATGCCAGGATCATGGTCTGACCCCGGATCAGGTTGTCGCGATTGCTTCACACGATGGTGGCAAACAGGCACTGGAAACCGTCCAACGCCTGCTGCCGGTTCTGTGTCAAGACCACGGTCTGACGCCGGATCAGGTCGTGGCCATCGCTTCGAACATTGGCGGTAAACAGGCATTAGAAACGGTCCAGCGTCTGCTGCCAGTCCTTTGCCAGGACCACGGTCTGACACCAGATCAGGTAGTCGCGATCGCGTCTAACGGTGGCGGTAAACAAGCTCTGGAAACCGTACAGCGTCTGTTACCAGTTTTATGCCAAGACCACGGCCTCACTCCAGATCAGGTAGTTGCGATCGCCAGCCACGATGGTGGGAAACAGGCGTTAGAAACCGTTCAACGCTTACTTCCGGTGTTATGTCAGGATCATGGCCTGACCCCGGACCAGGTGGTAGCAATCGCATCGAACATTGGCGGCAAACAAGCGCTGGAAACAGTACAGCGCCTGCTCCCGGTGCTGTGCCAGGACCATGGCCTGACGCCGGATCAGGTTGTGGCAATCGCAAGCAACAATGGTGGTAAGCAAGCCTTAGAAACAGTGCAGCGCCTCTTACCAGTGCTGTGCCAGGATCACGGCTTAACACCGGATCAAGTCGTCGCCATCGCAAGCAACAATGGCGGTAAACAGGCGCTGGAGACCGTGCAGCGCCTGTTACCTGTTCTGTGTCAGGATCATGGTTTAACCCCGGATCAGGTGGTTGCTATCGCCTCTAACATTGGCGGTAAGCAGGCACTGGAAACAGTTCAGCGCCTTTTACCAGTCCTGTGCCAGGACCATGGTTTAACTCCAGACCAGGTGGTGGCCATTGCTTCTAACATTGGGGGCAAGCAGGCCCTGGAGACCGTGCAACGCTTACTGCCGGTGTTATGCCAAGATCACGGTTTAACCCCGGATCAGGTGGTAGCGATTGCCTCGCACGATGGTGGTAAACAAGCACTGGAAACCGTGCAACGTTTACTGCCGGTACTGTGTCAGGATCATGGCCTGACCCCAGATCAAGTAGTTGCTATTGCGAGCAACATTGGCGGTAAACAGGCTTTAGAGACCGTTCAGCGCCTGTTACCTGTCCTGTGCCAGGATCACGGTTTAACACCTGACCAAGTTGTCGCGATCGCCAGCAACGGTGGTGGCAAACAGGCGCTGGAAACGGTTCAACGTTTACTGCCTGTTTTATGCCAAGACCATGGCCTTACACCGGACCAAGTTGTTGCCATCGCGTCAAACAATGGCGGGAAACAGGCTCTTGAAACAGTACAGCGTCTGCTGCCGGTATTATGTCAGGATCACGGGCTGACTCCTGACCAGGTGGTTGCGATTGCGAGCAACGGTGGTGGCAAGCAGGCGCTGGAGACTGTTCAGCGTCTGCTGCCGGTGCTGTGTCAGGATCACGGT'
p61
aS'CTGACGCCGGATCAAGTCGTGGCAATCGCGAGCCACGATGGCGGCAAACAGGCCTTAGAAACTGTGCAGCGTTTACTGCCGGTACTGTGTCAGGATCATGGGTTAACCCCGGACCAGGTGGTAGCTATTGCAAGTCACGATGGTGGTAAACAAGCGCTGGAAACGGTCCAGCGTCTGTTACCAGTACTCTGCCAAGATCATGGCCTGACCCCGGATCAGGTTGTGGCCATTGCGTCTAACGGTGGGGGCAAACAGGCCTTAGAGACTGTGCAGCGTTTACTGCCGGTGTTATGCCAGGATCATGGTCTGACCCCGGATCAGGTTGTCGCGATTGCTTCACACGATGGTGGCAAACAGGCACTGGAAACCGTCCAACGCCTGCTGCCGGTTCTGTGCCAAGACCACGGTCTGACGCCGGATCAAGTCGTGGCAATCGCTTCGAACATTGGGGGTAAACAGGCATTAGAAACGGTCCAGCGTCTGCTGCCGGTCCTTTGCCAGGACCACGGTCTGACACCAGATCAGGTAGTCGCGATCGCGTCAAACGGTGGCGGTAAACAAGCTCTGGAAACAGTACAGCGTCTGTTACCAGTTTTATGCCAAGATCACGGCCTCACTCCAGATCAGGTAGTTGCGATCGCCAGCCACGATGGTGGGAAGCAGGCGTTAGAAACCGTTCAACGCTTACTTCCGGTGTTATGTCAGGATCATGGGCTGACCCCGGACCAGGTGGTAGCAATCGCATCGAACATTGGCGGCAAACAGGCGCTGGAAACAGTACAACGCCTGCTCCCGGTGCTGTGCCAGGACCATGGCCTGACGCCGGATCAGGTTGTGGCAATCGCAAGCAACAATGGTGGTAAACAAGCCTTAGAAACAGTGCAGCGCCTCTTACCAGTGCTGTGCCAGGATCACGGCTTAACACCGGATCAAGTCGTGGCCATTGCAAGCAACAATGGCGGTAAGCAGGCGCTGGAGACCGTGCAGCGCCTGTTACCTGTTCTGTGTCAGGATCATGGTTTAACCCCGGATCAGGTGGTTGCTATTGCCTCTAACATTGGCGGTAAACAGGCGCTGGAAACAGTTCAGCGCCTTTTACCAGTCCTGTGCCAAGACCATGGTTTAACTCCTGACCAGGTGGTGGCCATTGCTTCTAACATTGGGGGCAAGCAGGCCCTGGAGACCGTGCAACGCTTACTGCCGGTGTTATGCCAAGACCACGGTTTAACCCCGGATCAGGTGGTAGCGATTGCCTCGCACGATGGTGGTAAACAAGCTCTGGAAACCGTGCAACGTTTACTGCCGGTACTGTGTCAGGATCATGGCCTGACCCCAGATCAAGTAGTTGCTATTGCGAGCAACATTGGCGGTAAACAGGCATTAGAGACCGTTCAGCGCCTGTTACCTGTCCTGTGCCAGGATCACGGTTTAACACCTGACCAAGTTGTCGCGATCGCCAGCAACGGTGGTGGCAAACAGGCGCTGGAAACGGTTCAACGTTTACTGCCGGTTTTATGCCAAGACCATGGCCTTACACCGGACCAAGTTGTTGCCATCGCGTCAAACAATGGCGGGAAACAGGCTCTTGAAACAGTACAGCGTCTGCTGCCGGTACTCTGTCAGGATCACGGGCTGACTCCTGACCAGGTGGTTGCGATTGCGAGCAACGGTGGTGGCAAGCAGGCGCTGGAGACTGTTCAGCGTCTGCTGCCGGTGCTGTGTCAGGATCACGGT'
p62
aS'CTGACGCCGGATCAGGTCGTGGCAATCGCGAGCCACGATGGCGGCAAACAGGCCTTAGAAACTGTGCAGCGTTTACTGCCGGTTCTGTGTCAGGATCATGGGTTAACCCCGGACCAGGTGGTAGCTATTGCAAGTCACGATGGTGGTAAACAAGCGCTGGAAACGGTCCAGCGTCTGTTACCAGTACTCTGCCAAGATCATGGCCTGACCCCGGATCAGGTTGTGGCCATTGCGTCTAACGGTGGGGGCAAACAGGCCTTAGAAACTGTCCAGCGTTTACTGCCGGTGTTATGCCAGGATCATGGTCTGACCCCGGATCAGGTTGTCGCGATTGCTTCACACGATGGTGGCAAACAGGCACTGGAAACCGTCCAACGCCTGCTGCCGGTTCTGTGTCAAGACCACGGTCTGACGCCGGATCAGGTCGTGGCCATTGCTTCGAACATTGGCGGTAAACAGGCATTAGAGACGGTCCAGCGTCTGCTGCCGGTCCTTTGCCAGGACCACGGGCTGACACCAGATCAGGTAGTCGCGATCGCGTCTAACGGTGGCGGCAAACAAGCTCTGGAAACAGTACAGCGTCTGTTACCAGTTTTATGCCAAGATCACGGCCTCACTCCAGATCAGGTAGTTGCGATCGCCAGCCACGATGGTGGGAAGCAGGCGTTAGAAACCGTTCAGCGCTTACTTCCGGTGTTATGTCAGGATCATGGCCTGACCCCGGACCAGGTCGTAGCAATCGCATCGAACATTGGCGGCAAACAGGCGCTGGAAACAGTACAACGCCTGCTCCCGGTGCTGTGCCAGGACCATGGCCTGACACCGGATCAGGTTGTCGCAATCGCAAGCAACAATGGTGGTAAACAGGCCTTAGAAACAGTGCAGCGCCTCTTACCAGTGCTGTGCCAGGATCACGGCTTAACACCGGATCAAGTCGTGGCCATCGCAAGCAACAATGGCGGTAAACAAGCGCTGGAGACCGTGCAGCGCCTGTTACCTGTTCTGTGTCAGGATCATGGTTTAACCCCGGATCAGGTGGTTGCTATTGCCTCTAACATTGGCGGTAAACAGGCACTGGAAACAGTCCAACGCCTTTTACCAGTCCTGTGCCAGGACCATGGTTTAACTCCTGACCAGGTGGTGGCCATTGCTTCTAACATTGGGGGCAAGCAGGCCCTGGAGACCGTGCAACGCTTACTGCCGGTGTTATGCCAGGACCACGGTTTAACCCCGGATCAGGTGGTAGCGATTGCCTCGCACGATGGTGGTAAACAAGCACTGGAAACCGTGCAACGTTTACTGCCGGTACTGTGTCAGGATCATGGCCTGACCCCAGATCAAGTAGTTGCCATTGCGAGCAACATTGGCGGTAAACAGGCATTAGAGACCGTTCAGCGCCTGTTACCTGTCCTGTGCCAGGATCACGGTTTAACACCTGACCAAGTTGTCGCGATCGCCAGCAACGGTGGTGGCAAACAGGCGCTGGAAACGGTTCAGCGTTTACTGCCGGTTTTATGCCAAGACCATGGCCTTACACCGGACCAAGTTGTTGCCATCGCGTCAAACAATGGCGGGAAACAAGCTCTCGAAACAGTACAGCGTCTGCTGCCGGTATTATGTCAGGATCACGGGCTGACTCCTGACCAGGTGGTTGCGATTGCGAGCAACGGTGGTGGCAAGCAGGCGCTGGAGACTGTTCAGCGTCTGCTGCCGGTGCTGTGTCAGGATCACGGT'
p63
aS'CTGACGCCGGATCAGGTGGTGGCAATCGCGAGCCACGATGGCGGCAAACAGGCCTTAGAAACTGTGCAGCGTTTACTGCCGGTTCTGTGTCAGGATCATGGGTTAACCCCGGACCAGGTGGTAGCTATTGCAAGTCACGATGGTGGTAAACAAGCGCTGGAAACGGTCCAGCGTCTGTTACCAGTACTCTGCCAAGATCATGGCCTGACCCCAGATCAAGTTGTGGCCATTGCGTCTAACGGTGGGGGCAAACAGGCCTTAGAGACTGTGCAGCGTTTACTGCCGGTGTTATGCCAGGATCATGGTCTGACCCCGGATCAGGTTGTCGCGATTGCTTCACACGATGGTGGCAAACAGGCACTGGAAACCGTCCAACGCCTGCTGCCGGTTCTGTGTCAAGACCACGGTCTGACGCCGGATCAGGTCGTGGCCATCGCTTCGAACATTGGGGGTAAACAGGCATTAGAAACGGTCCAGCGTCTGCTGCCGGTCCTTTGCCAGGACCACGGTCTGACCCCAGATCAGGTAGTCGCGATCGCGTCTAACGGTGGCGGTAAGCAAGCTCTGGAAACCGTTCAGCGTCTGTTACCAGTGTTATGCCAAGATCACGGCCTCACTCCAGATCAGGTAGTTGCGATCGCCAGCCACGATGGTGGGAAACAGGCGTTAGAAACCGTTCAACGCTTACTTCCGGTGTTATGTCAGGATCATGGCCTGACCCCGGACCAGGTGGTAGCAATCGCATCGAACATTGGCGGCAAACAAGCGCTGGAAACAGTACAGCGCCTGCTCCCGGTCCTGTGCCAGGACCATGGCCTGACGCCGGATCAGGTTGTGGCAATCGCAAGCAACAATGGTGGTAAGCAAGCCTTAGAAACAGTGCAGCGCCTCTTACCAGTCCTGTGCCAGGATCACGGCTTAACACCGGATCAAGTCGTGGCCATCGCAAGCAACAATGGCGGTAAACAGGCGCTGGAGACCGTGCAACGCCTGTTACCTGTTCTGTGTCAGGATCATGGTTTAACCCCGGATCAGGTCGTTGCTATTGCGTCGAACATTGGCGGTAAACAGGCACTGGAAACAGTTCAGCGCCTTTTACCAGTCCTGTGCCAGGACCATGGTTTAACTCCTGACCAGGTGGTGGCCATTGCTTCTAACATTGGGGGGAAGCAGGCCCTGGAGACCGTGCAACGTTTACTGCCGGTGTTATGCCAAGACCACGGTTTAACCCCGGATCAGGTGGTAGCGATTGCCTCGCACGATGGTGGTAAACAAGCTCTGGAAACCGTGCAACGTTTACTGCCGGTACTGTGTCAGGATCATGGCCTGACCCCAGATCAAGTAGTTGCTATTGCGAGCAACATTGGCGGTAAACAGGCATTAGAGACCGTTCAGCGCCTGTTACCTGTCCTGTGCCAGGATCACGGTTTAACACCTGACCAAGTTGTCGCGATCGCCAGCAACGGTGGTGGCAAACAGGCGCTGGAAACGGTTCAGCGTTTACTGCCGGTTTTATGCCAAGATCATGGCCTTACACCGGACCAAGTTGTTGCCATCGCGTCAAACAATGGCGGGAAACAGGCTCTTGAAACAGTACAGCGTCTGCTGCCGGTATTATGTCAGGATCACGGGCTGACTCCTGACCAGGTGGTTGCGATTGCGAGCAACGGTGGTGGCAAGCAGGCGCTGGAGACTGTTCAGCGTCTGCTGCCGGTGCTGTGTCAGGACCACGGT'
p64
aS'CTGACGCCGGATCAGGTCGTGGCAATCGCGAGCCACGATGGCGGCAAACAGGCCTTAGAGACTGTGCAGCGTTTACTGCCGGTACTGTGTCAGGATCATGGGTTAACCCCGGACCAGGTGGTAGCTATTGCAAGTCACGATGGTGGTAAACAAGCGCTGGAAACGGTCCAGCGTCTGTTACCAGTACTCTGCCAAGATCATGGCCTGACCCCGGATCAAGTCGTGGCCATTGCGTCTAACGGTGGGGGCAAACAGGCCTTAGAAACTGTGCAGCGTTTACTGCCGGTGTTATGCCAGGATCATGGTCTGACCCCGGATCAGGTTGTCGCGATTGCTTCACACGATGGTGGCAAACAGGCCCTGGAGACCGTCCAACGCCTGCTGCCGGTTCTGTGTCAAGACCACGGTCTGACGCCGGATCAGGTCGTGGCCATCGCTTCGAACATTGGCGGTAAACAGGCATTAGAAACGGTCCAGCGTCTGCTGCCAGTCCTTTGCCAGGACCACGGTCTGACACCAGATCAGGTTGTCGCGATCGCGTCTAACGGTGGCGGTAAACAAGCTCTGGAAACCGTACAGCGTCTGTTACCAGTTTTATGCCAAGATCACGGCCTCACGCCAGATCAGGTAGTTGCGATCGCCAGCCACGATGGTGGGAAGCAGGCGTTAGAAACCGTTCAACGCTTACTTCCAGTGTTATGTCAGGATCATGGCCTGACCCCTGACCAGGTGGTAGCAATCGCATCGAACATTGGCGGCAAACAAGCGCTGGAAACAGTACAGCGCCTGCTCCCGGTGCTGTGCCAAGACCATGGCCTGACGCCGGACCAGGTTGTGGCAATCGCAAGCAACAATGGTGGTAAACAAGCCTTAGAAACAGTGCAGCGCCTCTTACCTGTTCTGTGCCAGGATCACGGCTTAACACCGGATCAAGTCGTGGCCATCGCAAGCAACAATGGCGGGAAACAGGCGCTGGAGACCGTGCAGCGCCTGTTACCTGTTCTGTGTCAGGATCATGGTTTAACCCCGGATCAGGTGGTTGCTATTGCCTCGAACATTGGCGGTAAACAGGCACTGGAAACAGTTCAGCGCCTTTTACCAGTCCTGTGCCAGGACCATGGTTTAACTCCTGACCAGGTGGTGGCCATTGCTTCTAACATTGGGGGCAAGCAGGCCCTGGAGACCGTGCAACGCTTACTGCCGGTGTTATGCCAAGACCACGGTTTAACCCCGGATCAGGTGGTAGCGATTGCCTCGCACGATGGTGGTAAACAAGCTCTGGAAACCGTGCAACGTTTACTGCCGGTACTGTGTCAGGATCATGGCCTGACCCCAGATCAAGTAGTTGCTATTGCGAGCAACATTGGCGGTAAACAGGCATTAGAGACCGTTCAGCGCCTGCTGCCTGTCCTGTGCCAGGATCACGGTTTAACACCTGACCAAGTTGTCGCGATCGCCAGCAACGGTGGTGGCAAACAGGCGCTGGAAACGGTTCAGCGTTTACTGCCGGTTTTATGCCAAGACCATGGCCTTACACCGGACCAAGTTGTTGCCATCGCGTCAAACAATGGCGGGAAACAGGCTCTCGAAACAGTACAGCGTCTGCTGCCGGTATTATGTCAGGATCACGGGCTGACTCCTGACCAGGTGGTTGCGATTGCGAGCAACGGTGGTGGCAAGCAGGCGCTGGAGACTGTTCAGCGTCTGCTGCCGGTGCTGTGTCAGGATCACGGT'
p65
aS'CTGACGCCGGATCAGGTCGTGGCAATCGCGAGCCACGATGGCGGCAAACAGGCCTTAGAAACTGTGCAGCGTTTACTGCCGGTTCTGTGTCAGGATCATGGGTTAACCCCGGACCAGGTGGTAGCTATTGCAAGTCACGATGGTGGTAAACAAGCGCTGGAAACGGTCCAGCGTCTGTTACCAGTCCTCTGCCAAGATCATGGCCTGACCCCGGATCAGGTTGTGGCCATTGCGAGCAACGGTGGGGGCAAACAGGCCTTAGAAACTGTGCAGCGTTTACTGCCGGTGTTATGCCAGGATCATGGTCTGACCCCGGATCAGGTTGTCGCGATTGCTTCACACGATGGGGGCAAACAGGCACTGGAAACCGTCCAACGCCTGCTGCCGGTTCTGTGTCAAGACCACGGTCTGACGCCGGATCAGGTCGTGGCCATCGCTTCGAACATTGGCGGTAAACAGGCATTAGAGACGGTCCAGCGTCTGCTGCCGGTCCTTTGCCAGGACCACGGGCTGACACCAGATCAGGTAGTCGCGATCGCGTCTAACGGTGGCGGTAAACAAGCTCTGGAAACCGTACAGCGTCTGTTACCAGTTTTATGCCAAGACCACGGCCTCACTCCAGATCAGGTAGTTGCGATCGCCAGCCACGATGGTGGGAAACAGGCGTTAGAAACCGTTCAACGCTTACTTCCGGTGTTATGTCAGGATCATGGCCTGACCCCGGACCAGGTGGTAGCAATCGCATCGAACATTGGCGGCAAACAAGCGCTGGAAACAGTACAGCGCCTGCTCCCGGTGCTGTGCCAGGACCATGGCCTGACGCCGGATCAGGTTGTGGCAATCGCATCTAACAATGGTGGTAAGCAAGCCTTAGAAACAGTGCAGCGCCTCTTACCAGTCCTGTGCCAGGATCACGGCTTAACACCGGATCAAGTCGTCGCCATCGCAAGCAACAATGGCGGTAAACAGGCGCTGGAGACCGTGCAGCGCCTGTTACCTGTTCTGTGTCAGGATCATGGTTTAACCCCGGATCAGGTGGTTGCTATTGCCTCTAACATTGGCGGTAAACAGGCACTGGAAACAGTTCAGCGCCTTTTACCAGTCCTGTGCCAGGACCATGGTTTAACTCCTGACCAGGTGGTGGCCATTGCTTCTAACATTGGGGGCAAGCAGGCCCTGGAAACCGTGCAACGCTTACTGCCGGTGTTATGCCAAGACCACGGTTTAACCCCGGATCAGGTGGTAGCCATTGCCTCGCACGATGGTGGTAAACAAGCTCTGGAAACCGTGCAACGTTTACTGCCGGTACTGTGTCAGGATCATGGCCTGACCCCAGACCAAGTAGTTGCTATTGCGAGCAACATTGGCGGTAAACAGGCATTAGAGACCGTTCAGCGCCTGTTACCTGTCCTGTGCCAGGATCACGGTTTAACACCTGACCAAGTTGTCGCGATCGCCAGCAACGGTGGTGGCAAACAGGCGCTGGAAACGGTTCAACGTTTACTGCCGGTTTTATGCCAAGACCATGGCCTTACACCGGACCAAGTTGTTGCCATCGCGTCAAACAATGGCGGGAAACAGGCTCTTGAAACAGTACAGCGTCTGCTGCCGGTATTATGTCAGGATCACGGGCTGACTCCTGACCAGGTGGTTGCGATTGCGAGCAACGGTGGTGGCAAACAGGCGCTGGAGACTGTTCAGCGTCTGCTGCCGGTGCTGTGTCAGGACCACGGT'
p66
aS'CTGACGCCGGATCAGGTCGTGGCAATCGCGAGCCACGATGGCGGCAAACAGGCCTTAGAAACTGTGCAGCGTTTACTGCCGGTTCTGTGTCAGGATCATGGGTTAACCCCGGACCAGGTGGTAGCTATTGCAAGTCACGATGGTGGTAAACAAGCGCTGGAAACGGTCCAGCGTCTGTTACCAGTCCTCTGCCAAGATCATGGCCTGACCCCGGATCAGGTTGTGGCCATTGCGAGCAACGGTGGGGGCAAACAGGCCTTAGAAACTGTGCAGCGTTTACTGCCGGTGTTATGCCAGGATCATGGTCTGACCCCGGATCAGGTTGTCGCGATTGCTTCACACGATGGGGGCAAACAGGCACTGGAAACCGTCCAACGCCTGCTGCCGGTTCTGTGTCAAGACCACGGTCTGACGCCGGATCAGGTCGTGGCCATCGCTTCGAACATTGGCGGTAAACAGGCATTAGAGACGGTCCAGCGTCTGCTGCCGGTCCTTTGCCAGGACCACGGGCTGACACCAGATCAGGTAGTCGCGATCGCGTCTAACGGTGGCGGTAAACAAGCTCTGGAAACAGTACAGCGTCTGTTACCAGTTTTATGCCAAGATCACGGCCTCACTCCAGATCAAGTAGTTGCGATCGCCAGCCACGATGGTGGGAAGCAGGCGTTAGAAACCGTTCAACGCTTACTTCCGGTGTTATGTCAGGATCATGGCCTGACCCCAGACCAGGTCGTAGCAATCGCATCGAACATTGGCGGCAAGCAGGCGCTGGAAACAGTACAACGCCTGCTCCCGGTGCTGTGCCAGGACCATGGCCTGACGCCGGATCAGGTTGTGGCAATCGCAAGCAACAATGGTGGTAAACAAGCCTTAGAAACAGTGCAGCGCCTCTTACCAGTGCTGTGCCAGGATCACGGCTTAACACCGGATCAAGTGGTGGCCATCGCAAGTAACAATGGCGGGAAACAGGCGCTGGAGACCGTGCAGCGCCTGTTACCTGTTCTGTGTCAGGATCATGGTTTAACCCCGGATCAGGTGGTTGCTATTGCCTCTAACATTGGCGGTAAACAGGCACTGGAAACAGTTCAGCGCCTTTTACCAGTCCTGTGCCAGGACCATGGTTTAACTCCTGACCAGGTGGTGGCCATTGCTTCTAACATTGGGGGCAAGCAGGCCCTGGAGACCGTGCAACGCTTACTGCCGGTGTTATGCCAGGACCACGGTTTAACCCCGGATCAGGTGGTAGCGATTGCCTCGCACGATGGTGGTAAACAAGCTCTGGAAACCGTGCAACGTTTACTGCCGGTACTGTGTCAGGATCATGGCCTGACCCCAGATCAAGTAGTTGCTATTGCGAGCAACATTGGCGGTAAACAGGCATTAGAGACCGTTCAACGCCTGTTACCTGTCCTGTGCCAGGATCACGGGTTAACACCTGACCAAGTTGTCGCGATCGCCAGCAACGGTGGTGGCAAACAGGCGCTGGAAACGGTTCAGCGTTTACTGCCGGTTTTATGCCAAGACCATGGCCTTACACCGGACCAAGTTGTTGCCATCGCGTCAAACAATGGCGGGAAGCAGGCTCTTGAAACAGTACAGCGTCTGCTGCCGGTATTATGTCAGGACCACGGGCTGACTCCTGACCAGGTGGTTGCGATTGCGAGCAACGGTGGTGGCAAGCAGGCGCTGGAGACAGTTCAGCGTCTGCTGCCGGTGCTGTGTCAGGACCACGGT'
p67
aS'CTGACGCCGGATCAAGTCGTGGCAATCGCGAGCCACGATGGCGGCAAACAGGCCTTAGAAACTGTGCAGCGTTTACTGCCGGTTCTGTGTCAAGATCATGGGTTAACCCCTGACCAGGTGGTGGCTATTGCCAGTCACGATGGTGGTAAACAAGCGCTGGAAACGGTCCAGCGTCTGTTACCAGTACTCTGCCAAGATCATGGCCTGACCCCGGATCAGGTTGTGGCCATTGCGTCTAACGGTGGGGGCAAACAGGCCTTAGAAACTGTGCAGCGTTTACTGCCGGTGTTATGCCAGGATCATGGTCTGACCCCGGATCAGGTTGTCGCGATTGCTTCACACGATGGCGGCAAACAGGCACTGGAAACCGTCCAACGCCTGCTGCCGGTTCTGTGTCAAGACCACGGTCTGACCCCGGATCAGGTCGTGGCCATCGCTTCTAACATTGGCGGTAAACAGGCATTAGAAACGGTCCAGCGTCTGCTGCCTGTCCTTTGCCAGGACCATGGTCTGACACCAGATCAAGTAGTCGCGATCGCGTCAAACGGTGGCGGTAAGCAAGCTCTGGAAACCGTACAGCGTCTGTTACCAGTTTTATGCCAAGATCACGGCCTGACTCCAGATCAGGTAGTTGCGATTGCCAGCCACGATGGTGGGAAGCAGGCGTTAGAAACCGTTCAACGCTTACTTCCGGTGTTATGTCAGGATCACGGCCTGACCCCGGACCAGGTAGTAGCAATCGCATCGAACATTGGCGGCAAACAAGCGCTGGAAACAGTACAGCGCCTGCTCCCGGTGCTGTGCCAGGACCATGGCCTGACGCCGGATCAGGTTGTGGCAATCGCAAGCAACAATGGTGGTAAACAAGCCTTAGAAACAGTGCAGCGCCTCTTACCAGTGCTGTGCCAGGATCACGGCTTAACACCGGATCAAGTCGTGGCCATCGCAAGCAACAATGGCGGGAAACAGGCGCTGGAGACCGTGCAACGCCTGTTACCTGTTCTGTGTCAGGATCATGGTTTAACCCCGGATCAGGTGGTTGCTATTGCCTCTAACATTGGCGGTAAACAGGCACTGGAAACAGTTCAGCGCCTTTTACCAGTCCTGTGCCAGGACCATGGTTTAACTCCTGACCAGGTGGTGGCCATTGCTTCTAACATTGGGGGCAAGCAGGCCCTGGAGACCGTGCAACGCTTACTGCCGGTGTTATGCCAAGACCACGGTTTAACCCCGGATCAGGTGGTAGCGATTGCCTCGCACGATGGTGGTAAACAAGCTCTGGAAACCGTGCAACGTTTACTGCCGGTACTGTGTCAGGATCATGGCCTGACCCCAGATCAAGTAGTTGCTATTGCGAGCAACATTGGCGGTAAGCAGGCATTAGAGACCGTTCAGCGCCTGTTACCTGTCTTATGCCAGGATCACGGTTTAACACCTGACCAGGTTGTCGCGATCGCCAGCAACGGTGGTGGCAAACAGGCGCTGGAAACTGTTCAGCGTTTACTGCCGGTTTTATGCCAAGACCATGGCCTTACACCGGACCAAGTTGTTGCCATCGCGTCAAACAATGGCGGGAAACAGGCTCTCGAAACAGTACAGCGTCTGCTGCCGGTATTATGTCAGGATCACGGGCTGACTCCTGACCAGGTGGTTGCGATTGCGAGCAACGGTGGTGGCAAGCAGGCGCTGGAGACAGTTCAGCGTCTGCTGCCGGTGCTGTGTCAGGACCACGGT'
p68
aS'CTGACGCCGGATCAGGTCGTGGCAATCGCGAGCCACGATGGCGGCAAACAGGCCTTAGAGACTGTGCAGCGTTTACTGCCGGTTCTGTGTCAGGATCACGGGTTAACCCCGGACCAGGTGGTAGCTATTGCTAGTCACGATGGTGGTAAACAAGCGCTGGAAACGGTCCAGCGTCTGTTACCAGTACTCTGCCAAGATCATGGCCTGACGCCGGATCAGGTCGTGGCCATTGCGTCTAACGGTGGGGGCAAACAGGCCTTAGAAACTGTGCAGCGTTTACTGCCGGTGTTATGCCAGGATCATGGTCTGACCCCGGATCAGGTTGTCGCGATTGCTTCACACGATGGTGGCAAACAGGCACTGGAAACCGTCCAACGCCTGCTGCCGGTTCTGTGCCAAGACCACGGTCTGACGCCGGATCAGGTCGTGGCAATCGCTTCGAACATTGGGGGTAAACAGGCATTAGAAACGGTCCAGCGTCTGCTGCCGGTCCTTTGCCAGGACCACGGTCTGACACCAGATCAGGTAGTCGCGATCGCGTCTAACGGTGGCGGTAAGCAAGCTCTGGAAACCGTACAGCGTCTGTTACCAGTTTTATGCCAAGATCACGGCCTCACTCCAGATCAGGTAGTTGCGATCGCCAGCCACGATGGTGGGAAGCAGGCGTTAGAAACCGTTCAACGCTTACTTCCGGTGTTATGTCAGGATCATGGCCTGACCCCGGACCAGGTAGTAGCAATCGCATCGAACATTGGCGGCAAACAAGCGCTGGAAACAGTACAGCGCCTGCTCCCGGTGCTGTGCCAGGACCATGGCCTGACGCCGGATCAGGTTGTGGCAATCGCAAGCAACAATGGTGGTAAGCAAGCCTTAGAAACAGTGCAGCGCCTCTTACCAGTGCTGTGCCAGGATCACGGCTTAACACCGGATCAAGTCGTGGCCATCGCAAGCAACAATGGCGGGAAACAGGCGCTGGAGACCGTGCAGCGCCTGTTACCTGTTCTGTGTCAGGATCATGGTTTAACCCCGGATCAGGTGGTTGCTATTGCCTCGAACATTGGCGGTAAACAGGCACTGGAAACAGTTCAGCGCCTTTTACCAGTCCTGTGCCAGGACCATGGTTTAACTCCTGACCAGGTGGTGGCCATTGCTTCTAACATTGGGGGCAAGCAGGCCCTGGAGACCGTGCAACGCTTACTGCCGGTGTTATGCCAAGACCACGGTTTAACCCCGGATCAGGTGGTAGCGATTGCCTCGCACGATGGTGGTAAACAAGCTCTGGAAACCGTGCAACGTTTACTGCCGGTACTGTGTCAGGATCATGGCCTGACCCCAGACCAAGTAGTTGCTATTGCGAGCAACATTGGCGGTAAACAGGCATTAGAGACCGTTCAGCGCCTGTTACCTGTCCTGTGCCAGGACCACGGTTTAACACCTGACCAAGTTGTCGCGATCGCCAGCAACGGTGGTGGCAAACAGGCGCTGGAAACGGTTCAGCGTTTACTGCCGGTTTTATGCCAAGACCATGGCCTTACACCGGACCAAGTTGTTGCCATCGCGTCAAACAATGGCGGGAAACAGGCTCTCGAAACAGTACAGCGTCTGCTGCCGGTATTATGTCAGGATCACGGGCTGACTCCTGACCAGGTGGTTGCGATTGCGAGCAACGGTGGTGGCAAGCAGGCGCTGGAGACAGTTCAGCGTCTGCTGCCGGTGCTGTGTCAGGACCACGGT'
p69
aS'CTGACGCCGGATCAGGTCGTGGCAATCGCGAGCCACGATGGCGGCAAACAGGCCTTAGAGACTGTGCAGCGTTTACTGCCAGTTCTGTGTCAAGATCATGGGTTAACCCCGGACCAGGTGGTAGCTATTGCAAGTCACGATGGTGGTAAACAAGCGCTCGAAACGGTCCAGCGTCTGTTACCAGTACTCTGCCAAGATCATGGCCTGACCCCGGATCAAGTTGTGGCCATTGCGTCTAACGGTGGGGGCAAACAGGCCTTAGAAACTGTGCAGCGTTTACTGCCGGTGTTATGCCAGGATCATGGTCTGACCCCGGATCAGGTTGTCGCGATTGCTTCACACGATGGTGGCAAACAGGCACTGGAAACCGTCCAACGCCTGCTGCCGGTTCTGTGTCAAGACCACGGTCTGACCCCGGATCAGGTCGTGGCCATCGCTTCTAACATTGGCGGTAAACAGGCATTAGAAACGGTCCAGCGTCTGCTGCCTGTCCTTTGCCAGGACCATGGTCTGACACCAGATCAAGTAGTCGCGATCGCGTCAAACGGTGGCGGTAAGCAAGCTCTGGAAACCGTACAGCGTCTGTTACCAGTTTTATGCCAAGATCACGGCCTGACTCCAGATCAGGTAGTTGCGATTGCCAGCCACGATGGTGGGAAGCAGGCGTTAGAAACCGTTCAACGCTTACTTCCGGTGTTATGTCAGGATCATGGCCTGACCCCGGACCAGGTAGTAGCAATCGCATCGAACATTGGCGGCAAACAAGCGCTGGAAACAGTACAGCGCCTGCTCCCGGTGCTGTGCCAGGACCATGGCCTGACGCCGGATCAGGTTGTGGCAATCGCAAGCAACAATGGTGGTAAACAAGCCTTAGAAACAGTGCAGCGCCTCTTACCAGTGCTGTGCCAGGATCACGGCTTAACACCGGATCAAGTCGTGGCCATCGCAAGCAACAATGGCGGGAAACAGGCGCTGGAGACCGTGCAACGCCTGTTACCTGTTCTGTGTCAGGATCATGGTTTAACCCCGGATCAGGTGGTTGCTATTGCCTCGAACATTGGCGGTAAACAGGCACTGGAAACAGTTCAGCGCCTTTTACCAGTCCTGTGCCAGGACCATGGTTTAACTCCTGACCAGGTGGTGGCCATTGCTTCTAACATTGGGGGGAAGCAGGCCCTGGAGACCGTGCAACGCTTACTGCCGGTGTTATGCCAAGACCACGGTTTAACCCCGGATCAGGTGGTAGCGATTGCCTCGCACGATGGTGGTAAACAAGCTCTGGAAACCGTGCAACGTTTACTGCCGGTACTGTGTCAGGATCATGGCCTGACCCCAGATCAAGTAGTTGCTATTGCGAGCAACATTGGCGGTAAACAGGCATTAGAGACCGTTCAGCGCCTGTTACCTGTCCTGTGCCAGGATCACGGTTTAACACCTGACCAAGTTGTCGCGATCGCCAGCAACGGTGGTGGCAAACAGGCGCTGGAAACGGTTCAGCGTTTACTGCCGGTTTTATGCCAAGACCATGGCCTTACACCGGACCAAGTTGTTGCCATCGCGTCAAACAATGGCGGGAAACAGGCTCTCGAAACAGTACAGCGTCTGCTGCCGGTATTATGTCAGGATCACGGGCTGACTCCTGACCAGGTGGTTGCGATTGCGAGCAACGGTGGTGGCAAGCAGGCGCTGGAGACAGTTCAGCGTCTGCTGCCGGTGCTGTGTCAGGACCACGGT'
p70
aS'CTGACGCCGGATCAGGTCGTGGCAATCGCGAGCCACGATGGCGGCAAACAGGCCTTAGAGACTGTGCAGCGTTTACTGCCGGTTCTGTGTCAGGATCATGGGTTAACCCCGGACCAGGTGGTAGCTATTGCAAGTCACGATGGTGGTAAACAAGCGCTGGAAACGGTCCAGCGTCTGTTACCAGTACTCTGCCAAGATCATGGCCTGACCCCGGATCAAGTCGTGGCCATTGCGTCTAACGGTGGGGGCAAACAGGCCTTAGAAACTGTGCAGCGTTTACTGCCGGTGTTATGCCAGGATCATGGTCTGACCCCGGATCAGGTTGTCGCGATTGCTTCACACGATGGGGGCAAACAGGCACTGGAAACCGTCCAACGCCTGCTGCCGGTTCTGTGTCAAGACCACGGTCTGACGCCGGATCAGGTCGTGGCCATCGCTTCGAACATTGGCGGTAAACAGGCGTTAGAGACGGTCCAGCGTCTGCTGCCGGTCCTTTGCCAGGACCACGGGCTGACACCAGATCAGGTAGTCGCGATCGCGTCTAACGGTGGCGGTAAACAAGCTCTGGAAACCGTACAGCGTCTGTTACCAGTTTTATGCCAAGACCACGGCCTCACTCCAGATCAGGTAGTTGCGATCGCCAGCCACGATGGTGGGAAACAGGCGTTAGAAACCGTTCAACGCTTACTTCCGGTGTTATGTCAGGATCATGGCCTGACCCCGGACCAGGTGGTAGCAATCGCATCGAACATTGGCGGCAAACAAGCGCTGGAAACAGTACAGCGCCTGCTCCCGGTGCTGTGCCAGGACCATGGCCTGACGCCGGATCAGGTTGTGGCAATCGCATCTAACAATGGTGGTAAGCAAGCCTTAGAAACAGTGCAGCGCCTCTTACCAGTGCTGTGCCAGGATCACGGCTTAACACCGGATCAAGTCGTCGCCATCGCAAGCAACAATGGCGGTAAACAGGCGCTGGAGACCGTGCAGCGCCTGTTACCTGTTCTGTGTCAGGATCATGGTTTAACCCCGGATCAGGTGGTTGCTATTGCCTCTAACATTGGCGGTAAACAGGCACTGGAAACAGTTCAGCGCCTTTTACCAGTCCTGTGCCAGGACCATGGTTTAACTCCTGACCAGGTGGTGGCCATTGCTTCTAACATTGGGGGCAAGCAGGCCCTGGAAACCGTGCAACGCTTACTGCCGGTGTTATGCCAAGACCACGGTTTAACCCCGGATCAGGTGGTAGCGATTGCCTCGCACGATGGTGGTAAACAAGCTCTGGAAACCGTGCAACGTTTACTGCCGGTACTGTGTCAGGATCATGGCCTGACCCCAGACCAAGTAGTTGCTATTGCGAGCAACATTGGCGGTAAACAGGCATTAGAGACCGTTCAGCGCCTGTTACCTGTCCTGTGCCAGGATCACGGTTTAACACCTGACCAAGTTGTCGCGATCGCCAGCAACGGTGGTGGCAAACAGGCGCTGGAAACGGTTCAACGTTTACTGCCGGTTTTATGCCAAGACCATGGCCTTACACCGGACCAAGTTGTTGCCATCGCGAGCAACAATGGCGGGAAACAGGCTCTTGAAACAGTACAGCGTCTGCTGCCGGTATTATGTCAGGATCACGGGCTGACTCCTGACCAGGTGGTTGCGATTGCGAGCAACGGTGGTGGCAAGCAGGCGCTGGAGACTGTTCAGCGTCTGCTGCCGGTGCTGTGTCAGGATCACGGT'
p71
aS'CTGACGCCGGATCAGGTCGTGGCAATCGCGAGCCACGATGGCGGCAAACAAGCCTTAGAAACTGTGCAGCGTTTACTGCCGGTTCTGTGTCAGGATCATGGGTTAACCCCGGACCAGGTGGTAGCTATTGCAAGTCACGATGGTGGTAAACAAGCGCTGGAAACGGTCCAGCGTCTGTTACCAGTCCTCTGCCAAGATCATGGCCTGACCCCGGATCAGGTTGTGGCCATTGCGTCAAACGGTGGGGGCAAACAGGCCTTAGAAACTGTGCAACGTTTACTGCCGGTGTTATGCCAGGATCATGGTCTGACCCCGGATCAGGTTGTCGCGATTGCTTCACACGATGGTGGCAAACAGGCACTGGAAACCGTCCAACGCCTGCTGCCGGTTCTGTGTCAAGACCACGGTCTGACGCCGGATCAGGTCGTGGCCATCGCTTCGAACATTGGCGGTAAACAGGCATTAGAAACGGTCCAGCGTCTGCTGCCGGTCCTTTGCCAGGACCACGGTCTGACACCAGATCAGGTAGTCGCGATCGCGTCTAACGGTGGCGGTAAGCAAGCTCTGGAAACCGTACAGCGTCTGTTACCAGTGTTATGCCAAGATCACGGCCTCACTCCAGACCAGGTAGTTGCGATCGCCAGCCACGATGGTGGGAAGCAGGCGTTAGAAACCGTTCAACGCTTACTTCCGGTGTTATGTCAGGATCATGGCCTGACCCCTGACCAGGTGGTAGCAATCGCATCGAACATTGGCGGCAAACAAGCGCTGGAAACAGTACAGCGCCTGCTCCCGGTGCTGTGCCAAGACCATGGCCTGACGCCGGATCAGGTTGTCGCAATCGCAAGCAACAATGGTGGTAAACAAGCCTTAGAAACAGTGCAGCGCCTCTTACCTGTTCTGTGCCAGGATCATGGCTTAACACCGGATCAAGTCGTGGCCATCGCAAGCAACAATGGCGGGAAACAGGCGCTGGAGACCGTGCAGCGCCTGTTACCTGTTCTGTGTCAGGATCATGGTTTAACCCCGGATCAGGTGGTTGCTATTGCCTCTAACATTGGCGGTAAGCAGGCACTGGAAACAGTTCAGCGCCTTTTACCAGTCCTGTGCCAGGACCATGGTTTAACTCCTGACCAGGTGGTGGCCATTGCTTCTAACATTGGGGGCAAGCAGGCCCTGGAGACCGTGCAACGCTTACTGCCGGTGTTATGCCAAGACCACGGTTTAACCCCGGATCAGGTGGTAGCGATTGCCTCGCACGATGGTGGTAAACAAGCTCTGGAAACCGTGCAACGTTTACTGCCGGTACTGTGTCAGGATCATGGCCTGACCCCAGATCAGGTAGTTGCTATTGCGAGCAACATTGGCGGTAAACAGGCATTAGAGACCGTTCAGCGCCTGTTACCTGTCCTGTGCCAGGATCACGGTTTAACACCTGACCAAGTTGTCGCGATCGCCAGCAACGGTGGTGGCAAACAGGCGCTGGAAACGGTTCAGCGTTTACTGCCGGTTTTATGCCAAGACCATGGCCTTACACCGGACCAAGTTGTTGCCATCGCGTCAAACAATGGCGGGAAACAGGCTCTCGAAACAGTACAGCGTCTGCTGCCGGTATTATGTCAGGATCACGGGCTGACTCCTGACCAGGTGGTCGCGATTGCGAGCAACGGTGGTGGCAAGCAGGCGCTGGAGACTGTTCAGCGTCTGCTGCCGGTGCTGTGTCAGGATCACGGT'
p72
aS'CTGACGCCGGACCAGGTCGTGGCAATCGCGAGCCACGATGGCGGCAAACAGGCCTTAGAGACTGTGCAGCGTTTACTGCCGGTTCTGTGTCAGGATCACGGGTTAACCCCGGACCAGGTGGTAGCTATTGCAAGTCACGATGGTGGTAAACAAGCGCTGGAAACGGTCCAGCGTCTGTTACCAGTACTCTGCCAAGATCATGGCCTGACCCCGGATCAGGTTGTGGCCATTGCGTCTAACGGTGGGGGCAAACAGGCCTTAGAAACTGTGCAGCGTTTACTGCCGGTGTTATGCCAGGATCATGGTCTGACCCCGGATCAGGTTGTCGCGATTGCTTCACACGATGGTGGCAAACAGGCACTGGAAACCGTCCAACGCCTGCTGCCGGTTCTGTGTCAAGACCACGGTCTGACCCCGGATCAGGTCGTGGCCATCGCTTCTAACATTGGCGGTAAACAGGCATTAGAAACGGTCCAGCGTCTGCTGCCTGTCCTTTGCCAGGACCATGGTCTGACACCAGATCAAGTAGTCGCGATCGCGTCAAACGGTGGCGGTAAGCAAGCTCTTGAAACCGTACAGCGTCTGTTACCAGTTTTATGCCAAGATCACGGCCTCACTCCAGATCAGGTAGTTGCGATTGCCAGCCACGATGGTGGGAAGCAGGCGTTAGAAACCGTTCAACGCTTACTTCCGGTGTTATGTCAGGATCATGGCCTGACCCCGGACCAGGTAGTAGCAATCGCATCGAACATTGGCGGCAAACAAGCGCTGGAAACAGTACAGCGCCTGCTCCCGGTGCTGTGCCAGGACCATGGCCTGACGCCGGATCAGGTTGTGGCAATCGCAAGCAACAATGGTGGTAAGCAAGCCTTAGAAACAGTGCAGCGCCTCTTACCAGTGCTGTGCCAGGATCACGGCTTAACACCGGATCAAGTCGTGGCCATCGCAAGCAACAATGGCGGGAAACAGGCGCTGGAGACCGTGCAGCGCCTGTTACCTGTTCTGTGTCAGGATCATGGTTTAACCCCGGATCAGGTGGTTGCTATTGCCTCGAACATTGGCGGTAAACAGGCACTGGAAACAGTTCAGCGCCTTTTACCAGTCCTGTGCCAAGACCATGGTTTAACTCCTGACCAGGTGGTGGCCATTGCTTCTAACATTGGGGGCAAGCAGGCCCTGGAGACCGTGCAACGCTTACTGCCGGTGTTGTGCCAAGACCACGGTTTAACCCCGGATCAGGTGGTAGCGATTGCCTCGCACGATGGTGGTAAACAAGCTCTGGAAACCGTGCAACGTTTACTTCCGGTACTGTGTCAGGATCATGGCCTGACCCCAGATCAAGTAGTTGCTATTGCGAGCAACATTGGCGGTAAACAGGCATTAGAGACCGTTCAGCGCCTGTTACCTGTCCTGTGCCAGGATCACGGTTTAACACCTGACCAAGTTGTCGCGATCGCCAGCAACGGTGGTGGCAAACAGGCGCTGGAAACGGTTCAGCGTTTACTGCCGGTTTTATGCCAAGACCATGGCCTTACACCGGACCAAGTTGTTGCCATCGCGTCAAACAATGGCGGGAAACAGGCTCTCGAAACAGTACAGCGTCTGCTGCCGGTATTATGTCAGGATCACGGGCTGACTCCTGACCAGGTGGTTGCGATTGCGAGCAACGGTGGTGGCAAGCAGGCGCTGGAGACAGTTCAGCGTCTGCTGCCGGTGCTGTGTCAGGACCACGGT'
p73
aS'CTGACGCCGGATCAGGTCGTGGCAATCGCGAGCCACGATGGCGGCAAACAGGCCTTAGAAACTGTGCAGCGTTTACTGCCGGTCCTGTGTCAGGATCATGGGTTAACCCCGGACCAGGTGGTAGCTATTGCAAGTCACGATGGTGGTAAACAAGCGCTGGAAACGGTCCAGCGTCTGTTACCAGTACTCTGCCAAGATCATGGCCTGACCCCGGATCAAGTTGTGGCCATTGCGTCTAACGGTGGGGGCAAACAGGCCTTAGAAACTGTGCAGCGTTTACTGCCGGTGTTATGCCAGGATCATGGTCTGACCCCGGATCAGGTTGTCGCGATTGCTTCACACGATGGGGGCAAACAGGCACTGGAGACCGTCCAACGCCTGCTGCCGGTTCTGTGTCAAGACCACGGTCTGACGCCGGATCAGGTCGTGGCCATCGCTTCGAACATTGGCGGTAAACAGGCATTAGAAACGGTCCAGCGTCTGCTGCCGGTCCTTTGCCAGGACCACGGGCTGACACCAGATCAGGTAGTCGCGATCGCGTCTAACGGTGGCGGTAAACAAGCTCTGGAAACAGTACAGCGTCTGTTACCAGTTTTATGCCAAGATCACGGCCTCACTCCAGATCAGGTAGTTGCGATCGCCAGCCACGATGGTGGGAAGCAGGCGTTAGAAACCGTTCAACGCTTACTTCCGGTGTTATGTCAGGATCATGGCCTGACCCCTGACCAGGTGGTAGCAATCGCATCGAACATTGGCGGCAAACAAGCGCTGGAAACAGTACAGCGCCTGCTCCCGGTGCTGTGCCAGGACCATGGCCTGACGCCGGATCAGGTTGTGGCAATCGCAAGCAACAATGGTGGTAAGCAAGCCTTAGAAACAGTGCAGCGCCTCTTACCAGTGCTGTGCCAGGATCACGGCTTAACACCGGATCAAGTCGTGGCCATCGCAAGCAACAATGGCGGGAAACAGGCGCTGGAGACCGTGCAGCGCCTGTTACCTGTTCTGTGTCAGGATCATGGTTTAACCCCGGATCAGGTGGTTGCTATTGCCTCGAACATTGGCGGTAAACAGGCACTGGAAACAGTTCAGCGCCTTTTACCAGTCCTGTGCCAGGACCATGGTTTAACTCCTGACCAGGTGGTGGCCATTGCTTCTAACATTGGGGGCAAGCAGGCCCTGGAGACCGTGCAACGCTTACTGCCGGTGTTATGCCAAGACCACGGTTTAACCCCGGATCAGGTGGTAGCGATTGCCTCGCACGATGGTGGTAAACAAGCTCTGGAAACCGTGCAACGTTTACTGCCGGTACTGTGTCAGGATCATGGCCTGACCCCAGATCAAGTAGTGGCTATTGCGAGCAACATTGGCGGTAAACAGGCATTAGAGACCGTTCAGCGCCTGTTACCTGTCCTGTGCCAGGATCACGGTTTAACACCTGACCAGGTTGTCGCGATTGCCAGCAACGGTGGTGGCAAACAGGCGCTGGAAACGGTTCAGCGTTTACTGCCGGTTTTATGCCAAGATCATGGCCTTACACCGGACCAAGTTGTTGCCATCGCGTCAAACAATGGCGGGAAACAGGCTCTTGAAACAGTACAGCGTCTGCTGCCGGTATTATGTCAGGATCACGGGCTGACTCCTGACCAGGTGGTTGCGATTGCGAGCAACGGTGGTGGCAAGCAGGCGCTGGAGACTGTTCAGCGTCTGCTGCCGGTGCTGTGTCAGGACCACGGT'
p74
aS'CTGACGCCGGATCAGGTCGTGGCAATCGCGAGCCACGATGGCGGCAAACAAGCCTTAGAAACTGTGCAGCGTTTACTGCCGGTTCTGTGTCAGGATCATGGGTTAACGCCGGACCAGGTGGTAGCTATTGCAAGTCACGATGGTGGTAAACAAGCGCTGGAAACGGTCCAGCGTCTGTTACCAGTCCTCTGCCAAGATCATGGCCTGACCCCGGATCAGGTTGTGGCCATTGCGTCAAACGGTGGGGGCAAACAGGCCTTAGAAACTGTGCAGCGTTTACTTCCGGTGTTATGCCAGGATCATGGTCTGACCCCGGATCAGGTTGTCGCGATTGCTTCACACGATGGTGGCAAACAGGCACTGGAAACCGTCCAACGCCTGCTGCCGGTTCTGTGTCAAGACCACGGTCTGACGCCGGATCAGGTCGTGGCCATCGCTTCGAACATTGGCGGTAAACAGGCATTAGAGACGGTACAGCGTCTGCTGCCGGTCCTTTGCCAGGACCACGGGCTGACACCAGATCAGGTAGTCGCGATCGCGTCTAACGGTGGCGGCAAACAAGCTCTGGAAACAGTACAGCGTCTGTTACCAGTTTTATGCCAAGATCACGGCCTCACTCCAGATCAGGTAGTTGCGATCGCCAGCCACGATGGTGGGAAGCAGGCGTTAGAAACCGTTCAGCGCTTACTTCCGGTGTTATGTCAGGATCATGGCCTGACCCCGGACCAGGTCGTAGCAATCGCATCGAACATTGGCGGCAAACAGGCGCTGGAAACAGTACAACGCCTGCTCCCGGTGCTGTGCCAGGACCATGGCCTGACACCGGATCAGGTTGTCGCAATCGCAAGCAACAATGGTGGTAAACAGGCCTTAGAAACAGTGCAGCGCCTCTTACCAGTGCTGTGCCAGGATCACGGCTTAACACCGGATCAAGTCGTGGCCATCGCAAGCAACAATGGCGGTAAACAAGCGCTGGAGACCGTGCAGCGCCTGTTACCTGTTCTGTGTCAGGATCATGGTTTAACCCCGGATCAGGTGGTTGCTATTGCCTCTAACATTGGCGGTAAACAGGCACTGGAAACAGTCCAACGCCTTTTACCAGTCCTGTGCCAGGACCATGGTTTAACTCCTGACCAGGTGGTGGCCATTGCTTCTAACATTGGGGGCAAGCAGGCCCTGGAGACCGTGCAACGCTTACTGCCGGTGTTATGCCAGGACCACGGTTTAACCCCGGATCAGGTGGTAGCGATTGCCTCGCACGATGGTGGTAAACAAGCACTGGAAACCGTGCAACGTTTACTGCCGGTACTGTGTCAGGATCATGGCCTGACCCCAGATCAAGTAGTTGCTATTGCGAGCAACATTGGCGGTAAACAGGCATTAGAGACCGTTCAGCGCCTGTTACCTGTCCTGTGCCAGGATCACGGTTTAACACCTGACCAAGTTGTCGCGATCGCCAGCAACGGTGGTGGCAAACAGGCGCTGGAAACGGTTCAGCGTTTACTGCCGGTTTTATGCCAAGACCATGGCCTTACACCGGACCAAGTTGTTGCCATCGCGTCAAACAATGGCGGGAAACAGGCTCTCGAAACAGTACAGCGTCTGCTGCCGGTATTATGTCAGGATCATGGGCTGACTCCTGACCAGGTGGTTGCGATTGCGAGCAACGGTGGTGGCAAGCAGGCGCTGGAGACTGTTCAGCGTCTGCTGCCGGTGCTGTGTCAGGATCACGGT'
p75
aS'CTGACGCCGGATCAGGTCGTGGCAATCGCGAGCCACGATGGCGGCAAACAGGCCTTAGAAACTGTGCAGCGTTTACTGCCGGTTCTGTGTCAGGATCATGGGTTAACCCCGGACCAGGTGGTAGCTATTGCAAGTCACGATGGTGGTAAACAAGCGCTGGAAACGGTCCAGCGTCTGTTACCAGTACTCTGCCAAGATCATGGCCTGACCCCAGATCAAGTTGTGGCCATTGCGTCTAACGGTGGGGGCAAACAGGCCTTAGAGACTGTGCAGCGTTTACTGCCGGTGTTATGCCAGGATCATGGTCTGACCCCGGATCAGGTTGTCGCGATTGCTTCACACGATGGTGGCAAACAGGCACTGGAAACCGTCCAACGCCTGCTGCCGGTTCTGTGTCAAGACCACGGTCTGACGCCGGATCAGGTCGTGGCCATCGCTTCGAACATTGGGGGTAAACAGGCATTAGAAACGGTCCAGCGTCTGCTGCCGGTCCTTTGCCAGGACCACGGTCTGACACCAGATCAGGTAGTCGCGATCGCGTCTAACGGTGGCGGTAAGCAAGCTCTGGAAACCGTTCAGCGTCTGTTACCAGTGTTATGCCAAGATCACGGCCTCACTCCAGATCAGGTAGTTGCGATCGCCAGCCACGATGGTGGGAAGCAGGCGTTAGAAACAGTTCAACGCTTACTTCCAGTGTTATGTCAGGATCATGGCCTGACCCCTGACCAGGTGGTAGCAATCGCATCGAACATTGGCGGCAAACAAGCGCTGGAAACAGTACAGCGCCTGCTCCCGGTGCTGTGCCAAGACCATGGCCTGACGCCGGATCAGGTTGTGGCAATCGCAAGCAACAATGGTGGTAAACAAGCCTTAGAAACAGTGCAGCGCCTCTTACCTGTTCTGTGCCAGGATCACGGCTTAACACCGGATCAAGTCGTGGCCATCGCAAGCAACAATGGCGGGAAACAGGCGCTGGAGACCGTGCAGCGCCTGTTACCTGTTCTGTGTCAGGATCATGGTTTAACCCCGGATCAGGTGGTTGCTATTGCCTCTAACATTGGCGGTAAACAGGCACTGGAAACAGTTCAACGCCTTTTACCAGTCCTGTGCCAAGACCATGGTCTGACTCCTGACCAGGTGGTGGCCATTGCTTCTAACATTGGGGGCAAGCAGGCCCTGGAGACCGTGCAACGCTTACTGCCGGTGTTATGCCAAGACCACGGTTTAACCCCGGATCAGGTGGTAGCGATTGCCTCGCACGATGGTGGTAAACAGGCTCTGGAAACCGTCCAACGTTTACTGCCGGTACTGTGTCAGGATCATGGCCTGACCCCAGATCAAGTAGTTGCTATTGCGAGCAACATTGGCGGTAAACAGGCATTAGAAACCGTTCAGCGCCTGTTACCTGTCCTGTGTCAGGATCACGGTTTAACACCTGACCAAGTTGTCGCGATCGCCAGCAACGGTGGTGGCAAACAGGCGCTGGAAACGGTTCAGCGTTTACTGCCGGTTTTATGCCAGGATCACGGCCTTACACCGGACCAAGTTGTTGCCATCGCGTCAAACAATGGCGGGAAACAGGCTCTCGAAACAGTACAGCGTCTGCTGCCGGTATTATGTCAGGATCACGGGCTGACTCCTGACCAGGTGGTTGCGATTGCGAGCAACGGTGGTGGCAAGCAGGCGCTGGAGACAGTTCAGCGTCTGCTGCCGGTGCTGTGTCAGGACCACGGT'
p76
aS'CTGACGCCGGATCAGGTCGTGGCAATCGCGAGCCACGATGGCGGCAAACAGGCCTTAGAGACTGTGCAGCGTTTACTGCCGGTTCTGTGTCAGGATCATGGGTTAACCCCGGACCAGGTGGTAGCTATTGCAAGTCACGATGGTGGTAAACAAGCGCTGGAAACGGTCCAGCGTCTGTTACCAGTACTCTGCCAAGATCATGGCCTGACCCCGGATCAAGTCGTGGCGATTGCGTCTAACGGTGGGGGCAAACAGGCCTTAGAAACTGTGCAGCGTTTACTGCCGGTGTTATGCCAGGATCATGGTCTGACCCCGGATCAGGTTGTCGCGATTGCTTCACACGATGGTGGCAAACAGGCGCTGGAAACCGTCCAACGCCTGCTGCCGGTTCTGTGTCAAGACCACGGTCTGACCCCGGATCAGGTCGTGGCCATCGCTTCTAACATTGGCGGTAAACAGGCATTAGAAACGGTCCAGCGTCTGCTGCCTGTCCTTTGCCAGGACCATGGTCTGACACCAGATCAAGTAGTCGCGATCGCGTCAAACGGTGGCGGTAAGCAAGCTCTGGAAACCGTACAGCGTCTGTTACCAGTTTTATGCCAAGATCACGGCCTCACTCCAGATCAGGTAGTTGCGATTGCCAGCCACGATGGTGGGAAGCAGGCGTTAGAAACCGTTCAACGCTTACTTCCGGTGTTATGTCAGGATCATGGCCTGACCCCGGACCAGGTAGTAGCAATCGCATCGAACATTGGCGGCAAACAAGCGCTGGAAACAGTACAGCGCCTGCTCCCGGTGCTGTGCCAGGACCACGGCCTGACGCCGGATCAGGTTGTGGCAATCGCAAGCAACAATGGTGGTAAGCAAGCCTTAGAAACAGTGCAGCGCCTCTTACCAGTGCTGTGCCAGGATCACGGCTTAACACCGGATCAAGTCGTGGCCATCGCAAGCAACAATGGCGGGAAACAGGCGCTGGAGACCGTGCAGCGCCTGTTACCTGTTCTGTGTCAGGATCATGGTTTAACCCCGGATCAGGTGGTTGCTATTGCCTCGAACATTGGCGGTAAACAGGCACTGGAAACAGTTCAGCGCCTTTTACCAGTCCTGTGCCAGGACCATGGGCTGACTCCTGACCAGGTGGTGGCCATTGCTTCTAACATTGGGGGCAAGCAGGCCCTGGAGACCGTGCAACGCTTACTGCCGGTGTTATGCCAGGACCACGGTTTAACCCCGGATCAGGTGGTAGCGATTGCCTCGCACGATGGTGGTAAACAAGCTCTGGAAACCGTGCAACGTTTACTGCCGGTACTGTGTCAGGATCATGGCCTGACCCCAGATCAAGTAGTTGCTATTGCGAGCAACATTGGCGGTAAACAGGCATTAGAGACCGTTCAGCGCCTGTTACCTGTCCTGTGCCAGGATCACGGTTTAACACCTGACCAGGTTGTTGCGATCGCCAGCAACGGTGGTGGCAAACAGGCGCTGGAAACGGTTCAGCGTTTACTGCCGGTTTTATGCCAAGACCATGGCCTTACACCGGACCAAGTTGTTGCCATCGCGTCAAACAATGGCGGGAAACAGGCTCTCGAAACAGTACAGCGTCTGCTGCCGGTATTATGTCAGGATCACGGGCTGACTCCTGACCAGGTGGTTGCGATTGCGAGCAACGGTGGTGGCAAGCAGGCGCTGGAGACTGTTCAGCGTCTGCTGCCGGTGCTGTGTCAGGACCACGGT'
p77
aS'CTGACGCCGGATCAGGTCGTGGCAATCGCGAGCCACGATGGCGGCAAACAGGCCTTAGAGACTGTGCAGCGTTTACTGCCGGTTCTGTGTCAGGATCATGGGTTAACCCCGGACCAGGTGGTAGCTATTGCAAGTCACGATGGTGGTAAACAAGCGCTGGAAACGGTCCAGCGTCTGTTACCAGTACTCTGCCAAGATCATGGCCTGACCCCGGATCAAGTTGTGGCCATTGCGTCTAACGGTGGGGGCAAACAGGCCTTAGAAACTGTGCAGCGTTTACTGCCGGTGTTATGCCAGGACCATGGTCTGACCCCGGATCAGGTTGTCGCGATTGCTTCACACGATGGTGGCAAACAGGCACTGGAAACCGTCCAACGCCTGCTGCCGGTTCTGTGTCAAGACCACGGTCTGACGCCGGATCAGGTCGTGGCCATCGCTTCGAACATTGGCGGTAAACAGGCATTAGAGACGGTCCAGCGTCTGCTGCCGGTCCTTTGCCAGGACCACGGGCTGACACCAGATCAGGTAGTCGCGATCGCGTCTAACGGTGGCGGCAAACAAGCTCTGGAAACAGTACAGCGTCTGTTACCAGTTTTATGCCAAGATCACGGCCTCACTCCAGATCAGGTAGTTGCGATCGCCAGCCACGATGGTGGGAAGCAGGCGTTAGAAACCGTTCAGCGCTTACTTCCGGTGTTATGTCAGGATCATGGCCTGACCCCGGACCAGGTCGTAGCAATCGCATCGAACATTGGCGGCAAACAGGCGCTGGAAACAGTACAACGCCTGCTCCCGGTGCTGTGCCAGGACCATGGCCTGACACCGGATCAGGTTGTCGCAATCGCAAGCAACAATGGTGGTAAACAGGCCTTAGAAACAGTGCAGCGCCTCTTACCAGTGCTGTGCCAGGATCACGGCTTAACACCGGATCAAGTCGTGGCCATCGCAAGCAACAATGGCGGTAAACAAGCGCTGGAGACCGTGCAGCGCCTGTTACCTGTTCTGTGTCAGGATCATGGTTTAACCCCGGATCAGGTGGTTGCTATTGCCTCTAACATTGGCGGTAAACAGGCACTGGAAACAGTCCAACGCCTTTTACCAGTCCTGTGCCAGGACCATGGTTTAACTCCTGACCAGGTGGTGGCCATTGCTTCTAACATTGGGGGCAAGCAGGCCCTGGAGACCGTGCAACGCTTACTGCCGGTGTTATGCCAGGACCACGGTTTAACCCCGGATCAGGTGGTAGCGATTGCCTCGCACGATGGTGGTAAACAAGCACTGGAAACCGTGCAACGTTTACTGCCGGTACTGTGTCAGGATCATGGCCTGACCCCAGATCAAGTAGTTGCCATTGCGAGCAACATTGGCGGTAAACAGGCATTAGAGACCGTTCAGCGCCTGTTACCTGTCCTGTGCCAGGATCACGGTTTAACACCTGACCAAGTTGTCGCGATCGCCAGCAACGGTGGTGGCAAACAGGCGCTGGAAACGGTTCAGCGTTTACTGCCGGTTTTATGCCAAGACCATGGCCTTACACCGGACCAAGTTGTTGCCATCGCGTCAAACAATGGCGGGAAACAGGCTCTCGAAACAGTACAGCGTCTGCTGCCGGTATTATGTCAGGATCACGGGCTGACTCCTGACCAGGTGGTTGCGATTGCGAGCAACGGTGGTGGCAAGCAGGCGCTGGAGACTGTTCAGCGTCTGCTGCCGGTGCTGTGTCAGGACCACGGT'
p78
aS'CTGACGCCGGATCAGGTCGTGGCAATCGCGAGCCACGATGGCGGCAAACAGGCCTTAGAAACTGTGCAGCGTTTACTGCCGGTTCTGTGTCAGGATCATGGGTTAACCCCGGACCAGGTGGTAGCTATTGCAAGTCACGATGGTGGTAAACAAGCGCTGGAAACGGTCCAGCGTCTGTTACCAGTACTCTGCCAAGATCATGGCCTGACCCCAGATCAAGTTGTGGCCATTGCGTCTAACGGTGGGGGCAAACAGGCCTTAGAGACTGTGCAGCGTTTACTGCCGGTGTTATGCCAGGATCATGGTCTGACCCCGGATCAGGTTGTCGCGATTGCTTCACACGATGGTGGCAAACAGGCACTGGAAACCGTCCAACGCCTGCTGCCGGTTCTGTGTCAAGACCACGGTCTGACGCCGGATCAGGTCGTGGCCATCGCTTCGAACATTGGGGGTAAACAGGCATTAGAAACGGTCCAGCGTCTGCTGCCGGTCCTTTGCCAGGACCACGGTCTGACACCAGATCAGGTAGTCGCGATCGCGTCTAACGGTGGCGGTAAGCAAGCTCTGGAAACCGTTCAGCGTCTGTTACCAGTGTTATGCCAAGATCACGGCCTCACTCCAGATCAGGTAGTTGCGATCGCCAGCCACGATGGTGGGAAGCAGGCGTTAGAAACCGTTCAACGCTTACTTCCAGTGTTATGTCAGGATCATGGCCTGACCCCTGACCAGGTGGTAGCAATCGCATCGAACATTGGCGGCAAACAAGCGCTGGAAACAGTACAGCGCCTGCTCCCGGTGCTGTGCCAAGACCATGGCCTGACGCCGGATCAGGTTGTGGCAATCGCAAGCAACAATGGTGGTAAACAAGCCTTAGAAACAGTGCAGCGCCTCTTACCTGTTCTGTGCCAGGATCACGGCTTAACACCGGATCAAGTCGTGGCCATCGCAAGCAACAATGGCGGGAAACAGGCGCTGGAGACCGTGCAGCGCCTGTTACCTGTTCTGTGTCAGGATCATGGTTTAACCCCGGATCAGGTGGTTGCTATTGCCTCTAACATTGGCGGTAAACAGGCACTGGAAACAGTTCAACGCCTTTTACCAGTCCTGTGCCAAGACCATGGTCTGACTCCTGACCAGGTGGTGGCCATTGCTTCTAACATTGGGGGCAAGCAGGCCCTGGAGACCGTGCAACGCTTACTGCCGGTGTTATGCCAAGACCACGGGTTAACCCCGGATCAGGTGGTAGCGATTGCCTCGCACGATGGTGGTAAACAGGCTCTGGAAACCGTCCAACGTTTACTGCCGGTACTGTGTCAGGATCATGGCCTGACCCCAGATCAAGTAGTTGCTATTGCGAGCAACATTGGCGGTAAACAGGCATTAGAAACCGTTCAGCGCCTGTTACCTGTCCTGTGTCAGGATCACGGTTTAACACCTGACCAAGTTGTCGCGATCGCCAGCAACGGTGGTGGCAAACAGGCGCTGGAAACGGTTCAGCGTTTACTGCCGGTTTTATGCCAGGATCACGGCCTTACACCGGACCAAGTTGTTGCCATCGCGTCAAACAATGGCGGGAAACAGGCTCTCGAAACAGTACAGCGTCTGCTGCCGGTATTATGTCAGGATCACGGGCTGACTCCTGACCAGGTGGTTGCGATTGCGAGCAACGGTGGTGGCAAGCAGGCGCTGGAGACAGTTCAGCGTCTGCTGCCGGTGCTGTGTCAGGACCACGGT'
p79
aS'CTGACGCCGGATCAGGTCGTGGCAATCGCGAGCCACGATGGCGGCAAACAGGCCTTAGAAACTGTGCAGCGTTTACTGCCGGTTCTGTGTCAGGATCATGGGTTAACCCCGGACCAGGTGGTAGCTATTGCAAGTCACGATGGTGGTAAACAAGCGCTGGAAACGGTCCAGCGTCTGTTACCAGTACTCTGCCAAGATCATGGCCTGACCCCGGATCAGGTTGTGGCCATTGCGTCTAACGGTGGGGGCAAACAGGCCTTAGAAACTGTGCAGCGTTTACTGCCGGTGTTATGCCAGGATCACGGTCTGACCCCGGATCAGGTTGTCGCGATTGCTTCACACGATGGTGGCAAGCAGGCACTGGAAACCGTCCAACGCCTGCTGCCGGTTCTGTGTCAAGACCACGGTCTGACGCCGGATCAGGTCGTGGCCATCGCTTCGAACATTGGGGGTAAACAGGCATTAGAAACGGTCCAGCGTCTGCTGCCGGTCCTTTGCCAAGACCACGGTCTGACACCAGATCAGGTTGTCGCGATCGCGTCTAACGGTGGCGGTAAACAAGCTCTGGAAACCGTACAGCGTCTGTTACCAGTTTTATGCCAGGATCACGGCCTCACTCCAGATCAAGTAGTTGCGATCGCCAGCCACGATGGTGGGAAGCAGGCGTTAGAGACCGTTCAGCGCTTACTTCCGGTGTTATGTCAGGACCATGGCCTGACCCCAGACCAGGTGGTAGCAATCGCATCGAACATTGGCGGCAAACAAGCGCTGGAAACAGTACAGCGCCTGCTCCCGGTGCTGTGCCAGGACCATGGCCTGACGCCGGATCAGGTTGTGGCAATCGCAAGCAACAATGGTGGTAAACAAGCCTTAGAGACAGTGCAGCGCCTCTTACCTGTGCTGTGCCAGGATCACGGCTTAACACCGGATCAAGTCGTGGCCATCGCAAGCAACAATGGCGGTAAACAAGCGCTGGAGACCGTGCAGCGCCTGTTACCTGTTCTGTGTCAGGATCATGGTTTAACCCCGGATCAGGTGGTTGCTATTGCCTCTAACATTGGCGGTAAACAGGCACTGGAAACAGTTCAGCGCCTTTTACCAGTCCTGTGCCAGGACCATGGTTTAACTCCTGACCAGGTGGTGGCCATTGCTTCTAACATTGGGGGCAAGCAGGCCCTGGAGACCGTGCAACGCTTACTGCCGGTGTTATGCCAAGACCACGGTTTAACCCCGGATCAGGTGGTAGCGATTGCCTCGCACGATGGTGGTAAACAAGCTCTGGAAACCGTGCAACGTTTACTGCCGGTACTGTGTCAGGATCATGGCCTGACCCCAGATCAAGTAGTTGCTATTGCGAGCAACATTGGCGGTAAACAGGCATTAGAGACCGTTCAGCGCCTGTTACCTGTCCTGTGCCAGGATCACGGTTTAACACCTGACCAAGTTGTCGCGATCGCCAGCAACGGTGGTGGCAAACAGGCGCTGGAAACGGTTCAGCGTTTACTGCCGGTTTTATGCCAAGACCATGGCCTTACACCGGACCAAGTTGTTGCCATCGCGTCAAACAATGGCGGGAAACAGGCTCTCGAAACAGTACAGCGTCTGCTGCCGGTATTATGTCAGGATCACGGGCTGACTCCTGACCAGGTGGTTGCGATTGCGAGCAACGGTGGTGGCAAGCAGGCTCTGGAGACAGTTCAGCGTCTGCTGCCGGTGCTGTGTCAGGACCACGGT'
p80
aS'CTGACGCCGGATCAGGTCGTGGCAATCGCGAGCCACGATGGCGGCAAACAGGCCTTAGAGACTGTGCAGCGTTTACTGCCAGTTCTGTGTCAAGATCACGGGTTAACCCCGGACCAGGTGGTAGCTATTGCAAGTCACGATGGTGGTAAACAAGCGCTGGAAACGGTCCAGCGTCTGTTACCAGTACTCTGCCAAGATCATGGCCTGACCCCGGATCAAGTTGTGGCCATTGCGTCTAACGGTGGGGGCAAACAGGCCTTAGAAACTGTGCAGCGTTTACTGCCGGTGTTATGCCAGGATCATGGTCTGACCCCGGATCAGGTTGTCGCGATTGCTTCACACGATGGTGGCAAACAGGCACTGGAAACCGTCCAACGCCTGCTGCCGGTTCTGTGTCAAGACCACGGTCTGACCCCGGATCAGGTCGTGGCCATCGCTTCTAACATTGGCGGTAAACAGGCATTAGAAACGGTCCAGCGTCTGCTGCCTGTCCTTTGCCAGGACCATGGTCTGACACCAGATCAAGTAGTCGCGATCGCGTCAAACGGTGGCGGTAAGCAAGCTCTGGAAACCGTACAGCGTCTGTTACCAGTTTTATGCCAAGATCACGGCCTGACTCCAGACCAGGTAGTTGCGATTGCCAGCCACGATGGTGGGAAGCAGGCGTTAGAAACCGTTCAACGCTTACTTCCGGTGTTATGTCAGGATCATGGCCTGACCCCGGACCAGGTAGTAGCAATCGCATCGAACATTGGCGGCAAACAAGCGCTGGAAACAGTACAGCGCCTGCTCCCGGTCCTGTGTCAGGACCATGGCCTGACGCCGGATCAGGTTGTGGCAATCGCAAGCAACAATGGTGGTAAGCAAGCCTTAGAAACAGTGCAGCGCCTCTTACCAGTGCTGTGCCAGGATCACGGCTTAACACCGGATCAAGTCGTCGCCATCGCAAGCAACAATGGCGGTAAACAGGCGCTGGAGACCGTGCAACGCCTGTTACCTGTTCTGTGTCAGGATCATGGTTTAACCCCGGATCAGGTGGTTGCTATTGCGTCGAACATTGGCGGTAAACAGGCACTGGAAACAGTTCAGCGCCTTTTACCAGTCCTGTGCCAGGACCATGGTTTAACTCCTGACCAGGTGGTGGCCATTGCTTCTAACATTGGGGGGAAGCAGGCCCTGGAGACCGTGCAACGCTTACTGCCGGTGTTATGCCAAGACCACGGTTTAACCCCGGATCAGGTGGTAGCGATTGCCTCGCACGATGGTGGTAAACAAGCTCTGGAAACCGTGCAACGTTTACTGCCGGTACTGTGTCAGGATCATGGCCTGACCCCAGATCAAGTAGTTGCTATTGCGAGCAACATTGGCGGTAAACAGGCATTAGAGACCGTTCAGCGCCTGTTACCTGTCCTGTGCCAGGATCACGGTTTAACACCTGACCAAGTTGTCGCGATCGCCAGCAACGGTGGTGGCAAACAGGCGCTGGAAACGGTTCAGCGTTTACTGCCGGTTTTATGCCAAGACCATGGCCTTACACCGGACCAAGTTGTTGCCATCGCGTCAAACAATGGCGGGAAACAGGCTCTCGAAACAGTACAGCGTCTGCTGCCGGTATTATGTCAGGATCACGGGCTGACTCCTGACCAGGTGGTTGCGATTGCGAGCAACGGTGGTGGCAAGCAGGCGCTGGAGACTGTTCAGCGTCTGCTGCCGGTGCTGTGTCAGGACCACGGT'
p81
aS'CTGACGCCGGATCAGGTCGTGGCAATCGCGAGCCACGATGGCGGCAAACAGGCCTTAGAAACTGTGCAGCGTTTACTGCCGGTCCTGTGTCAGGATCATGGGTTAACCCCGGACCAGGTGGTAGCTATTGCAAGTCACGATGGTGGTAAACAAGCGCTGGAAACGGTCCAGCGTCTGTTACCAGTACTCTGCCAAGATCATGGCCTGACCCCGGATCAAGTCGTGGCCATTGCGTCTAACGGTGGGGGCAAACAGGCCTTAGAAACTGTCCAACGTTTACTGCCGGTGTTATGTCAGGATCATGGTCTGACCCCGGATCAGGTTGTCGCGATTGCTTCACACGATGGTGGCAAACAGGCACTGGAAACCGTCCAACGCCTGCTGCCGGTTCTGTGTCAAGACCACGGTCTGACGCCGGATCAGGTCGTGGCCATCGCTTCGAACATTGGCGGTAAACAGGCATTAGAAACGGTCCAGCGTCTGCTGCCAGTCCTTTGCCAGGACCACGGTCTGACACCAGATCAGGTAGTCGCGATCGCGTCTAACGGTGGCGGTAAACAAGCTCTGGAGACCGTACAGCGTCTGTTACCAGTTTTATGCCAAGATCACGGCCTCACTCCAGATCAGGTTGTTGCGATTGCCAGCCACGATGGTGGGAAGCAGGCGTTAGAAACCGTTCAACGCTTACTTCCGGTGTTATGTCAGGATCACGGCCTGACCCCAGACCAGGTGGTAGCAATCGCATCGAACATTGGCGGCAAACAAGCGCTGGAAACAGTACAGCGCCTGCTCCCGGTGCTGTGCCAGGACCATGGCCTGACGCCGGATCAGGTTGTGGCAATCGCAAGCAACAATGGTGGTAAACAAGCCTTAGAAACAGTGCAGCGCCTCTTACCAGTGCTGTGCCAGGATCACGGCTTAACACCGGATCAAGTCGTGGCCATTGCAAGCAACAATGGCGGTAAGCAGGCGCTGGAGACCGTGCAGCGCCTGTTACCTGTTCTGTGTCAGGATCATGGTTTAACCCCGGATCAGGTGGTTGCTATTGCCTCGAACATTGGCGGTAAACAGGCACTGGAAACAGTTCAGCGCCTTTTACCAGTCCTGTGCCAGGACCATGGTTTAACTCCTGACCAGGTGGTGGCCATTGCTTCTAACATTGGGGGCAAGCAGGCCCTGGAGACCGTGCAACGCTTACTGCCGGTGCTGTGCCAGGACCACGGTTTAACCCCGGATCAGGTGGTAGCGATTGCCTCGCACGATGGTGGTAAACAAGCTCTGGAAACCGTGCAACGTTTACTGCCGGTACTGTGTCAGGATCATGGCCTGACCCCAGATCAAGTAGTTGCTATTGCGAGCAACATTGGCGGTAAACAGGCATTAGAGACCGTTCAGCGCCTGTTACCTGTCCTGTGCCAGGATCACGGGTTAACACCTGACCAAGTTGTCGCGATCGCCAGCAACGGTGGTGGCAAACAGGCGCTGGAAACCGTTCAGCGTTTACTGCCGGTTTTATGCCAAGACCATGGCCTTACACCGGACCAAGTTGTTGCCATCGCGTCAAACAATGGCGGGAAACAGGCTCTTGAAACAGTACAGCGTCTGCTGCCGGTATTATGTCAGGATCACGGGCTGACTCCTGACCAGGTGGTTGCGATTGCGAGCAACGGTGGTGGCAAGCAGGCGCTGGAAACTGTTCAACGTCTGCTGCCGGTGCTGTGTCAGGACCACGGT'
p82
aS'CTGACGCCGGATCAGGTCGTGGCAATCGCGAGCCACGATGGCGGCAAACAGGCCTTAGAGACTGTGCAGCGTTTACTGCCGGTTCTGTGTCAGGATCATGGGTTAACCCCGGACCAGGTGGTAGCTATTGCAAGTCACGATGGTGGTAAACAAGCGCTGGAAACGGTCCAGCGTCTGTTACCAGTACTCTGCCAAGATCATGGCCTGACCCCGGATCAAGTCGTGGCGATTGCGTCTAACGGTGGGGGCAAACAGGCCTTAGAAACTGTGCAGCGTTTACTGCCGGTGTTATGCCAGGATCATGGTCTGACCCCGGATCAGGTTGTCGCGATTGCTTCACACGATGGTGGCAAACAGGCACTGGAAACCGTCCAACGCCTGCTGCCGGTTCTGTGTCAAGATCACGGTCTGACCCCGGATCAGGTCGTGGCCATCGCTTCTAACATTGGCGGTAAACAGGCATTAGAAACGGTCCAGCGTCTGCTGCCTGTCCTTTGCCAGGACCATGGTCTGACACCAGATCAAGTAGTCGCGATCGCGTCAAACGGTGGCGGTAAGCAAGCTCTGGAAACCGTACAGCGTCTGTTACCAGTTTTATGCCAAGATCACGGCCTCACTCCAGATCAGGTAGTTGCGATTGCCAGCCACGATGGTGGGAAGCAGGCGTTAGAAACCGTTCAACGCTTACTTCCGGTGTTATGTCAGGATCATGGCCTGACCCCGGACCAGGTAGTAGCAATCGCATCGAACATTGGCGGCAAACAAGCGCTGGAAACAGTACAGCGCCTGCTCCCGGTGCTGTGCCAGGACCACGGCCTGACGCCGGATCAGGTTGTGGCAATCGCAAGCAACAATGGTGGTAAGCAAGCCTTAGAAACAGTGCAGCGCCTCTTACCAGTGCTGTGCCAGGATCACGGCTTAACACCGGATCAAGTCGTGGCCATCGCAAGCAACAATGGCGGGAAACAGGCGCTGGAGACCGTGCAGCGCCTGTTACCTGTTCTGTGTCAGGATCATGGTTTAACCCCGGATCAGGTGGTTGCTATTGCCTCGAACATTGGCGGTAAACAGGCACTGGAAACAGTTCAGCGCCTTTTACCAGTCCTGTGCCAGGACCATGGTCTGACTCCTGACCAGGTGGTGGCCATTGCTTCTAACATTGGGGGCAAGCAGGCCCTGGAGACCGTGCAACGCTTACTGCCGGTGTTATGCCAGGACCACGGTTTAACCCCGGATCAGGTGGTAGCGATTGCCTCGCACGATGGTGGTAAACAAGCTCTGGAAACCGTGCAACGTTTACTGCCGGTACTGTGTCAGGATCATGGCCTGACCCCAGATCAAGTAGTTGCTATTGCGAGCAACATTGGCGGTAAACAGGCATTAGAGACCGTTCAGCGCCTGTTACCTGTCCTGTGCCAGGATCACGGTTTAACACCTGACCAGGTTGTTGCGATCGCCAGCAACGGTGGTGGCAAACAGGCGCTGGAAACGGTTCAGCGTTTACTGCCGGTTTTATGCCAAGACCATGGCCTTACACCGGACCAAGTTGTTGCCATCGCGTCAAACAATGGCGGGAAACAGGCTCTCGAAACAGTACAGCGTCTGCTGCCGGTATTATGTCAGGATCACGGGCTGACTCCTGACCAGGTGGTTGCGATTGCGAGCAACGGTGGTGGGAAGCAGGCGCTGGAGACTGTTCAGCGTCTGCTGCCGGTGCTGTGTCAGGACCACGGT'
p83
aS'CTGACGCCGGATCAGGTCGTGGCAATCGCGAGCCACGATGGCGGCAAACAGGCCTTAGAGACTGTGCAGCGTTTACTGCCGGTTCTGTGTCAGGATCACGGGTTAACCCCGGACCAGGTGGTAGCTATTGCAAGTCACGATGGTGGTAAACAAGCGCTGGAAACGGTCCAGCGTCTGTTACCAGTACTCTGCCAAGATCATGGCCTGACCCCGGATCAGGTCGTGGCCATTGCGTCTAACGGTGGGGGCAAACAGGCCTTAGAAACTGTGCAGCGTTTACTGCCGGTGTTATGCCAGGATCATGGTCTGACCCCGGATCAGGTTGTCGCGATTGCTTCACACGATGGTGGCAAACAGGCACTGGAAACCGTCCAACGCCTGCTGCCGGTTCTGTGTCAAGACCACGGTCTGACCCCGGATCAGGTCGTGGCCATCGCTTCTAACATTGGCGGTAAACAGGCATTAGAAACGGTCCAGCGTCTGCTGCCTGTCCTTTGCCAGGACCATGGTCTGACACCAGATCAAGTAGTCGCGATCGCGTCAAACGGTGGCGGTAAGCAAGCTCTTGAAACCGTACAGCGTCTGTTACCAGTTTTATGCCAAGATCACGGCCTCACTCCAGATCAGGTAGTTGCGATTGCCAGCCACGATGGTGGGAAGCAGGCGTTAGAAACCGTTCAACGCTTACTTCCGGTGTTATGTCAGGATCATGGCCTGACCCCGGACCAGGTAGTAGCAATCGCATCGAACATTGGCGGGAAACAAGCGCTGGAAACAGTACAGCGCCTGCTCCCGGTGCTGTGCCAGGACCATGGCCTGACGCCGGATCAGGTTGTGGCAATCGCAAGCAACAATGGTGGTAAGCAAGCCTTAGAAACAGTGCAGCGCCTCTTACCAGTGCTGTGCCAGGATCACGGCTTAACACCGGATCAAGTCGTGGCCATCGCAAGCAACAATGGCGGGAAACAGGCGCTGGAGACCGTGCAGCGCCTGTTACCTGTTCTGTGTCAGGATCATGGTTTAACCCCGGATCAGGTGGTTGCTATTGCCTCGAACATTGGTGGTAAACAGGCACTGGAAACAGTTCAGCGCCTTTTACCAGTCCTGTGCCAGGACCATGGTTTAACTCCTGACCAGGTGGTGGCCATTGCTTCTAACATTGGGGGCAAGCAGGCCCTGGAGACCGTGCAACGCTTACTGCCGGTGTTATGCCAGGACCACGGTTTAACCCCGGATCAGGTGGTAGCGATTGCCTCGCACGATGGTGGTAAACAAGCACTGGAAACCGTGCAACGTTTACTGCCGGTACTGTGTCAGGATCATGGCCTGACCCCAGATCAAGTAGTCGCTATTGCGAGCAACATTGGCGGTAAACAGGCATTAGAGACCGTTCAGCGCCTGTTACCTGTCCTGTGCCAGGATCACGGTTTAACACCTGACCAAGTTGTCGCGATCGCCAGCAACGGTGGTGGCAAACAGGCGCTGGAAACGGTTCAGCGTTTACTGCCGGTTTTATGCCAAGACCATGGCCTTACACCGGACCAAGTTGTTGCCATCGCGTCAAACAATGGCGGGAAACAGGCTCTCGAAACAGTACAGCGTCTGCTGCCGGTATTATGTCAGGATCACGGGCTGACTCCTGACCAGGTGGTTGCGATTGCGAGCAACGGTGGTGGCAAGCAGGCGCTGGAGACTGTTCAGCGTCTGCTGCCGGTGCTGTGTCAGGATCACGGT'
p84
aS'CTGACGCCGGATCAAGTCGTGGCAATCGCGAGCCACGATGGCGGCAAACAGGCCTTAGAAACTGTGCAGCGTTTACTGCCGGTTCTGTGTCAAGATCATGGGTTAACCCCTGACCAGGTGGTGGCTATTGCCAGTCACGATGGTGGTAAACAAGCGCTGGAAACGGTCCAGCGTCTGTTACCAGTACTCTGCCAAGATCATGGCCTGACCCCGGACCAGGTTGTGGCCATTGCGTCTAACGGTGGGGGCAAACAGGCCTTAGAAACTGTGCAGCGTTTACTGCCGGTGTTATGCCAGGATCATGGTCTGACCCCGGATCAGGTTGTCGCGATTGCTTCACACGATGGTGGCAAACAGGCACTGGAAACCGTCCAACGCCTGCTGCCGGTTCTGTGTCAAGACCACGGTCTGACGCCGGATCAGGTCGTGGCCATCGCTTCGAACATTGGCGGTAAACAGGCATTAGAAACGGTCCAGCGTCTGCTGCCGGTCCTTTGCCAGGACCACGGTCTGACACCAGATCAGGTAGTCGCGATCGCCTCTAACGGTGGCGGTAAACAAGCTCTGGAAACCGTACAGCGTCTGTTACCAGTTTTATGCCAAGATCACGGCCTCACTCCAGATCAAGTAGTTGCGATCGCCAGCCACGATGGTGGGAAGCAGGCGTTAGAAACCGTTCAACGCTTACTTCCGGTGTTATGTCAGGATCATGGCCTGACCCCGGACCAGGTGGTAGCAATCGCATCGAACATTGGCGGCAAACAAGCGCTGGAGACAGTACAGCGCCTGCTCCCGGTGCTGTGCCAGGACCATGGCCTGACGCCGGATCAGGTTGTCGCAATCGCAAGCAACAATGGTGGTAAACAAGCCTTAGAGACAGTGCAGCGCCTCTTACCTGTGCTGTGCCAGGATCACGGCTTAACACCGGATCAAGTCGTGGCCATCGCAAGCAACAATGGCGGGAAACAGGCGCTGGAGACCGTGCAGCGCCTGTTACCTGTTCTGTGTCAGGATCATGGTTTAACCCCGGATCAGGTGGTTGCTATTGCGTCGAACATTGGCGGTAAACAGGCACTGGAAACAGTTCAGCGCCTTTTACCAGTCCTGTGCCAGGACCATGGTTTAACTCCTGACCAGGTGGTGGCCATTGCTTCTAACATTGGGGGGAAGCAGGCCCTGGAGACCGTGCAACGCTTACTGCCGGTGTTATGCCAAGACCACGGTTTAACCCCGGATCAGGTGGTAGCGATTGCCTCGCACGATGGTGGTAAACAAGCTCTGGAAACCGTGCAACGTTTACTGCCGGTACTGTGTCAGGATCATGGCCTGACCCCAGATCAAGTAGTTGCTATTGCGAGCAACATTGGCGGTAAACAGGCATTAGAGACCGTTCAGCGCCTGTTACCTGTCCTGTGCCAGGATCACGGTTTAACACCTGACCAAGTTGTCGCGATCGCCAGCAACGGTGGTGGCAAACAGGCGCTGGAAACGGTTCAGCGTTTACTGCCGGTTTTATGCCAAGACCATGGCCTTACACCGGACCAAGTTGTTGCCATCGCTTCAAACAATGGCGGGAAACAGGCTCTCGAAACAGTACAGCGTCTGCTGCCGGTATTATGTCAGGATCACGGGCTGACTCCTGACCAGGTGGTTGCTATTGCGAGCAACGGTGGTGGCAAGCAGGCGCTGGAAACAGTTCAGCGTCTGCTGCCGGTGCTGTGTCAGGACCACGGT'
p85
aS'CTGACGCCGGATCAGGTCGTGGCAATCGCGAGCCACGATGGCGGCAAACAGGCCTTAGAAACTGTGCAGCGTTTACTGCCGGTCCTGTGTCAGGATCATGGGTTAACCCCGGACCAGGTGGTAGCTATTGCAAGTCACGATGGTGGGAAACAAGCGCTGGAAACGGTCCAGCGTCTGTTACCAGTACTCTGCCAAGATCATGGCCTGACCCCGGATCAAGTCGTGGCCATTGCGTCTAACGGTGGGGGCAAACAGGCCTTAGAAACTGTCCAACGTTTACTGCCGGTGTTATGCCAGGATCATGGTCTGACCCCGGATCAGGTTGTCGCGATTGCTTCACACGATGGTGGCAAACAGGCACTGGAAACCGTCCAACGCCTGCTGCCGGTTCTGTGTCAAGACCACGGTCTGACGCCGGATCAGGTCGTGGCCATCGCTTCGAACATTGGCGGTAAACAGGCATTAGAAACGGTCCAGCGTCTGCTGCCAGTCCTTTGCCAGGACCACGGTCTGACACCAGATCAGGTAGTCGCGATCGCGTCTAACGGTGGCGGTAAACAAGCTCTGGAGACCGTACAGCGTCTGTTACCAGTTTTATGCCAAGATCACGGCCTCACTCCAGATCAGGTTGTTGCGATTGCCAGCCACGATGGTGGGAAGCAGGCGTTAGAAACCGTTCAACGCTTACTTCCGGTGTTATGTCAGGATCACGGCCTGACCCCAGACCAGGTGGTAGCAATCGCATCGAACATTGGCGGCAAACAAGCGCTGGAAACAGTACAGCGCCTGCTCCCGGTGCTGTGCCAGGACCATGGCCTGACGCCGGATCAGGTTGTGGCAATCGCAAGCAACAATGGTGGTAAACAAGCCTTAGAAACAGTGCAGCGCCTCTTACCAGTGCTGTGCCAGGATCACGGCTTAACACCGGATCAAGTCGTGGCCATCGCAAGCAACAATGGCGGTAAACAAGCGCTGGAGACCGTGCAGCGCCTGTTACCTGTTCTGTGTCAGGATCATGGTTTAACCCCGGATCAGGTGGTTGCTATTGCCTCTAACATTGGCGGTAAACAGGCACTGGAAACAGTTCAGCGCCTTTTACCAGTCCTGTGCCAGGACCATGGTTTAACTCCTGACCAGGTGGTGGCCATTGCTTCTAACATTGGGGGCAAGCAGGCCCTGGAGACCGTGCAACGCTTACTGCCGGTGTTATGCCAGGACCACGGTTTAACCCCGGATCAGGTGGTAGCGATTGCCTCGCACGATGGTGGTAAACAAGCACTGGAAACCGTGCAACGTTTACTGCCGGTACTGTGTCAGGATCATGGCCTGACCCCAGATCAAGTAGTCGCTATTGCGAGCAACATTGGCGGTAAACAGGCATTAGAGACCGTTCAGCGCCTGTTACCTGTCCTGTGCCAGGATCACGGTTTAACACCTGACCAAGTTGTCGCGATCGCCAGCAACGGTGGTGGCAAACAGGCGCTGGAAACGGTTCAGCGTTTACTGCCGGTTTTATGCCAAGACCATGGCCTTACACCGGACCAAGTTGTTGCCATCGCGTCAAACAATGGCGGGAAACAGGCTCTCGAAACAGTACAGCGTCTGCTGCCGGTATTATGTCAGGATCACGGGCTGACTCCTGACCAGGTGGTTGCGATTGCGAGCAACGGTGGTGGCAAGCAGGCGCTGGAGACTGTTCAGCGTCTGCTGCCGGTGCTGTGTCAGGACCACGGT'
p86
aS'CTGACGCCGGATCAGGTCGTGGCAATCGCGAGCCACGATGGCGGCAAACAAGCCTTAGAGACTGTGCAGCGTTTACTGCCGGTTCTGTGTCAGGACCATGGGTTAACCCCGGACCAGGTGGTAGCTATTGCAAGTCACGATGGTGGTAAACAAGCGCTGGAAACGGTCCAGCGTCTGTTACCAGTACTCTGCCAAGATCATGGCCTGACCCCGGATCAAGTTGTGGCCATTGCGTCTAACGGTGGGGGCAAACAGGCCTTAGAAACTGTGCAGCGTTTACTGCCGGTGTTATGCCAGGATCACGGTCTGACCCCGGATCAGGTTGTCGCCATTGCTTCACACGATGGTGGCAAACAGGCACTGGAAACCGTCCAACGCCTGCTGCCGGTTCTGTGTCAAGACCACGGTCTGACGCCGGACCAGGTCGTGGCCATCGCTTCGAACATTGGCGGGAAACAGGCATTAGAAACGGTCCAGCGTCTGCTGCCTGTCCTTTGCCAGGACCACGGTCTGACACCAGATCAGGTAGTCGCGATCGCGTCTAACGGTGGCGGTAAACAAGCTCTGGAAACCGTACAGCGTCTGTTACCAGTTTTATGCCAAGATCACGGCCTCACTCCAGATCAGGTAGTTGCGATCGCCAGCCACGATGGTGGGAAACAGGCGTTAGAAACCGTTCAACGCTTACTTCCGGTGTTATGTCAGGATCATGGCCTGACCCCGGACCAGGTGGTAGCAATCGCATCGAACATTGGCGGCAAACAAGCGCTGGAAACAGTACAGCGCCTGCTCCCGGTGCTGTGCCAGGACCATGGGCTGACGCCGGATCAGGTTGTGGCAATCGCAAGCAACAATGGTGGTAAGCAAGCCTTAGAAACAGTGCAGCGCCTCTTACCAGTGCTGTGCCAGGATCACGGCTTAACACCGGACCAAGTCGTGGCCATCGCAAGCAACAATGGCGGTAAACAGGCGCTGGAGACCGTGCAGCGCCTGTTACCTGTTCTGTGTCAGGATCATGGTTTAACCCCGGATCAAGTGGTTGCTATTGCCTCTAACATTGGCGGTAAACAGGCACTGGAAACAGTTCAGCGCCTTTTACCAGTCCTGTGTCAGGACCATGGTTTAACTCCTGACCAGGTGGTGGCCATTGCTTCTAACATTGGGGGCAAGCAGGCCCTGGAGACCGTGCAACGCTTACTGCCGGTGTTATGCCAAGACCACGGTTTAACCCCGGATCAGGTGGTAGCGATTGCCTCGCACGATGGTGGTAAACAAGCTCTGGAAACCGTGCAACGTTTACTGCCGGTACTGTGTCAGGATCATGGCCTGACCCCAGATCAAGTAGTTGCTATTGCGAGCAACATTGGCGGTAAACAGGCATTAGAGACCGTTCAGCGCCTGTTACCTGTCCTGTGCCAGGATCACGGTTTAACACCTGACCAAGTTGTCGCGATCGCCAGCAACGGTGGTGGCAAACAGGCGCTGGAAACGGTTCAGCGTTTACTGCCGGTTTTATGCCAAGACCATGGCCTTACACCGGACCAAGTTGTTGCCATCGCGTCAAACAATGGCGGGAAACAGGCTCTCGAAACAGTACAGCGTCTGCTGCCGGTATTATGTCAGGATCACGGGCTGACTCCTGACCAGGTGGTTGCGATTGCGAGCAACGGTGGTGGCAAGCAGGCGCTGGAGACAGTTCAGCGTCTGCTGCCGGTGCTGTGTCAGGACCACGGT'
p87
aS'CTGACGCCGGATCAGGTCGTGGCAATCGCGAGCCACGATGGCGGCAAACAGGCCTTAGAAACTGTGCAGCGTTTACTGCCGGTTCTGTGTCAGGATCATGGGTTAACCCCGGACCAGGTGGTAGCTATTGCAAGTCACGATGGTGGTAAACAAGCGCTGGAAACGGTCCAGCGTCTGTTACCAGTACTCTGCCAAGATCATGGCCTGACCCCGGATCAAGTTGTGGCCATTGCGTCTAACGGTGGGGGCAAACAGGCCTTAGAAACTGTGCAGCGTTTACTGCCGGTGTTATGCCAGGATCATGGTCTGACCCCGGATCAGGTTGTCGCGATTGCTTCACACGATGGGGGCAAACAGGCACTGGAGACCGTCCAACGCCTGCTGCCGGTTCTGTGTCAAGACCACGGTCTGACGCCGGATCAGGTCGTGGCCATCGCTTCGAACATTGGCGGTAAACAGGCATTAGAGACGGTACAGCGTCTGCTGCCGGTCCTTTGCCAGGACCACGGGCTGACACCAGATCAGGTAGTCGCGATCGCGTCTAACGGTGGCGGCAAACAAGCTCTGGAAACAGTACAGCGTCTGTTACCAGTTTTATGCCAAGATCACGGCCTCACTCCAGATCAGGTAGTTGCGATCGCCAGCCACGATGGTGGGAAGCAGGCGTTAGAAACCGTTCAGCGCTTACTTCCGGTGTTATGTCAGGATCATGGCCTGACCCCGGACCAGGTCGTAGCAATCGCATCGAACATTGGCGGCAAACAGGCGCTGGAAACAGTACAACGCCTGCTCCCGGTGCTGTGCCAGGACCATGGCCTGACACCGGATCAGGTTGTCGCAATCGCAAGCAACAATGGTGGTAAACAGGCCTTAGAAACAGTGCAGCGCCTCTTACCAGTGCTGTGCCAGGATCACGGCTTAACACCGGATCAAGTCGTGGCCATCGCAAGCAACAATGGCGGTAAACAAGCGCTGGAGACCGTGCAGCGCCTGTTACCTGTTCTGTGTCAGGATCATGGTTTAACCCCGGATCAGGTGGTTGCTATTGCCTCTAACATTGGCGGCAAACAGGCACTGGAAACAGTCCAGCGCCTTTTACCAGTCCTGTGCCAGGACCATGGTTTAACTCCTGACCAGGTGGTGGCCATTGCTTCTAACATTGGGGGCAAGCAGGCCCTGGAGACCGTGCAACGCTTACTGCCGGTGTTATGCCAGGACCACGGTTTAACCCCGGATCAGGTGGTAGCGATTGCCTCGCACGATGGTGGTAAACAAGCTCTGGAAACCGTGCAACGTTTACTGCCGGTACTGTGTCAGGATCATGGCCTGACCCCAGACCAAGTAGTTGCTATTGCGAGCAACATTGGCGGTAAACAGGCATTAGAGACCGTTCAGCGCCTGTTACCTGTCCTGTGCCAGGATCACGGTTTAACACCTGACCAAGTTGTCGCGATCGCCAGCAACGGTGGTGGCAAACAGGCGCTGGAAACGGTTCAGCGTTTACTGCCGGTTTTATGCCAAGACCATGGCCTTACACCGGACCAAGTTGTTGCCATCGCGTCAAACAATGGCGGGAAACAGGCTCTCGAAACAGTACAGCGTCTGCTGCCGGTATTATGTCAGGATCACGGGCTGACTCCTGACCAGGTGGTTGCTATTGCGAGCAACGGTGGTGGCAAGCAGGCGCTGGAAACAGTTCAGCGTCTGCTGCCGGTGCTGTGTCAGGACCACGGT'
p88
aS'CTGACGCCGGATCAGGTCGTGGCAATCGCGAGCCACGATGGCGGCAAACAGGCCTTAGAGACTGTGCAGCGTTTACTGCCAGTTCTGTGTCAAGATCACGGGTTAACCCCGGACCAGGTCGTAGCTATTGCAAGTCACGATGGTGGTAAACAAGCGCTGGAAACGGTCCAGCGTCTGTTACCAGTACTCTGCCAAGATCATGGCCTGACCCCGGATCAAGTTGTGGCCATTGCGTCTAACGGTGGGGGCAAACAGGCCTTAGAAACTGTCCAGCGTTTACTGCCGGTGTTATGCCAGGATCATGGTCTGACCCCGGATCAGGTTGTCGCGATTGCTTCACACGATGGTGGCAAACAGGCACTGGAAACCGTCCAACGCCTGCTGCCGGTTCTGTGTCAAGACCACGGTCTGACGCCGGATCAGGTCGTGGCCATCGCTTCGAACATTGGCGGTAAGCAGGCATTAGAAACGGTCCAGCGTCTGCTGCCGGTCCTTTGCCAGGACCACGGTCTGACACCAGATCAGGTGGTCGCGATCGCGTCTAACGGTGGCGGGAAACAAGCTCTGGAAACAGTACAGCGTCTGTTACCAGTCTTATGCCAAGATCACGGCCTCACTCCAGATCAGGTAGTTGCGATCGCCAGCCACGATGGTGGGAAGCAGGCGTTAGAAACCGTTCAACGCTTACTTCCGGTGTTATGTCAGGATCATGGCCTGACCCCGGACCAGGTGGTAGCAATCGCATCGAACATTGGCGGCAAACAGGCGCTGGAAACAGTACAACGCCTGCTCCCGGTGCTGTGCCAGGACCATGGCCTGACGCCGGATCAGGTTGTGGCAATCGCAAGCAACAATGGTGGTAAACAAGCCTTAGAAACAGTGCAGCGCCTCTTACCAGTGCTGTGCCAGGACCACGGCTTAACACCGGATCAAGTCGTGGCCATCGCAAGCAACAATGGCGGTAAACAAGCGCTGGAGACCGTGCAGCGCCTTTTACCTGTTCTGTGTCAGGATCATGGTTTAACCCCGGATCAGGTGGTTGCTATTGCCTCTAACATTGGCGGTAAACAGGCACTGGAAACAGTTCAGCGCCTTTTACCAGTCCTGTGCCAGGACCATGGTTTAACTCCTGACCAGGTAGTGGCCATTGCTTCTAACATTGGGGGCAAGCAGGCCCTGGAGACCGTGCAACGCTTACTGCCGGTGTTATGCCAAGACCATGGTTTAACACCGGATCAGGTGGTAGCGATTGCCTCGCACGATGGTGGTAAACAAGCTCTGGAAACCGTGCAACGTTTACTGCCGGTACTGTGTCAGGATCATGGCCTGACCCCAGATCAAGTAGTTGCTATTGCGAGCAACATTGGCGGTAAACAGGCATTAGAGACCGTTCAGCGCCTGTTACCTGTCCTGTGCCAGGATCACGGTTTAACACCTGACCAGGTTGTCGCGATTGCCAGCAACGGTGGTGGCAAACAGGCGCTGGAAACGGTTCAGCGTTTACTGCCGGTTTTATGCCAAGATCATGGCCTTACACCGGACCAAGTTGTTGCCATCGCGTCAAACAATGGCGGGAAACAGGCTCTTGAAACTGTACAGCGTCTGCTGCCGGTATTATGTCAGGATCACGGGCTGACTCCTGACCAGGTGGTTGCGATTGCGAGCAACGGTGGTGGCAAGCAGGCGCTGGAGACAGTTCAGCGTCTGCTGCCGGTGCTGTGTCAGGACCACGGT'
p89
aS'CTGACGCCGGATCAGGTCGTGGCAATCGCGAGCCACGATGGCGGCAAACAGGCCTTAGAAACTGTGCAGCGTTTACTGCCGGTTCTGTGTCAGGATCATGGGTTAACCCCGGACCAGGTGGTAGCTATTGCAAGTCACGATGGTGGTAAACAAGCGCTGGAAACGGTCCAGCGTCTGTTACCAGTCCTCTGCCAAGATCATGGCCTGACCCCGGATCAGGTTGTGGCCATTGCGAGCAACGGTGGGGGCAAACAGGCCTTAGAAACTGTGCAGCGTTTACTGCCGGTGTTATGCCAGGATCATGGTCTGACCCCGGATCAGGTTGTCGCGATTGCTTCACACGATGGGGGCAAACAGGCACTGGAAACCGTCCAACGCCTGCTGCCGGTTCTGTGTCAAGACCACGGTCTGACGCCGGATCAGGTCGTGGCCATCGCTTCGAACATTGGCGGTAAACAGGCATTAGAGACGGTCCAGCGTCTGCTGCCGGTCCTTTGCCAGGACCACGGGCTGACACCAGATCAGGTAGTCGCGATCGCGTCTAACGGTGGCGGTAAACAAGCTCTGGAAACAGTACAGCGTCTGTTACCAGTTTTATGCCAAGATCACGGCCTCACTCCAGATCAAGTAGTTGCGATCGCCAGCCACGATGGTGGGAAGCAGGCGTTAGAAACCGTTCAACGCTTACTTCCGGTGTTATGTCAGGACCATGGCCTGACCCCAGACCAGGTGGTAGCAATCGCATCGAACATTGGCGGCAAACAAGCGCTGGAAACAGTACAGCGCCTGCTCCCGGTGCTGTGCCAGGACCATGGCCTGACGCCGGATCAGGTTGTGGCAATCGCAAGCAACAATGGTGGTAAACAAGCCTTAGAGACAGTGCAGCGCCTCTTACCAGTGCTGTGCCAGGATCACGGCTTAACACCTGACCAAGTCGTGGCCATCGCAAGCAACAATGGCGGTAAGCAGGCGCTGGAGACCGTGCAGCGCCTGTTACCTGTTCTGTGTCAGGATCATGGTTTAACCCCGGATCAGGTGGTTGCTATTGCCTCTAACATTGGCGGCAAACAGGCACTGGAAACAGTTCAGCGCCTTTTACCAGTCCTGTGCCAGGACCATGGTTTAACTCCTGACCAGGTGGTGGCCATTGCTTCTAACATTGGGGGCAAGCAGGCCCTGGAGACCGTGCAACGCTTACTGCCGGTGTTATGCCAAGACCACGGTTTAACCCCGGATCAGGTGGTAGCGATTGCCTCGCACGATGGTGGTAAACAAGCTCTGGAAACCGTGCAACGTTTACTGCCGGTACTGTGTCAGGATCATGGCCTGACCCCAGATCAAGTAGTTGCTATTGCGAGCAACATTGGCGGTAAACAGGCATTAGAAACCGTGCAGCGCCTGTTACCTGTCCTGTGCCAGGATCACGGTTTAACACCTGACCAAGTTGTCGCGATCGCCAGCAACGGTGGTGGCAAACAGGCGCTGGAAACGGTTCAGCGTTTACTGCCGGTTTTATGCCAAGACCATGGCCTTACACCGGACCAAGTTGTTGCCATCGCGTCAAACAATGGCGGGAAACAGGCTCTCGAAACAGTACAGCGTCTGCTGCCGGTACTGTGTCAGGATCACGGGCTGACTCCTGACCAGGTGGTTGCGATTGCGAGCAACGGTGGTGGCAAGCAGGCGCTGGAAACTGTTCAACGTCTGCTGCCGGTGCTGTGTCAGGACCACGGT'
p90
aS'CTGACGCCGGATCAGGTCGTGGCAATCGCGAGCCACGATGGCGGCAAACAGGCCTTAGAGACTGTGCAGCGTTTACTGCCGGTTCTGTGTCAGGATCATGGGTTAACCCCGGACCAGGTGGTAGCTATTGCAAGTCACGATGGTGGTAAACAAGCGCTGGAAACGGTCCAGCGTCTGTTACCAGTACTCTGCCAAGATCATGGCCTGACCCCGGATCAGGTTGTGGCCATTGCGTCAAACGGTGGGGGCAAACAGGCCTTAGAAACTGTGCAGCGTTTACTGCCGGTGTTATGCCAGGATCATGGTCTGACCCCGGATCAGGTTGTCGCGATTGCTTCACACGATGGTGGCAAACAGGCACTGGAAACCGTCCAACGCCTGCTGCCGGTTCTGTGCCAAGACCACGGTCTGACGCCGGATCAGGTCGTGGCAATCGCTTCGAACATTGGGGGTAAACAGGCATTAGAAACGGTCCAGCGTCTGCTGCCGGTCCTTTGCCAGGACCACGGTCTGACTCCAGATCAGGTAGTCGCGATCGCGTCTAACGGTGGCGGTAAACAAGCTCTGGAAACCGTACAGCGTCTGTTACCAGTTTTATGCCAAGATCACGGCCTCACTCCAGATCAAGTAGTTGCGATCGCCAGCCACGATGGTGGGAAGCAGGCGTTAGAAACCGTTCAACGCTTACTTCCGGTGTTATGTCAGGATCATGGCCTGACCCCAGACCAGGTCGTAGCAATCGCATCGAACATTGGCGGCAAACAGGCGCTGGAAACAGTACAACGCCTGCTCCCGGTGCTGTGCCAGGACCATGGCCTGACGCCGGATCAGGTTGTGGCAATCGCAAGCAACAATGGTGGTAAACAAGCCTTAGAAACAGTGCAGCGCCTCTTACCAGTGCTGTGCCAGGATCACGGCTTAACACCGGATCAAGTGGTGGCCATCGCAAGTAACAATGGCGGGAAACAGGCGCTGGAGACCGTGCAGCGCCTGTTACCTGTTCTGTGTCAGGATCATGGTTTAACCCCGGATCAGGTGGTTGCTATTGCCTCTAACATTGGCGGTAAACAGGCACTGGAAACAGTTCAGCGCCTTTTACCAGTCCTGTGCCAGGACCATGGTTTAACTCCTGACCAGGTGGTGGCCATTGCTTCTAACATTGGGGGCAAGCAGGCCCTGGAGACCGTGCAACGCTTACTGCCGGTGTTATGCCAGGACCACGGTTTAACCCCGGATCAGGTGGTAGCGATTGCCTCGCACGATGGTGGTAAACAAGCTCTGGAAACCGTGCAACGTTTACTGCCGGTACTGTGTCAGGATCATGGCCTGACCCCAGATCAAGTAGTTGCTATTGCGAGCAACATTGGCGGTAAGCAGGCATTAGAGACTGTTCAGCGCCTGTTACCTGTCTTATGCCAGGATCACGGTTTAACACCTGACCAGGTTGTCGCGATCGCCAGCAACGGTGGTGGCAAACAGGCGCTGGAAACTGTTCAGCGTTTACTGCCGGTTTTATGCCAAGACCATGGCCTTACACCGGACCAAGTTGTTGCCATCGCGTCAAACAATGGCGGGAAACAGGCTCTCGAAACAGTACAGCGTCTGCTGCCGGTATTATGTCAGGATCACGGGCTGACTCCTGACCAGGTGGTTGCGATTGCGAGCAACGGTGGTGGCAAGCAGGCGCTGGAGACAGTTCAGCGTCTGCTGCCGGTGCTGTGTCAGGACCACGGT'
p91
aS'CTGACGCCGGATCAGGTCGTGGCAATCGCGAGCCACGATGGCGGCAAACAGGCCTTAGAGACTGTGCAGCGTTTACTGCCGGTTCTGTGTCAGGATCATGGGTTAACCCCGGACCAGGTGGTAGCTATTGCAAGTCACGATGGTGGTAAACAAGCGCTGGAAACGGTCCAGCGTCTGTTACCAGTACTCTGCCAAGATCATGGCCTGACCCCGGATCAAGTCGTGGCGATTGCGTCTAACGGTGGGGGCAAACAGGCCTTAGAAACTGTGCAGCGTTTACTGCCGGTGTTATGCCAGGATCATGGTCTGACCCCGGATCAGGTTGTCGCGATTGCTTCACACGATGGTGGCAAACAGGCACTGGAAACCGTCCAACGCCTGCTGCCGGTTCTGTGTCAAGACCACGGTCTGACCCCGGATCAGGTCGTGGCCATCGCTTCTAACATTGGCGGTAAACAGGCATTAGAAACGGTCCAGCGTCTGCTGCCTGTCCTTTGCCAGGACCATGGTCTGACACCAGATCAAGTAGTCGCGATCGCGTCAAACGGTGGCGGTAAGCAAGCTCTGGAAACCGTACAGCGTCTGTTACCAGTTTTATGCCAAGATCACGGCCTCACTCCAGATCAGGTAGTTGCGATTGCCAGCCACGATGGTGGGAAGCAGGCGTTAGAAACCGTTCAACGCTTACTTCCGGTGTTATGTCAGGATCATGGCCTGACCCCGGACCAGGTAGTCGCAATCGCATCGAACATTGGCGGCAAACAAGCGCTGGAAACAGTACAGCGCCTGCTCCCGGTGCTGTGCCAGGACCACGGCCTGACGCCGGATCAGGTTGTGGCAATCGCAAGCAACAATGGTGGTAAGCAAGCCTTAGAAACAGTGCAGCGCCTCTTACCAGTGCTGTGCCAGGATCACGGCTTAACACCGGATCAAGTCGTGGCCATCGCAAGCAACAATGGCGGGAAACAGGCGCTGGAGACCGTGCAGCGCCTGTTACCTGTTCTGTGTCAGGATCATGGTTTAACCCCGGATCAGGTGGTTGCTATTGCCTCGAACATTGGCGGTAAACAGGCACTGGAAACAGTTCAGCGCCTTTTACCAGTCCTGTGCCAGGACCATGGGCTGACTCCTGACCAGGTGGTGGCCATTGCTTCTAACATTGGGGGCAAGCAGGCCCTGGAGACCGTGCAACGCTTACTGCCGGTGTTATGCCAGGACCACGGTTTAACCCCGGATCAGGTGGTAGCGATTGCCTCGCACGATGGTGGTAAACAAGCTCTGGAAACCGTGCAACGTTTACTGCCGGTACTGTGTCAGGATCATGGCCTGACCCCAGATCAAGTAGTTGCTATTGCGAGCAACATTGGCGGTAAACAGGCATTAGAGACCGTTCAGCGCCTGTTACCTGTCCTGTGCCAGGATCACGGTTTAACACCTGACCAGGTTGTTGCGATCGCCAGCAACGGTGGTGGCAAACAGGCGCTGGAAACGGTTCAGCGTTTACTGCCGGTTTTATGCCAAGACCATGGCCTTACACCGGACCAAGTTGTTGCCATCGCGTCAAACAATGGCGGGAAACAGGCTCTTGAAACAGTACAGCGTCTGCTGCCGGTATTATGTCAGGATCACGGGCTGACTCCTGACCAGGTGGTTGCTATTGCGAGCAACGGTGGTGGCAAGCAGGCGCTGGAAACAGTTCAGCGTCTGCTGCCGGTGCTGTGTCAGGACCACGGT'
p92
aS'CTGACGCCGGATCAGGTCGTGGCAATCGCGAGCCACGATGGCGGCAAACAGGCCTTAGAGACAGTGCAGCGTTTACTGCCGGTTCTGTGTCAGGATCATGGGTTAACCCCGGACCAGGTGGTAGCTATTGCAAGTCACGATGGTGGTAAACAAGCGCTGGAAACGGTCCAGCGTCTGTTACCAGTCCTCTGCCAAGATCATGGCCTGACCCCGGATCAGGTTGTGGCCATTGCGAGCAACGGTGGGGGCAAACAGGCCTTAGAAACTGTGCAGCGTTTACTGCCGGTGTTATGCCAGGATCATGGTCTGACCCCGGATCAGGTTGTCGCGATTGCTTCACACGATGGGGGCAAACAGGCACTGGAAACCGTCCAACGCCTGCTGCCGGTTCTGTGTCAAGACCACGGTCTGACGCCGGATCAGGTCGTGGCCATCGCTTCGAACATTGGCGGTAAACAGGCATTAGAGACGGTCCAGCGTCTGCTGCCGGTCCTTTGCCAGGACCACGGGCTGACACCAGATCAGGTAGTCGCGATCGCGTCTAACGGTGGCGGTAAACAAGCTCTGGAAACCGTACAGCGTCTGTTACCAGTTTTATGCCAAGATCACGGCCTCACTCCAGATCAGGTAGTTGCGATCGCCAGCCACGATGGTGGGAAGCAGGCGTTAGAAACCGTTCAACGCTTACTTCCGGTGTTATGTCAGGATCATGGCCTGACCCCGGACCAGGTGGTAGCAATCGCATCGAACATTGGCGGCAAACAAGCGCTGGAAACAGTACAGCGCCTGCTCCCGGTGCTGTGTCAGGACCATGGCCTGACGCCGGATCAGGTTGTGGCAATCGCAAGCAACAATGGTGGTAAGCAAGCCTTAGAAACAGTGCAGCGCCTCTTACCAGTGCTGTGCCAGGATCACGGCTTAACACCGGATCAAGTCGTCGCCATCGCAAGCAACAATGGCGGTAAACAGGCGCTGGAGACCGTGCAACGCCTGTTACCTGTTCTGTGTCAGGATCATGGTTTAACCCCGGATCAGGTGGTTGCTATTGCGTCGAACATTGGCGGTAAACAGGCACTGGAAACAGTTCAGCGCCTTTTACCAGTCCTGTGCCAGGACCATGGTTTAACTCCTGACCAGGTGGTGGCCATTGCTTCTAACATTGGGGGGAAGCAGGCCCTGGAGACCGTGCAACGCTTACTGCCGGTGTTATGCCAAGACCACGGTTTAACCCCGGATCAGGTGGTAGCGATTGCCTCGCACGATGGTGGTAAACAAGCTCTGGAAACCGTGCAACGTTTACTGCCGGTACTGTGTCAGGATCATGGCCTGACCCCAGATCAAGTAGTTGCTATTGCGAGCAACATTGGCGGTAAACAGGCATTAGAGACCGTTCAGCGCCTGTTACCTGTCCTGTGCCAGGATCACGGTTTAACACCTGACCAAGTTGTCGCGATCGCCAGCAACGGTGGTGGCAAACAGGCGCTGGAAACGGTTCAGCGTTTACTGCCGGTTTTATGCCAAGACCATGGCCTTACACCGGACCAAGTTGTTGCCATCGCGTCAAACAATGGCGGGAAACAGGCTCTCGAAACAGTACAGCGTCTGCTGCCGGTATTATGTCAAGATCACGGGCTGACTCCTGACCAGGTGGTTGCGATTGCGAGCAACGGTGGTGGCAAGCAGGCGCTGGAGACTGTTCAGCGTCTGCTGCCGGTGCTGTGTCAGGACCACGGT'
p93
aS'CTGACGCCGGATCAGGTCGTGGCAATCGCGAGCCACGATGGCGGCAAACAAGCCTTAGAAACTGTGCAGCGTTTACTGCCGGTTCTGTGTCAGGATCATGGGTTAACCCCGGACCAGGTGGTAGCTATTGCAAGTCACGATGGTGGTAAACAAGCGCTGGAAACGGTCCAGCGTCTGTTACCAGTCCTCTGCCAAGATCATGGCCTGACCCCGGATCAGGTTGTGGCCATTGCGTCAAACGGTGGGGGCAAACAGGCCTTAGAAACTGTGCAGCGTTTACTGCCGGTGTTATGCCAGGATCATGGTCTGACCCCGGATCAGGTTGTCGCGATTGCTTCACACGATGGTGGCAAACAGGCACTGGAAACCGTCCAACGCCTGCTGCCGGTTCTGTGTCAAGACCACGGTCTGACGCCGGATCAGGTCGTGGCCATCGCTTCGAACATTGGCGGTAAACAGGCATTAGAAACGGTCCAGCGTCTGCTGCCAGTCCTTTGCCAGGACCACGGTTTAACACCAGATCAGGTAGTCGCGATCGCGTCTAACGGTGGCGGTAAACAAGCTCTGGAAACCGTACAGCGTCTGTTACCAGTTCTCTGCCAAGATCACGGCCTCACTCCAGATCAGGTAGTTGCGATCGCCAGCCACGATGGTGGGAAACAGGCGTTAGAAACCGTTCAACGCTTACTTCCGGTGTTATGTCAGGATCATGGCCTGACCCCGGACCAGGTGGTAGCAATCGCATCGAACATTGGCGGCAAACAAGCGCTGGAGACAGTACAGCGCCTGCTCCCGGTGCTGTGCCAGGACCATGGCCTGACGCCGGATCAGGTTGTGGCAATCGCGAGCAACAATGGTGGTAAGCAAGCCTTAGAAACAGTGCAGCGCCTCTTACCAGTGCTGTGCCAGGATCACGGCTTAACACCGGATCAAGTCGTGGCCATCGCAAGTAACAATGGCGGGAAACAGGCGCTGGAGACCGTGCAGCGCCTGTTACCTGTTCTGTGTCAGGATCATGGTTTAACCCCGGATCAGGTGGTTGCTATTGCCTCTAACATTGGCGGTAAACAGGCACTGGAAACAGTTCAGCGCCTTTTACCAGTCCTGTGCCAAGACCATGGCTTAACTCCAGACCAGGTGGTGGCCATTGCTTCTAACATTGGGGGCAAGCAGGCCCTGGAGACCGTGCAACGCTTACTGCCGGTGTTATGCCAGGACCACGGTTTAACCCCGGATCAGGTGGTAGCGATTGCCTCGCACGATGGTGGTAAACAGGCTCTGGAAACAGTGCAACGTTTACTGCCGGTACTGTGTCAGGATCATGGCCTGACCCCAGATCAAGTAGTTGCTATTGCGAGCAACATTGGGGGTAAACAGGCATTAGAGACCGTTCAGCGCCTGTTACCTGTCCTGTGTCAGGATCACGGTTTAACACCTGACCAAGTTGTCGCGATCGCCAGCAACGGTGGTGGCAAACAGGCGCTGGAAACGGTTCAGCGTTTACTGCCGGTTTTATGCCAAGACCATGGCCTTACACCGGACCAAGTTGTTGCCATCGCGTCAAACAATGGCGGGAAACAGGCTCTCGAAACAGTACAGCGTCTGCTGCCGGTATTATGTCAGGATCACGGGCTGACTCCTGACCAGGTGGTTGCGATTGCGAGCAACGGTGGTGGCAAGCAGGCGCTGGAGACAGTTCAGCGTCTGCTGCCGGTGCTGTGTCAGGACCACGGT'
p94
aS'CTGACGCCGGATCAGGTCGTGGCAATCGCGAGCCACGATGGCGGCAAACAGGCCTTAGAGACTGTGCAGCGTTTACTGCCGGTTCTGTGTCAGGATCACGGGTTAACCCCGGACCAGGTGGTAGCTATTGCATCGCACGATGGTGGTAAACAAGCGCTGGAAACGGTCCAGCGTCTGTTACCAGTACTCTGCCAAGATCATGGCCTGACCCCGGATCAGGTCGTGGCCATTGCGTCTAACGGTGGGGGCAAACAGGCCTTAGAAACTGTGCAGCGTTTACTGCCGGTGTTATGCCAGGATCATGGTCTGACCCCGGATCAGGTTGTCGCGATTGCTAGTCACGATGGTGGCAAACAGGCACTGGAAACCGTCCAACGCCTGCTGCCGGTTCTGTGTCAAGACCACGGTCTGACCCCGGATCAGGTCGTGGCCATCGCTTCTAACATTGGCGGTAAACAGGCATTAGAAACGGTCCAGCGTCTGCTGCCTGTCCTTTGCCAGGACCATGGTCTGACACCAGATCAAGTAGTCGCGATCGCGTCAAACGGTGGCGGTAAGCAAGCTCTTGAAACCGTACAGCGTCTGTTACCAGTTTTATGCCAAGATCACGGCCTCACTCCAGATCAGGTAGTTGCGATTGCCAGCCACGATGGTGGGAAGCAGGCGTTAGAAACCGTTCAACGCTTACTTCCGGTGTTATGTCAGGATCATGGCCTGACCCCGGACCAGGTAGTAGCAATCGCATCGAACATTGGCGGCAAACAAGCGCTGGAAACAGTACAGCGCCTGCTCCCGGTGCTGTGCCAGGACCATGGCCTGACGCCGGATCAGGTTGTGGCAATCGCAAGCAACAATGGTGGTAAGCAAGCCTTAGAAACAGTGCAGCGCCTCTTACCAGTGCTGTGCCAGGATCACGGCTTAACACCGGATCAAGTCGTGGCCATCGCAAGCAACAATGGCGGGAAACAGGCGCTGGAGACCGTGCAGCGCCTGTTACCTGTTCTGTGTCAGGATCATGGTTTAACCCCGGATCAGGTGGTTGCTATTGCCTCGAACATTGGCGGTAAACAGGCACTGGAAACAGTTCAGCGCCTTTTACCAGTCCTGTGCCAGGACCATGGTTTAACTCCTGACCAGGTGGTGGCCATTGCTTCTAACATTGGGGGCAAGCAGGCCCTGGAGACCGTGCAACGCTTACTGCCGGTGTTATGCCAAGACCACGGTTTAACCCCGGATCAGGTGGTAGCGATTGCCTCGCACGATGGTGGTAAACAAGCTCTGGAAACCGTGCAACGTTTACTGCCGGTACTGTGTCAGGATCATGGCCTGACCCCAGACCAAGTAGTTGCTATTGCGAGCAACATTGGCGGTAAACAGGCATTAGAGACCGTTCAGCGCCTGTTACCTGTCCTGTGCCAGGATCACGGTTTAACACCTGACCAAGTTGTGGCGATCGCCAGCAACGGTGGTGGCAAACAGGCGCTGGAAACGGTTCAGCGTTTACTGCCGGTTTTATGCCAAGACCATGGCCTTACACCGGACCAAGTTGTTGCCATCGCGTCAAACAATGGCGGGAAACAGGCTCTCGAAACAGTCCAGCGTCTGCTGCCGGTATTATGCCAGGATCACGGGCTGACTCCTGACCAGGTGGTTGCGATTGCGAGCAACGGTGGTGGCAAGCAGGCGCTGGAGACAGTTCAGCGTCTGCTGCCGGTGCTGTGTCAGGACCACGGT'
p95
aS'CTGACGCCGGATCAGGTCGTGGCAATCGCGAGCCACGATGGCGGCAAACAGGCCTTAGAGACAGTGCAGCGTTTACTGCCGGTTCTGTGTCAGGATCATGGGTTAACCCCGGACCAGGTGGTAGCTATTGCAAGTCACGATGGTGGTAAACAAGCGCTGGAAACGGTCCAGCGTCTGTTACCAGTCCTCTGCCAAGATCATGGCCTGACCCCGGATCAGGTTGTGGCCATTGCGAGCAACGGTGGGGGCAAACAGGCCTTAGAAACTGTGCAGCGTTTACTGCCGGTGTTATGCCAGGATCATGGTCTGACCCCGGATCAGGTTGTCGCGATTGCTTCACACGATGGGGGCAAACAGGCACTGGAAACCGTCCAACGCCTGCTGCCGGTTCTGTGTCAAGACCACGGTCTGACGCCGGATCAGGTCGTGGCCATCGCTTCGAACATTGGCGGTAAACAGGCATTAGAGACGGTCCAGCGTCTGCTGCCGGTCCTTTGCCAGGACCACGGGCTGACACCAGATCAGGTAGTCGCGATCGCGTCTAACGGTGGCGGTAAACAGGCTCTGGAAACCGTACAGCGTCTGTTACCAGTTTTATGCCAAGACCACGGCCTCACTCCAGATCAGGTAGTTGCGATCGCCAGCCACGATGGTGGGAAACAGGCGTTAGAAACCGTTCAACGCTTACTTCCGGTGTTATGTCAGGATCATGGCCTGACCCCGGACCAGGTGGTAGCAATCGCATCGAACATTGGCGGCAAACAAGCGCTGGAAACAGTACAGCGCCTGCTCCCGGTGCTGTGCCAGGACCATGGCCTGACGCCGGATCAGGTTGTGGCAATCGCAAGCAACAATGGTGGTAAGCAAGCCTTAGAAACAGTGCAGCGCCTCTTACCAGTGCTGTGCCAGGATCACGGCTTAACACCGGATCAAGTCGTGGCCATCGCAAGCAACAATGGCGGGAAACAGGCGCTGGAGACCGTGCAGCGCCTGTTACCTGTTCTGTGTCAGGATCATGGTTTAACCCCGGATCAGGTGGTTGCTATTGCCTCGAACATTGGCGGTAAACAGGCACTGGAAACAGTTCAGCGCCTTTTACCAGTCCTGTGCCAGGACCATGGTTTAACTCCTGACCAGGTGGTGGCCATTGCTTCTAACATTGGGGGCAAGCAGGCCCTGGAGACCGTGCAACGCTTACTGCCGGTGTTATGCCAAGACCACGGTTTAACCCCGGATCAGGTGGTAGCGATTGCCTCGCACGATGGTGGTAAACAAGCTCTGGAAACAGTGCAACGTTTACTGCCGGTACTGTGTCAGGATCATGGCCTGACCCCAGATCAAGTAGTTGCTATTGCGAGCAACATTGGCGGTAAACAGGCATTAGAGACCGTCCAGCGCCTGTTACCTGTCCTGTGCCAGGATCACGGTTTAACACCTGACCAAGTTGTCGCGATCGCCAGCAACGGTGGTGGCAAACAGGCGCTGGAAACGGTTCAGCGTTTACTGCCGGTTTTATGCCAAGATCATGGCCTTACACCGGACCAAGTTGTTGCCATCGCGTCAAACAATGGCGGGAAACAGGCTCTTGAAACAGTACAGCGTCTGCTGCCGGTATTATGTCAGGATCACGGGCTGACTCCTGACCAGGTGGTTGCGATTGCGAGCAACGGTGGTGGCAAGCAGGCGCTGGAGACTGTTCAGCGTCTGCTGCCGGTGCTGTGTCAGGACCACGGT'
p96
aS'CTGACGCCGGATCAGGTCGTGGCAATCGCGAGCCACGATGGCGGCAAACAGGCCTTAGAGACTGTGCAACGTTTACTGCCGGTTCTGTGTCAGGACCATGGGTTAACCCCGGACCAGGTGGTAGCTATTGCAAGTCACGATGGTGGTAAACAAGCGCTGGAAACGGTCCAGCGTCTGTTACCAGTACTCTGCCAAGATCATGGCCTGACCCCGGATCAGGTTGTGGCCATTGCGTCTAACGGTGGTGGCAAACAGGCCTTAGAAACTGTCCAGCGTTTACTGCCGGTGTTATGCCAGGATCATGGTCTTACCCCGGATCAGGTTGTCGCGATTGCTTCACACGATGGTGGCAAACAGGCACTGGAAACCGTCCAACGCCTGCTGCCGGTTCTGTGTCAAGACCACGGTCTGACGCCGGATCAGGTCGTGGCAATCGCTTCGAACATTGGGGGTAAACAGGCTTTAGAAACGGTCCAGCGTCTGCTGCCGGTCCTTTGCCAGGATCATGGTCTGACACCAGATCAAGTAGTCGCGATCGCGTCAAACGGTGGCGGTAAACAAGCTCTGGAAACCGTACAGCGTCTGTTACCAGTTTTATGCCAAGATCACGGCCTCACTCCAGATCAGGTAGTTGCGATCGCCAGCCACGATGGTGGGAAGCAGGCGTTAGAAACCGTTCAACGCTTACTTCCGGTGTTATGTCAGGATCATGGCCTGACCCCTGACCAGGTGGTAGCAATCGCATCGAACATTGGCGGCAAACAAGCGCTGGAAACAGTACAGCGCCTGCTCCCGGTGCTGTGCCAGGACCATGGCCTGACGCCGGATCAGGTTGTGGCAATCGCAAGCAACAATGGTGGTAAGCAAGCCTTAGAAACAGTGCAGCGCCTCTTACCAGTGCTGTGCCAGGATCACGGCTTAACACCGGATCAAGTCGTGGCCATCGCAAGCAACAATGGCGGGAAACAGGCGCTGGAGACCGTGCAGCGCCTGTTACCTGTTCTGTGTCAGGATCATGGTTTAACCCCGGATCAGGTGGTTGCTATTGCCTCGAACATTGGCGGTAAACAGGCACTGGAAACAGTTCAGCGCCTTTTACCAGTCCTGTGCCAGGACCATGGTTTAACTCCTGACCAGGTGGTGGCCATTGCTTCTAACATTGGGGGCAAGCAGGCCCTGGAGACCGTGCAACGCTTACTGCCGGTGTTATGCCAAGACCACGGTTTAACCCCGGATCAGGTGGTAGCGATTGCCTCGCACGATGGTGGTAAACAAGCTCTGGAAACAGTGCAACGTTTACTGCCGGTACTGTGTCAGGATCATGGCCTGACCCCAGATCAAGTAGTTGCTATTGCGAGCAACATTGGCGGTAAACAGGCATTAGAGACCGTCCAGCGCCTGTTACCTGTCCTGTGCCAGGATCACGGTTTAACACCTGACCAAGTTGTCGCGATCGCCAGCAACGGTGGTGGCAAACAGGCGCTGGAAACGGTTCAGCGTTTACTGCCGGTTTTATGCCAAGATCATGGCCTTACACCGGACCAAGTTGTTGCCATCGCGTCAAACAATGGCGGGAAACAGGCTCTTGAAACAGTACAGCGTCTGCTGCCGGTATTATGTCAGGATCACGGGCTGACTCCTGACCAGGTGGTTGCGATTGCGAGCAACGGTGGTGGCAAGCAGGCGCTGGAGACTGTTCAGCGTCTGCTGCCGGTGCTGTGTCAGGACCACGGT'
p97
aS'CTGACGCCGGATCAGGTCGTGGCAATCGCGAGCCACGATGGCGGCAAACAGGCCTTAGAGACTGTGCAGCGTTTACTGCCGGTACTGTGTCAGGATCATGGGTTAACCCCGGACCAGGTGGTAGCTATTGCAAGTCACGATGGTGGTAAACAAGCGCTGGAAACGGTCCAGCGTCTGCTCCCAGTACTCTGCCAAGATCATGGCCTGACCCCGGATCAAGTCGTGGCCATTGCGTCTAACGGTGGGGGCAAACAGGCCTTAGAAACTGTGCAGCGTTTACTGCCGGTGTTATGCCAGGATCATGGTCTGACCCCGGATCAGGTTGTCGCGATTGCTTCACACGATGGTGGCAAACAGGCCCTGGAGACCGTCCAACGCCTGCTGCCGGTTCTGTGTCAAGACCACGGTCTGACGCCGGATCAGGTCGTGGCCATCGCTTCGAACATTGGCGGTAAACAGGCATTAGAAACGGTCCAGCGTCTGCTGCCAGTCCTTTGCCAGGACCACGGGCTGACACCAGATCAGGTAGTCGCGATCGCGTCTAACGGTGGCGGTAAACAAGCTCTGGAAACAGTACAGCGTCTGTTACCAGTTTTATGCCAAGATCACGGCCTCACTCCAGATCAGGTAGTTGCGATCGCCAGCCACGATGGTGGGAAGCAGGCGTTAGAAACCGTTCAACGCTTACTTCCGGTGTTATGTCAGGATCATGGCCTGACCCCGGACCAGGTAGTAGCAATCGCATCGAACATTGGCGGCAAACAAGCGCTGGAAACAGTACAGCGCCTGCTCCCGGTGCTGTGCCAGGACCATGGCCTGACGCCGGATCAGGTTGTGGCAATCGCAAGCAACAATGGTGGTAAGCAAGCCTTAGAAACAGTGCAGCGCCTCTTACCAGTGCTGTGCCAGGATCACGGCTTAACACCGGATCAAGTCGTGGCCATCGCAAGCAACAATGGCGGGAAACAGGCGCTGGAGACCGTGCAGCGCCTGTTACCTGTTCTGTGTCAGGATCATGGTTTAACCCCGGATCAGGTGGTTGCTATTGCCTCGAACATTGGCGGTAAACAGGCACTGGAAACAGTTCAGCGCCTTTTACCAGTCCTGTGCCAGGACCATGGTTTAACTCCTGACCAGGTGGTGGCCATTGCTTCTAACATTGGGGGCAAACAAGCCCTGGAGACCGTGCAACGCTTACTGCCGGTGTTATGCCAAGACCACGGTTTAACCCCGGATCAGGTGGTAGCGATTGCCTCGCACGATGGTGGTAAACAAGCTCTGGAAACCGTGCAACGTTTACTGCCGGTACTGTGTCAGGATCATGGCCTGACCCCAGATCAGGTAGTTGCTATTGCGAGCAACATTGGCGGTAAACAGGCATTAGAGACCGTTCAGCGCCTGTTACCTGTCCTGTGCCAGGATCACGGTTTAACACCTGACCAAGTTGTCGCGATCGCCAGCAACGGTGGTGGCAAACAGGCGCTGGAAACGGTTCAGCGTTTACTGCCGGTTTTATGCCAAGACCATGGCCTTACACCGGACCAAGTTGTTGCCATCGCGTCAAACAATGGCGGGAAACAGGCTCTCGAAACAGTACAGCGTCTGCTGCCGGTATTATGTCAGGATCACGGGCTGACTCCTGACCAGGTGGTTGCGATTGCGAGCAACGGTGGTGGCAAGCAGGCGCTGGAGACTGTTCAGCGTCTGCTGCCGGTGCTGTGTCAGGATCACGGT'
p98
aS'CTGACGCCGGATCAGGTCGTGGCAATCGCGAGCCACGATGGCGGCAAACAGGCCTTAGAGACTGTGCAGCGTTTACTGCCGGTACTGTGTCAGGATCATGGGTTAACCCCGGACCAGGTGGTAGCTATTGCAAGTCACGATGGTGGTAAACAAGCGCTGGAAACGGTCCAGCGTCTGCTCCCAGTACTCTGCCAAGATCATGGCCTGACCCCGGATCAAGTCGTGGCCATTGCGTCTAACGGTGGGGGCAAACAGGCCTTAGAAACTGTGCAGCGTTTACTGCCGGTGTTATGCCAGGATCATGGTCTGACCCCGGATCAGGTTGTCGCGATTGCTTCACACGATGGTGGCAAACAGGCCCTGGAGACCGTCCAACGCCTGCTGCCGGTTCTGTGTCAAGACCACGGTCTGACGCCGGATCAGGTCGTGGCCATCGCTTCTAACATTGGCGGTAAACAGGCATTAGAAACGGTCCAGCGTCTGCTGCCTGTGCTTTGCCAGGACCATGGTCTGACACCAGATCAAGTAGTCGCGATCGCGTCAAACGGTGGCGGTAAGCAAGCTCTGGAAACCGTACAGCGTCTGTTACCAGTTTTATGCCAAGATCACGGCCTGACTCCAGACCAGGTAGTTGCGATTGCCAGCCACGATGGTGGGAAGCAGGCGTTAGAAACCGTTCAACGCTTACTTCCGGTGTTATGTCAGGATCATGGCCTGACCCCGGACCAGGTAGTAGCAATCGCATCGAACATTGGCGGCAAACAAGCGCTGGAAACAGTACAGCGCCTGCTCCCGGTGCTGTGCCAGGACCATGGCCTGACGCCGGATCAGGTTGTGGCAATCGCAAGCAACAATGGTGGTAAACAAGCCTTAGAAACAGTGCAGCGCCTCTTACCAGTGCTGTGCCAGGATCACGGCTTAACACCGGATCAAGTCGTGGCCATCGCAAGCAACAATGGCGGGAAACAGGCGCTGGAGACCGTGCAACGCCTGTTACCTGTTCTGTGTCAGGATCATGGTTTAACCCCGGATCAGGTGGTTGCTATTGCCTCTAACATTGGCGGTAAACAGGCACTGGAAACAGTTCAGCGCCTTTTACCAGTCCTGTGCCAGGACCATGGTTTAACTCCTGACCAGGTGGTGGCCATTGCTTCTAACATTGGGGGCAAGCAGGCCCTGGAGACCGTGCAACGCTTACTGCCGGTGTTATGCCAAGACCACGGTTTAACCCCGGATCAGGTGGTAGCGATTGCCTCGCACGATGGTGGTAAACAAGCTCTGGAAACCGTGCAACGTTTACTGCCGGTACTGTGTCAGGATCATGGCCTGACCCCAGATCAAGTAGTTGCTATTGCGAGCAACATTGGCGGTAAACAGGCATTAGAGACCGTTCAGCGCCTGTTACCTGTCCTGTGCCAGGATCACGGTTTAACACCTGACCAAGTTGTCGCGATCGCCAGCAACGGTGGTGGCAAACAGGCGCTGGAAACGGTTCAGCGTTTACTGCCGGTTTTATGCCAAGACCACGGCCTTACACCGGACCAAGTTGTTGCCATCGCGTCAAACAATGGCGGGAAACAGGCTCTCGAAACAGTACAGCGTCTGCTGCCGGTATTATGTCAGGATCACGGGCTGACTCCTGACCAGGTGGTTGCGATTGCGAGCAACGGTGGTGGCAAGCAGGCGCTGGAGACAGTTCAGCGTCTGCTGCCGGTGCTGTGTCAGGACCACGGT'
p99
aS'CTGACGCCGGATCAGGTCGTGGCAATCGCGAGCCACGATGGCGGCAAACAGGCCTTAGAGACTGTGCAGCGTTTACTGCCAGTTCTGTGTCAAGATCATGGGTTAACCCCGGACCAGGTGGTAGCTATTGCAAGTCACGATGGTGGTAAACAAGCGCTGGAAACGGTCCAGCGTCTGTTACCAGTACTCTGCCAAGATCATGGCCTGACCCCGGATCAAGTTGTGGCCATTGCGTCTAACGGTGGGGGCAAACAGGCCTTAGAAACTGTGCAGCGTTTACTGCCGGTGTTATGCCAGGATCATGGTCTGACCCCGGATCAGGTTGTCGCGATTGCTTCACACGATGGTGGCAAACAGGCACTGGAAACCGTCCAACGCCTGCTGCCGGTTCTGTGTCAAGACCACGGTCTGACCCCGGATCAGGTCGTGGCCATCGCTTCGAACATTGGCGGTAAACAGGCATTAGAAACGGTCCAGCGTCTGCTGCCAGTCCTTTGCCAGGACCACGGGCTGACACCAGATCAGGTAGTCGCGATCGCGTCTAACGGTGGCGGTAAACAAGCTCTGGAAACAGTACAGCGTCTGTTACCAGTTTTATGCCAAGATCACGGCCTCACTCCAGATCAGGTAGTTGCGATCGCCAGCCACGATGGTGGGAAGCAGGCGTTAGAAACCGTTCAACGCTTACTTCCGGTGTTATGTCAGGATCATGGCCTGACCCCTGACCAGGTGGTAGCAATCGCATCGAACATTGGCGGCAAACAAGCGCTGGAAACAGTACAGCGCCTGCTCCCGGTGCTGTGCCAGGACCATGGCCTGACGCCGGATCAGGTTGTGGCAATCGCAAGCAACAATGGTGGTAAGCAAGCCTTAGAAACAGTGCAGCGCCTCTTACCAGTGCTGTGCCAGGATCACGGCTTAACACCGGATCAAGTCGTGGCCATCGCAAGCAACAATGGCGGGAAACAGGCGCTGGAGACCGTGCAGCGCCTGTTACCTGTTCTGTGTCAGGATCATGGTTTAACCCCGGATCAGGTGGTTGCTATTGCCTCGAACATTGGCGGTAAACAGGCACTGGAAACAGTTCAGCGCCTTTTACCAGTCCTGTGCCAGGACCATGGTTTAACTCCTGACCAGGTGGTGGCCATTGCTTCTAACATTGGGGGCAAGCAGGCCCTGGAGACCGTGCAACGCTTACTGCCGGTGTTATGCCAAGACCACGGTTTAACCCCGGATCAGGTGGTAGCGATTGCCTCGCACGATGGTGGTAAACAAGCTCTGGAAACAGTGCAACGTTTACTGCCGGTACTGTGTCAGGATCATGGCCTGACCCCAGATCAAGTAGTTGCTATTGCGAGCAACATTGGCGGTAAACAGGCATTAGAGACCGTCCAGCGCCTGTTACCTGTCCTGTGCCAGGATCACGGTTTAACACCTGACCAAGTTGTCGCGATCGCCAGCAACGGTGGTGGCAAACAGGCGCTGGAAACGGTTCAGCGTTTACTGCCGGTTTTATGCCAAGATCATGGCCTTACACCGGACCAAGTTGTTGCCATCGCGTCAAACAATGGCGGGAAACAGGCTCTTGAAACAGTACAGCGTCTGCTGCCGGTATTATGTCAGGATCACGGGCTGACACCTGACCAGGTGGTTGCGATTGCGAGCAACGGTGGTGGCAAGCAGGCGCTGGAGACTGTTCAGCGTCTGCTGCCGGTGCTGTGTCAGGACCACGGT'
p100
aS'CTGACGCCGGATCAGGTCGTGGCAATCGCGAGCCACGATGGCGGCAAACAGGCCTTAGAAACTGTGCAACGTTTACTGCCGGTTCTGTGTCAGGATCATGGGTTAACCCCGGACCAGGTGGTAGCTATTGCAAGTCACGATGGTGGTAAACAAGCGCTGGAAACGGTCCAGCGTCTGTTACCAGTACTCTGCCAAGATCATGGCCTGACCCCGGATCAAGTTGTGGCCATTGCGTCTAACGGTGGGGGCAAACAGGCCTTAGAAACTGTGCAGCGTTTACTGCCGGTGTTATGCCAGGATCATGGTCTGACCCCGGATCAGGTTGTCGCGATTGCTTCACACGATGGTGGCAAACAGGCCCTGGAGACCGTCCAACGCCTGCTGCCGGTTCTGTGTCAAGACCACGGTCTGACGCCGGATCAGGTCGTGGCCATCGCTTCGAACATTGGCGGTAAACAGGCATTAGAAACGGTCCAGCGTCTGCTGCCAGTCCTTTGCCAGGACCACGGTCTGACACCAGATCAGGTAGTCGCGATCGCGTCTAACGGTGGCGGTAAACAAGCTCTGGAAACCGTACAGCGTCTGTTACCAGTTTTATGCCAAGATCACGGCCTCACTCCAGATCAGGTAGTTGCGATTGCCAGCCACGATGGGGGGAAGCAGGCGTTAGAAACCGTTCAACGCTTACTTCCGGTGTTATGTCAGGATCATGGCCTGACCCCTGACCAGGTGGTAGCAATCGCATCGAACATTGGCGGCAAACAAGCGCTGGAAACAGTACAGCGCCTGCTCCCGGTGCTGTGCCAGGACCATGGCCTGACGCCGGATCAGGTTGTGGCAATCGCAAGCAACAATGGTGGTAAGCAAGCCTTAGAAACAGTGCAGCGCCTCTTACCAGTGCTGTGCCAGGATCACGGCTTAACACCGGATCAAGTCGTGGCCATCGCAAGCAACAATGGCGGGAAACAGGCGCTGGAGACCGTGCAGCGCCTGTTACCTGTTCTGTGTCAGGATCATGGTTTAACCCCGGATCAGGTGGTTGCTATTGCCTCGAACATTGGCGGTAAACAGGCACTGGAAACAGTTCAGCGCCTTTTACCAGTCCTGTGCCAGGACCATGGTTTAACTCCTGACCAGGTGGTGGCCATTGCTTCTAACATTGGGGGCAAGCAGGCCCTGGAGACCGTGCAACGCTTACTGCCGGTGTTATGCCAAGACCACGGTTTAACCCCGGATCAGGTGGTAGCGATTGCCTCGCACGATGGTGGTAAACAAGCTCTGGAAACCGTGCAACGTTTACTGCCGGTACTGTGTCAGGATCATGGCCTGACCCCAGATCAAGTAGTGGCTATTGCGAGCAACATTGGCGGTAAACAGGCATTAGAGACCGTTCAGCGCCTGTTACCTGTCCTGTGCCAGGATCACGGTTTAACACCTGACCAGGTTGTCGCGATTGCCAGCAACGGTGGTGGCAAACAGGCGCTGGAAACGGTTCAGCGTTTACTGCCGGTTTTATGCCAAGATCATGGCCTTACACCGGACCAAGTTGTTGCCATCGCGTCAAACAATGGCGGGAAACAGGCTCTTGAAACAGTACAGCGTCTGCTGCCGGTATTATGTCAGGATCACGGGCTGACTCCTGACCAGGTGGTTGCGATTGCGAGCAACGGTGGTGGCAAGCAGGCGCTGGAGACTGTTCAGCGTCTGCTGCCGGTGCTGTGTCAGGACCACGGT'
p101
aa.